 online_fuzz_clus_sfun

 Timestamp is 4fb600da (Fri May 18 12:27:14 2012)

 Preferred load address is 0000000180000000

 Start         Length     Name                   Class
 0001:00000000 0004f9b4H .text                   CODE
 0001:0004f9c0 00000092H .text$x                 CODE
 0002:00000000 00000470H .idata$5                DATA
 0002:00000470 00000008H .CRT$XCA                DATA
 0002:00000478 00000008H .CRT$XCZ                DATA
 0002:00000480 00000008H .CRT$XIA                DATA
 0002:00000488 00000008H .CRT$XIAA               DATA
 0002:00000490 00000008H .CRT$XIZ                DATA
 0002:000004a0 00004c8cH .rdata                  DATA
 0002:00005130 00000008H .rtc$IAA                DATA
 0002:00005138 00000008H .rtc$IZZ                DATA
 0002:00005140 00000008H .rtc$TAA                DATA
 0002:00005148 00000008H .rtc$TZZ                DATA
 0002:00005150 00004684H .xdata                  DATA
 0002:000097d4 000000a0H .idata$2                DATA
 0002:00009874 00000014H .idata$3                DATA
 0002:00009888 00000470H .idata$4                DATA
 0002:00009cf8 00000a2aH .idata$6                DATA
 0002:0000a730 0000005bH .edata                  DATA
 0003:00000000 00007178H .data                   DATA
 0003:00007180 00002678H .bss                    DATA
 0004:00000000 00003918H .pdata                  DATA

  Address         Publics by Value              Rva+Base               Lib:Object

 0000:00000000       ___safe_se_handler_count   0000000000000000     <absolute>
 0000:00000000       ___safe_se_handler_table   0000000000000000     <absolute>
 0000:00000000       __ImageBase                0000000180000000     <linker-defined>
 0001:00000000       sf_c1_online_fuzz_clus_get_eml_resolved_functions_info 0000000180001000 f   c1_online_fuzz_clus.obj
 0001:00000830       sf_c1_online_fuzz_clus_get_check_sum 0000000180001830 f   c1_online_fuzz_clus.obj
 0001:000008b0       sf_c1_online_fuzz_clus_get_autoinheritance_info 00000001800018b0 f   c1_online_fuzz_clus.obj
 0001:00000fd0       sf_internal_get_sim_state_c1_online_fuzz_clus 0000000180001fd0 f   c1_online_fuzz_clus.obj
 0001:000013e0       sf_internal_set_sim_state_c1_online_fuzz_clus 00000001800023e0 f   c1_online_fuzz_clus.obj
 0001:00001820       c1_online_fuzz_clus_method_dispatcher 0000000180002820 f   c1_online_fuzz_clus.obj
 0001:00004290       sf_c2_online_fuzz_clus_get_eml_resolved_functions_info 0000000180005290 f   c2_online_fuzz_clus.obj
 0001:00004b30       sf_c2_online_fuzz_clus_get_check_sum 0000000180005b30 f   c2_online_fuzz_clus.obj
 0001:00004bb0       sf_c2_online_fuzz_clus_get_autoinheritance_info 0000000180005bb0 f   c2_online_fuzz_clus.obj
 0001:00005180       sf_internal_get_sim_state_c2_online_fuzz_clus 0000000180006180 f   c2_online_fuzz_clus.obj
 0001:000054c0       sf_internal_set_sim_state_c2_online_fuzz_clus 00000001800064c0 f   c2_online_fuzz_clus.obj
 0001:000058b0       c2_online_fuzz_clus_method_dispatcher 00000001800068b0 f   c2_online_fuzz_clus.obj
 0001:00007c80       sf_c3_online_fuzz_clus_get_eml_resolved_functions_info 0000000180008c80 f   c3_online_fuzz_clus.obj
 0001:000085e0       sf_c3_online_fuzz_clus_get_check_sum 00000001800095e0 f   c3_online_fuzz_clus.obj
 0001:00008660       sf_c3_online_fuzz_clus_get_autoinheritance_info 0000000180009660 f   c3_online_fuzz_clus.obj
 0001:00008c30       sf_internal_get_sim_state_c3_online_fuzz_clus 0000000180009c30 f   c3_online_fuzz_clus.obj
 0001:00008f70       sf_internal_set_sim_state_c3_online_fuzz_clus 0000000180009f70 f   c3_online_fuzz_clus.obj
 0001:00009360       c3_online_fuzz_clus_method_dispatcher 000000018000a360 f   c3_online_fuzz_clus.obj
 0001:0000b710       sf_c4_online_fuzz_clus_get_eml_resolved_functions_info 000000018000c710 f   c4_online_fuzz_clus.obj
 0001:0000bf40       sf_c4_online_fuzz_clus_get_check_sum 000000018000cf40 f   c4_online_fuzz_clus.obj
 0001:0000bfc0       sf_c4_online_fuzz_clus_get_autoinheritance_info 000000018000cfc0 f   c4_online_fuzz_clus.obj
 0001:0000c820       sf_internal_get_sim_state_c4_online_fuzz_clus 000000018000d820 f   c4_online_fuzz_clus.obj
 0001:0000cb60       sf_internal_set_sim_state_c4_online_fuzz_clus 000000018000db60 f   c4_online_fuzz_clus.obj
 0001:0000cf50       c4_online_fuzz_clus_method_dispatcher 000000018000df50 f   c4_online_fuzz_clus.obj
 0001:0000f8e0       sf_c5_online_fuzz_clus_get_eml_resolved_functions_info 00000001800108e0 f   c5_online_fuzz_clus.obj
 0001:000104c0       sf_c5_online_fuzz_clus_get_check_sum 00000001800114c0 f   c5_online_fuzz_clus.obj
 0001:00010540       sf_c5_online_fuzz_clus_get_autoinheritance_info 0000000180011540 f   c5_online_fuzz_clus.obj
 0001:00010c50       sf_internal_get_sim_state_c5_online_fuzz_clus 0000000180011c50 f   c5_online_fuzz_clus.obj
 0001:00010f90       sf_internal_set_sim_state_c5_online_fuzz_clus 0000000180011f90 f   c5_online_fuzz_clus.obj
 0001:00011380       c5_online_fuzz_clus_method_dispatcher 0000000180012380 f   c5_online_fuzz_clus.obj
 0001:00013b00       sf_c6_online_fuzz_clus_get_eml_resolved_functions_info 0000000180014b00 f   c6_online_fuzz_clus.obj
 0001:000143b0       sf_c6_online_fuzz_clus_get_check_sum 00000001800153b0 f   c6_online_fuzz_clus.obj
 0001:00014430       sf_c6_online_fuzz_clus_get_autoinheritance_info 0000000180015430 f   c6_online_fuzz_clus.obj
 0001:00014a50       sf_internal_get_sim_state_c6_online_fuzz_clus 0000000180015a50 f   c6_online_fuzz_clus.obj
 0001:00014df0       sf_internal_set_sim_state_c6_online_fuzz_clus 0000000180015df0 f   c6_online_fuzz_clus.obj
 0001:000152b0       c6_online_fuzz_clus_method_dispatcher 00000001800162b0 f   c6_online_fuzz_clus.obj
 0001:00018ef0       sf_c7_online_fuzz_clus_get_eml_resolved_functions_info 0000000180019ef0 f   c7_online_fuzz_clus.obj
 0001:00019760       sf_c7_online_fuzz_clus_get_check_sum 000000018001a760 f   c7_online_fuzz_clus.obj
 0001:000197e0       sf_c7_online_fuzz_clus_get_autoinheritance_info 000000018001a7e0 f   c7_online_fuzz_clus.obj
 0001:0001a2d0       sf_internal_get_sim_state_c7_online_fuzz_clus 000000018001b2d0 f   c7_online_fuzz_clus.obj
 0001:0001a790       sf_internal_set_sim_state_c7_online_fuzz_clus 000000018001b790 f   c7_online_fuzz_clus.obj
 0001:0001ac20       c7_online_fuzz_clus_method_dispatcher 000000018001bc20 f   c7_online_fuzz_clus.obj
 0001:0001d250       sf_process_check_sum_call  000000018001e250 f   online_fuzz_clus_sfun_registry.obj
 0001:0001d2a0       sf_process_autoinheritance_call 000000018001e2a0 f   online_fuzz_clus_sfun_registry.obj
 0001:0001d420       sf_process_get_eml_resolved_functions_info_call 000000018001e420 f   online_fuzz_clus_sfun_registry.obj
 0001:0001d5a0       sf_mex_unlock_call         000000018001e5a0 f   online_fuzz_clus_sfun_registry.obj
 0001:0001d650       sf_machine_global_initializer_called 000000018001e650 f   online_fuzz_clus_sfun_registry.obj
 0001:0001d680       sf_machine_global_method_dispatcher 000000018001e680 f   online_fuzz_clus_sfun_registry.obj
 0001:0001d6e0       sf_machine_global_terminator 000000018001e6e0 f   online_fuzz_clus_sfun_registry.obj
 0001:0001d720       sf_register_machine_exported_symbols 000000018001e720 f   online_fuzz_clus_sfun_registry.obj
 0001:0001d740       callCustomFcn              000000018001e740 f   online_fuzz_clus_sfun_registry.obj
 0001:0001d750       sf_machine_global_initializer 000000018001e750 f   online_fuzz_clus_sfun_registry.obj
 0001:0001d7c0       _ssSetStateAbsTol          000000018001e7c0 f   online_fuzz_clus_sfun_registry.obj
 0001:0001d8a0       _ssGetAbsTol               000000018001e8a0 f   online_fuzz_clus_sfun_registry.obj
 0001:0001d910       _ssSetInputPortMatrixDimensions 000000018001e910 f   online_fuzz_clus_sfun_registry.obj
 0001:0001da20       _ssSetOutputPortMatrixDimensions 000000018001ea20 f   online_fuzz_clus_sfun_registry.obj
 0001:0001db30       _ssSetInputPortVectorDimension 000000018001eb30 f   online_fuzz_clus_sfun_registry.obj
 0001:0001dc00       _ssSetOutputPortVectorDimension 000000018001ec00 f   online_fuzz_clus_sfun_registry.obj
 0001:0001dcd0       ssIsRunTimeParamTunable    000000018001ecd0 f   online_fuzz_clus_sfun_registry.obj
 0001:0001dd40       ssGetSFuncBlockHandle      000000018001ed40 f   online_fuzz_clus_sfun_registry.obj
 0001:0001ddb0       _ssGetCurrentInputPortWidth 000000018001edb0 f   online_fuzz_clus_sfun_registry.obj
 0001:0001ded0       _ssGetCurrentOutputPortWidth 000000018001eed0 f   online_fuzz_clus_sfun_registry.obj
 0001:0001dff0       _ssGetCallSystemNumFcnCallDestinations 000000018001eff0 f   online_fuzz_clus_sfun_registry.obj
 0001:0001e060       ssWarning                  000000018001f060 f   online_fuzz_clus_sfun_registry.obj
 0001:0001e170       ssGetIsZeroCrossControlDisabled 000000018001f170 f   online_fuzz_clus_sfun_registry.obj
 0001:0001e1e0       ssSetIsInputPortUsedForContZcSignal 000000018001f1e0 f   online_fuzz_clus_sfun_registry.obj
 0001:0001e250       ssSetZcSignalIsZcElementDisc 000000018001f250 f   online_fuzz_clus_sfun_registry.obj
 0001:0001e300       ssSetZcSignalName          000000018001f300 f   online_fuzz_clus_sfun_registry.obj
 0001:0001e370       ssSetZcSignalWidth         000000018001f370 f   online_fuzz_clus_sfun_registry.obj
 0001:0001e3e0       ssSetZcSignalZcEventType   000000018001f3e0 f   online_fuzz_clus_sfun_registry.obj
 0001:0001e450       ssSetZcSignalType          000000018001f450 f   online_fuzz_clus_sfun_registry.obj
 0001:0001e4c0       ssSetZcSignalZcTol         000000018001f4c0 f   online_fuzz_clus_sfun_registry.obj
 0001:0001e530       ssSetZcSignalNeedsEventNotification 000000018001f530 f   online_fuzz_clus_sfun_registry.obj
 0001:0001e5a0       ssCreateAndAddZcSignalInfo 000000018001f5a0 f   online_fuzz_clus_sfun_registry.obj
 0001:0001e610       ssCloneAndAddZcSignalInfo  000000018001f610 f   online_fuzz_clus_sfun_registry.obj
 0001:0001e680       ssGetNumZcSignals          000000018001f680 f   online_fuzz_clus_sfun_registry.obj
 0001:0001e6f0       ssGetZcSignalVector        000000018001f6f0 f   online_fuzz_clus_sfun_registry.obj
 0001:0001e760       ssGetZcSignalZcEvents      000000018001f760 f   online_fuzz_clus_sfun_registry.obj
 0001:0001e7d0       ssGetZcSignalName          000000018001f7d0 f   online_fuzz_clus_sfun_registry.obj
 0001:0001e840       ssGetZcSignalWidth         000000018001f840 f   online_fuzz_clus_sfun_registry.obj
 0001:0001e8b0       ssGetZcSignalZcEventType   000000018001f8b0 f   online_fuzz_clus_sfun_registry.obj
 0001:0001e920       ssGetZcSignalType          000000018001f920 f   online_fuzz_clus_sfun_registry.obj
 0001:0001e990       ssGetZcSignalZcTol         000000018001f990 f   online_fuzz_clus_sfun_registry.obj
 0001:0001ea10       ssGetZcSignalNeedsEventNotification 000000018001fa10 f   online_fuzz_clus_sfun_registry.obj
 0001:0001ea80       ssGetZcSignalIsZcElementDisc 000000018001fa80 f   online_fuzz_clus_sfun_registry.obj
 0001:0001eb20       ssGetIsInputPortElementContinuous 000000018001fb20 f   online_fuzz_clus_sfun_registry.obj
 0001:0001ebc0       _ssGetInputPortSignalPtrsFcn 000000018001fbc0 f   online_fuzz_clus_sfun_registry.obj
 0001:0001ee80       _ssGetInputPortSignalFcn   000000018001fe80 f   online_fuzz_clus_sfun_registry.obj
 0001:0001f0a0       _ssSetInputPortDirectFeedThroughFcn 00000001800200a0 f   online_fuzz_clus_sfun_registry.obj
 0001:0001f200       _ssSetInputPortReusableFcn 0000000180020200 f   online_fuzz_clus_sfun_registry.obj
 0001:0001f2f0       _ssSetOutputPortReusableFcn 00000001800202f0 f   online_fuzz_clus_sfun_registry.obj
 0001:0001f3d0       ssGetDTypeIdFromMxArray    00000001800203d0 f   online_fuzz_clus_sfun_registry.obj
 0001:0001f4f0       ssWriteRTWStr              00000001800204f0 f   online_fuzz_clus_sfun_registry.obj
 0001:0001f550       ssWriteRTWMxVectParam      0000000180020550 f   online_fuzz_clus_sfun_registry.obj
 0001:0001f5b0       ssWriteRTWMx2dMatParam     00000001800205b0 f   online_fuzz_clus_sfun_registry.obj
 0001:0001f630       ssWriteRTWNameValuePair    0000000180020630 f   online_fuzz_clus_sfun_registry.obj
 0001:0001fb20       ssWriteRTWParameters       0000000180020b20 f   online_fuzz_clus_sfun_registry.obj
 0001:00020120       ssWriteRTWParamSettings    0000000180021120 f   online_fuzz_clus_sfun_registry.obj
 0001:000207f0       ssWriteRTWWorkVect         00000001800217f0 f   online_fuzz_clus_sfun_registry.obj
 0001:00020cf0       mexFunction                0000000180021cf0 f   online_fuzz_clus_sfun_registry.obj
 0001:00022930       ProcessMexSfunctionEveryCall 0000000180023930 f   online_fuzz_clus_sfun_registry.obj
 0001:00022aa0       online_fuzz_clus_initializer 0000000180023aa0 f   online_fuzz_clus_sfun.obj
 0001:00022ab0       online_fuzz_clus_terminator 0000000180023ab0 f   online_fuzz_clus_sfun.obj
 0001:00022ac0       sf_online_fuzz_clus_method_dispatcher 0000000180023ac0 f   online_fuzz_clus_sfun.obj
 0001:00022be0       sf_online_fuzz_clus_process_check_sum_call 0000000180023be0 f   online_fuzz_clus_sfun.obj
 0001:00023080       sf_online_fuzz_clus_autoinheritance_info 0000000180024080 f   online_fuzz_clus_sfun.obj
 0001:00023210       sf_online_fuzz_clus_get_eml_resolved_functions_info 0000000180024210 f   online_fuzz_clus_sfun.obj
 0001:000234d0       online_fuzz_clus_debug_initialize 00000001800244d0 f   online_fuzz_clus_sfun.obj
 0001:00023540       online_fuzz_clus_register_exported_symbols 0000000180024540 f   online_fuzz_clus_sfun.obj
 0001:000235f0       sf_mex_mx_is_numeric       00000001800245f0 f   sfc_mex:sfc_mex.obj
 0001:00023630       strcmp_ignore_ws           0000000180024630 f   sfc_mex:sfc_mex.obj
 0001:00023770       sf_mex_duplicatearraysafe  0000000180024770 f   sfc_mex:sfc_mex.obj
 0001:000238d0       sf_set_error_debugger_context_message_fcn 00000001800248d0 f   sfc_mex:sfc_mex.obj
 0001:000238e0       sf_set_debugger_matlab_error_fcn 00000001800248e0 f   sfc_mex:sfc_mex.obj
 0001:00023910       sf_set_error_prefix_string 0000000180024910 f   sfc_mex:sfc_mex.obj
 0001:00023940       sf_get_error_prefix_string 0000000180024940 f   sfc_mex:sfc_mex.obj
 0001:00023950       sf_get_current_jmp_buf_ptr 0000000180024950 f   sfc_mex:sfc_mex.obj
 0001:00023960       sf_set_current_jmp_buf_ptr 0000000180024960 f   sfc_mex:sfc_mex.obj
 0001:00023970       sf_mex_set_halt_simulation 0000000180024970 f   sfc_mex:sfc_mex.obj
 0001:00023980       sf_mex_get_halt_simulation 0000000180024980 f   sfc_mex:sfc_mex.obj
 0001:00023990       sf_mex_clear_error_message 0000000180024990 f   sfc_mex:sfc_mex.obj
 0001:000239b0       sf_mex_get_error_message_for_read 00000001800249b0 f   sfc_mex:sfc_mex.obj
 0001:000239c0       sf_mex_get_error_message_buffer_length 00000001800249c0 f   sfc_mex:sfc_mex.obj
 0001:00023aa0       sf_mex_warning_message     0000000180024aa0 f   sfc_mex:sfc_mex.obj
 0001:00023b10       sf_mex_v_errbuf_createf    0000000180024b10 f   sfc_mex:sfc_mex.obj
 0001:00023b20       sf_mex_errbuf_createf      0000000180024b20 f   sfc_mex:sfc_mex.obj
 0001:00023b50       sf_mex_v_errbuf_catf       0000000180024b50 f   sfc_mex:sfc_mex.obj
 0001:00023b90       sf_mex_errbuf_catf         0000000180024b90 f   sfc_mex:sfc_mex.obj
 0001:00023be0       sf_mex_errbuf_copy         0000000180024be0 f   sfc_mex:sfc_mex.obj
 0001:00023bf0       sf_mex_errbuf_clear        0000000180024bf0 f   sfc_mex:sfc_mex.obj
 0001:00023c00       sf_mex_errbuf_isempty      0000000180024c00 f   sfc_mex:sfc_mex.obj
 0001:00023d10       sf_mex_set_error_status    0000000180024d10 f   sfc_mex:sfc_mex.obj
 0001:00023d60       sf_mex_error_direct_call   0000000180024d60 f   sfc_mex:sfc_mex.obj
 0001:00023d80       sf_mex_error_message_no_long_jump 0000000180024d80 f   sfc_mex:sfc_mex.obj
 0001:00023da0       sf_mex_long_jump_on_error  0000000180024da0 f   sfc_mex:sfc_mex.obj
 0001:00023dd0       sf_mex_call_matlab         0000000180024dd0 f   sfc_mex:sfc_mex.obj
 0001:00023ef0       sf_mex_check_builtin       0000000180024ef0 f   sfc_mex:sfc_mex.obj
 0001:00023f30       sf_mex_check_builtin_vs    0000000180024f30 f   sfc_mex:sfc_mex.obj
 0001:00023f90       sf_mex_check_enum          0000000180024f90 f   sfc_mex:sfc_mex.obj
 0001:00023fc0       sf_mex_create_enum         0000000180024fc0 f   sfc_mex:sfc_mex.obj
 0001:00023fe0       sf_mex_get_enum_element    0000000180024fe0 f   sfc_mex:sfc_mex.obj
 0001:00023ff0       sf_mex_createcellarray     0000000180024ff0 f   sfc_mex:sfc_mex.obj
 0001:00024000       sf_mex_setcell             0000000180025000 f   sfc_mex:sfc_mex.obj
 0001:00024010       sf_mex_getcell             0000000180025010 f   sfc_mex:sfc_mex.obj
 0001:00024020       sf_mex_dup                 0000000180025020 f   sfc_mex:sfc_mex.obj
 0001:00024040       sf_mex_assign              0000000180025040 f   sfc_mex:sfc_mex.obj
 0001:000240a0       sf_mex_destroy             00000001800250a0 f   sfc_mex:sfc_mex.obj
 0001:000240d0       mx_array_has_fi_type       00000001800250d0 f   sfc_mex:sfc_mex.obj
 0001:00024100       sf_mex_convert_from_fi     0000000180025100 f   sfc_mex:sfc_mex.obj
 0001:000241b0       sf_mex_convert_to_double   00000001800251b0 f   sfc_mex:sfc_mex.obj
 0001:000242d0       sf_mex_import_fi_vs        00000001800252d0 f   sfc_mex:sfc_mex.obj
 0001:00024490       sf_matrix_matrix_index_ok  0000000180025490 f   sfc_mex:sfc_mex.obj
 0001:00024520       sf_vector_vector_index_ok  0000000180025520 f   sfc_mex:sfc_mex.obj
 0001:00024550       ssGetCurrentInputPortDimensions_wrapper 0000000180025550 f   sfc_mex:sfc_mex.obj
 0001:00024570       ssGetCurrentOutputPortDimensions_wrapper 0000000180025570 f   sfc_mex:sfc_mex.obj
 0001:00024590       sf_mex_emlrt_context_is_debug_mode 0000000180025590 f   sfc_mex:sfc_mex.obj
 0001:000245a0       sf_mex_emlrt_context_set_debug_mode 00000001800255a0 f   sfc_mex:sfc_mex.obj
 0001:00024610       sf_clear_error_manager_info 0000000180025610 f   sfc_mex:sfc_mex.obj
 0001:00024660       sf_mex_stop_simulation_abruptly_wo_error 0000000180025660 f   sfc_mex:sfc_mex.obj
 0001:000246a0       sf_mex_error_message       00000001800256a0 f   sfc_mex:sfc_mex.obj
 0001:00024700       sf_react_to_error_in_matlab_call 0000000180025700 f   sfc_mex:sfc_mex.obj
 0001:00024730       sf_mex_addfield            0000000180025730 f   sfc_mex:sfc_mex.obj
 0001:000247d0       sf_mex_getfield            00000001800257d0 f   sfc_mex:sfc_mex.obj
 0001:00024ad0       sf_mex_check_class         0000000180025ad0 f   sfc_mex:sfc_mex.obj
 0001:00024bc0       sf_mex_is_real             0000000180025bc0 f   sfc_mex:sfc_mex.obj
 0001:00025030       sf_mex_decode_encoded_mx_struct_array 0000000180026030 f   sfc_mex:sfc_mex.obj
 0001:00025310       sf_mex_lw_bounds_check     0000000180026310 f   sfc_mex:sfc_mex.obj
 0001:00025340       sf_mex_lw_size_eq_check_1d 0000000180026340 f   sfc_mex:sfc_mex.obj
 0001:00025360       sf_mex_lw_size_eq_check_nd 0000000180026360 f   sfc_mex:sfc_mex.obj
 0001:00025540       sf_mex_lw_dim_size_eq_check 0000000180026540 f   sfc_mex:sfc_mex.obj
 0001:00025570       sf_mex_lw_dim_size_geq_check 0000000180026570 f   sfc_mex:sfc_mex.obj
 0001:000255a0       sf_mex_lw_sub_assign_size_check_nd 00000001800265a0 f   sfc_mex:sfc_mex.obj
 0001:000257d0       sf_mex_lw_runtime_error_msgid 00000001800267d0 f   sfc_mex:sfc_mex.obj
 0001:000258c0       sf_mex_lw_matrix_matrix_index_check 00000001800268c0 f   sfc_mex:sfc_mex.obj
 0001:000258e0       sf_mex_lw_vector_vector_index_check 00000001800268e0 f   sfc_mex:sfc_mex.obj
 0001:00025920       sf_mex_lw_non_negative_check 0000000180026920 f   sfc_mex:sfc_mex.obj
 0001:00025960       sf_mex_overflow_error      0000000180026960 f   sfc_mex:sfc_mex.obj
 0001:00025970       sf_mex_dividebyzero_error  0000000180026970 f   sfc_mex:sfc_mex.obj
 0001:00025980       sf_mex_unsafe_enum_error   0000000180026980 f   sfc_mex:sfc_mex.obj
 0001:00025990       sf_emlrtErrHandler         0000000180026990 f   sfc_mex:sfc_mex.obj
 0001:00025a50       sf_mex_printf              0000000180026a50 f   sfc_mex:sfc_mex.obj
 0001:00025be0       sf_mex_check_size          0000000180026be0 f   sfc_mex:sfc_mex.obj
 0001:00025eb0       sf_mex_check_struct        0000000180026eb0 f   sfc_mex:sfc_mex.obj
 0001:00026110       sf_mex_check_struct_vs     0000000180027110 f   sfc_mex:sfc_mex.obj
 0001:000261a0       sf_mex_check_fi            00000001800271a0 f   sfc_mex:sfc_mex.obj
 0001:000262a0       sf_mex_check_fi_vs         00000001800272a0 f   sfc_mex:sfc_mex.obj
 0001:00026340       sf_echo_expression         0000000180027340 f   sfc_mex:sfc_mex.obj
 0001:000263a0       sf_assertion_failed        00000001800273a0 f   sfc_mex:sfc_mex.obj
 0001:00026680       sf_mex_evalin              0000000180027680 f   sfc_mex:sfc_mex.obj
 0001:000268f0       sf_mex_export              00000001800278f0 f   sfc_mex:sfc_mex.obj
 0001:000269b0       sf_mex_get_ml_var_no_error 00000001800279b0 f   sfc_mex:sfc_mex.obj
 0001:00026b50       sf_mex_get_ml_var          0000000180027b50 f   sfc_mex:sfc_mex.obj
 0001:00026ff0       ml_set_element_value_in_array 0000000180027ff0 f   sfc_mex:sfc_mex.obj
 0001:000286c0       sf_mex_call_impl           00000001800296c0 f   sfc_mex:sfc_mex.obj
 0001:00028bf0       sf_mex_call_debug          0000000180029bf0 f   sfc_mex:sfc_mex.obj
 0001:00028c20       sf_mex_call                0000000180029c20 f   sfc_mex:sfc_mex.obj
 0001:00029270       sf_mex_createstruct        000000018002a270 f   sfc_mex:sfc_mex.obj
 0001:00029360       sf_mex_createstructarray   000000018002a360 f   sfc_mex:sfc_mex.obj
 0001:000293e0       sf_mex_get_mx_datatype_from_sf_datatype 000000018002a3e0 f   sfc_mex:sfc_mex.obj
 0001:000296f0       sf_mex_ml_var_sub          000000018002a6f0 f   sfc_mex:sfc_mex.obj
 0001:000298c0       sf_mex_ml_var_subsasgn     000000018002a8c0 f   sfc_mex:sfc_mex.obj
 0001:00029cb0       sf_mex_sub                 000000018002acb0 f   sfc_mex:sfc_mex.obj
 0001:00029eb0       sf_mex_subsasgn            000000018002aeb0 f   sfc_mex:sfc_mex.obj
 0001:0002a390       sf_mex_create              000000018002b390 f   sfc_mex:sfc_mex.obj
 0001:0002ade0       sf_mex_import_named        000000018002bde0 f   sfc_mex:sfc_mex.obj
 0001:0002ae40       sf_mex_import              000000018002be40 f   sfc_mex:sfc_mex.obj
 0001:0002ae90       sf_mex_import_vs           000000018002be90 f   sfc_mex:sfc_mex.obj
 0001:0002afa0       sf_mex_lower_fixpt_mx_array 000000018002bfa0 f   sfc_mex:sfc_mex.obj
 0001:0002b590       sim_mode_is_rtw_gen        000000018002c590 f   sfc_mex:sfc_sf.obj
 0001:0002b5c0       sim_mode_is_external       000000018002c5c0 f   sfc_mex:sfc_sf.obj
 0001:0002b5d0       sim_mode_is_modelref_sim   000000018002c5d0 f   sfc_mex:sfc_sf.obj
 0001:0002b5f0       mdlInitializeSizes         000000018002c5f0 f   sfc_mex:sfc_sf.obj
 0001:0002b610       mdlInitializeSampleTimes   000000018002c610 f   sfc_mex:sfc_sf.obj
 0001:0002b650       mdlZeroCrossings           000000018002c650 f   sfc_mex:sfc_sf.obj
 0001:0002b730       mdlDerivatives             000000018002c730 f   sfc_mex:sfc_sf.obj
 0001:0002b7e0       mdl_initialize_conditions_processing 000000018002c7e0 f   sfc_mex:sfc_sf.obj
 0001:0002b810       mdlInitializeConditions    000000018002c810 f   sfc_mex:sfc_sf.obj
 0001:0002b8d0       mdlGetSimState             000000018002c8d0 f   sfc_mex:sfc_sf.obj
 0001:0002b8e0       mdlSetSimState             000000018002c8e0 f   sfc_mex:sfc_sf.obj
 0001:0002b8f0       mdl_ext_mode_exec_processing 000000018002c8f0 f   sfc_mex:sfc_sf.obj
 0001:0002b910       mdlExtModeExec             000000018002c910 f   sfc_mex:sfc_sf.obj
 0001:0002baa0       mdlTerminate               000000018002caa0 f   sfc_mex:sfc_sf.obj
 0001:0002bb10       mdlRTW                     000000018002cb10 f   sfc_mex:sfc_sf.obj
 0001:0002bb40       mdlSetWorkWidths           000000018002cb40 f   sfc_mex:sfc_sf.obj
 0001:0002bb50       mdlProcessParameters       000000018002cb50 f   sfc_mex:sfc_sf.obj
 0001:0002bb60       mdl_start_processing       000000018002cb60 f   sfc_mex:sfc_sf.obj
 0001:0002bba0       mdlStart                   000000018002cba0 f   sfc_mex:sfc_sf.obj
 0001:0002bc90       mdlEnable                  000000018002cc90 f   sfc_mex:sfc_sf.obj
 0001:0002bd60       mdlDisable                 000000018002cd60 f   sfc_mex:sfc_sf.obj
 0001:0002be10       sf_get_chart_instance_ptr  000000018002ce10 f   sfc_mex:sfc_sf.obj
 0001:0002be30       sf_rtw_info_uint_prop      000000018002ce30 f   sfc_mex:sfc_sf.obj
 0001:0002bfa0       sf_is_chart_inlinable      000000018002cfa0 f   sfc_mex:sfc_sf.obj
 0001:0002bfc0       sf_mark_output_events_with_multiple_callers 000000018002cfc0 f   sfc_mex:sfc_sf.obj
 0001:0002c180       sf_mark_chart_reusable_outputs 000000018002d180 f   sfc_mex:sfc_sf.obj
 0001:0002c400       sf_mark_chart_expressionable_inputs 000000018002d400 f   sfc_mex:sfc_sf.obj
 0001:0002c760       sf_get_subchart_simstruct  000000018002d760 f   sfc_mex:sfc_sf.obj
 0001:0002c7b0       sf_write_symbol_mapping    000000018002d7b0 f   sfc_mex:sfc_sf.obj
 0001:0002ca00       sf_get_fixpt_data_type_id  000000018002da00 f   sfc_mex:sfc_sf.obj
 0001:0002ca40       sf_get_enum_data_type_id   000000018002da40 f   sfc_mex:sfc_sf.obj
 0001:0002ca80       sf_get_param_data_type_id  000000018002da80 f   sfc_mex:sfc_sf.obj
 0001:0002cab0       sf_mex_listen_for_ctrl_c_force 000000018002dab0 f   sfc_mex:sfc_sf.obj
 0001:0002cbc0       sf_mex_draw_now            000000018002dbc0 f   sfc_mex:sfc_sf.obj
 0001:0002cc00       sf_mex_set_debugger_sim_status_listener_fcn 000000018002dc00 f   sfc_mex:sfc_sf.obj
 0001:0002cc10       sf_mex_listen_for_ctrl_c   000000018002dc10 f   sfc_mex:sfc_sf.obj
 0001:0002cca0       sf_mex_get_sfun_param      000000018002dca0 f   sfc_mex:sfc_sf.obj
 0001:0002ccf0       sf_get_runtime_param_data  000000018002dcf0 f   sfc_mex:sfc_sf.obj
 0001:0002cd30       sf_call_output_fcn_call    000000018002dd30 f   sfc_mex:sfc_sf.obj
 0001:0002ce70       sf_call_output_fcn_enable  000000018002de70 f   sfc_mex:sfc_sf.obj
 0001:0002cf00       sf_call_output_fcn_disable 000000018002df00 f   sfc_mex:sfc_sf.obj
 0001:0002cf90       sf_clear_rtw_identifier    000000018002df90 f   sfc_mex:sfc_sf.obj
 0001:0002d780       sf_set_encoded_dwork_info  000000018002e780 f   sfc_mex:sfc_sf.obj
 0001:0002d7d0       sf_get_dwork_info_from_mat_file 000000018002e7d0 f   sfc_mex:sfc_sf.obj
 0001:0002d9c0       sf_set_rtw_dwork_info      000000018002e9c0 f   sfc_mex:sfc_sf.obj
 0001:0002db30       mdlOutputs                 000000018002eb30 f   sfc_mex:sfc_sf.obj
 0001:0002dcd0       sf_debug_disp              000000018002ecd0 f   sfc_debug:sfcdebug.obj
 0001:0002df30       sf_debug_data_runtime_size_mismatch_error_check 000000018002ef30 f   sfc_debug:sfcdebug.obj
 0001:0002dfd0       sf_debug_try_loading_machine 000000018002efd0 f   sfc_debug:sfcdebug.obj
 0001:0002e0d0       sf_debug_reset_current_state_configuration 000000018002f0d0 f   sfc_debug:sfcdebug.obj
 0001:0002e160       sf_debug_store_current_state_configuration 000000018002f160 f   sfc_debug:sfcdebug.obj
 0001:0002e1f0       sf_debug_restore_previous_state_configuration 000000018002f1f0 f   sfc_debug:sfcdebug.obj
 0001:0002e280       sf_debug_restore_previous_state_configuration2 000000018002f280 f   sfc_debug:sfcdebug.obj
 0001:0002e310       sf_debug_get_event_scope   000000018002f310 f   sfc_debug:sfcdebug.obj
 0001:0002e480       use_debugger_step_animation 000000018002f480 f   sfc_debug:sfcdebug.obj
 0001:0002e4a0       sf_debug_get_script_id     000000018002f4a0 f   sfc_debug:sfcdebug.obj
 0001:0002e530       sf_debug_set_script_translation 000000018002f530 f   sfc_debug:sfcdebug.obj
 0001:0002e5f0       sf_debug_get_current_machine_id 000000018002f5f0 f   sfc_debug:sfcdebug.obj
 0001:0002e610       sf_debug_get_current_optional_integer 000000018002f610 f   sfc_debug:sfcdebug.obj
 0001:0002e620       sf_debug_get_current_machine_number 000000018002f620 f   sfc_debug:sfcdebug.obj
 0001:0002e640       sf_debug_get_current_machine_name 000000018002f640 f   sfc_debug:sfcdebug.obj
 0001:0002e660       sf_debug_get_current_chart_id 000000018002f660 f   sfc_debug:sfcdebug.obj
 0001:0002e6b0       sf_debug_get_current_chart_number 000000018002f6b0 f   sfc_debug:sfcdebug.obj
 0001:0002e6c0       sf_debug_get_current_instance_number 000000018002f6c0 f   sfc_debug:sfcdebug.obj
 0001:0002e6d0       sf_debug_get_current_is_minor_time_step 000000018002f6d0 f   sfc_debug:sfcdebug.obj
 0001:0002e750       sf_debug_get_current_object_type 000000018002f750 f   sfc_debug:sfcdebug.obj
 0001:0002e760       sf_debug_get_current_instance_handle 000000018002f760 f   sfc_debug:sfcdebug.obj
 0001:0002e7c0       sf_debug_get_current_event_type 000000018002f7c0 f   sfc_debug:sfcdebug.obj
 0001:0002e7d0       sf_debug_get_current_object_id 000000018002f7d0 f   sfc_debug:sfcdebug.obj
 0001:0002e810       sf_debug_get_current_active_event_type 000000018002f810 f   sfc_debug:sfcdebug.obj
 0001:0002e820       sf_debug_get_current_active_event_id 000000018002f820 f   sfc_debug:sfcdebug.obj
 0001:0002e860       sf_debug_get_current_tag_type 000000018002f860 f   sfc_debug:sfcdebug.obj
 0001:0002e870       sf_debug_get_current_simulation_time 000000018002f870 f   sfc_debug:sfcdebug.obj
 0001:0002e880       sf_debug_get_current_coverage_percentage 000000018002f880 f   sfc_debug:sfcdebug.obj
 0001:0002e890       sf_debug_current_statement_context 000000018002f890 f   sfc_debug:sfcdebug.obj
 0001:0002e920       sf_debug_get_current_statement_info 000000018002f920 f   sfc_debug:sfcdebug.obj
 0001:0002eaa0       sf_debug_terminate_instance 000000018002faa0 f   sfc_debug:sfcdebug.obj
 0001:0002edb0       sf_debug_assertion_failed  000000018002fdb0 f   sfc_debug:sfcdebug.obj
 0001:0002ef60       sf_debug_set_number_of_data_with_change_event_for_machine 000000018002ff60 f   sfc_debug:sfcdebug.obj
 0001:0002efa0       sf_debug_set_machine_event_thresholds 000000018002ffa0 f   sfc_debug:sfcdebug.obj
 0001:0002efc0       sf_debug_set_machine_event_scope 000000018002ffc0 f   sfc_debug:sfcdebug.obj
 0001:0002f000       sf_debug_set_machine_data_thresholds 0000000180030000 f   sfc_debug:sfcdebug.obj
 0001:0002f040       sf_debug_set_machine_data_scope 0000000180030040 f   sfc_debug:sfcdebug.obj
 0001:0002f0d0       sf_debug_set_machine_data_name 00000001800300d0 f   sfc_debug:sfcdebug.obj
 0001:0002f170       sf_debug_set_machine_data_size 0000000180030170 f   sfc_debug:sfcdebug.obj
 0001:0002f2b0       sf_debug_set_machine_data_type 00000001800302b0 f   sfc_debug:sfcdebug.obj
 0001:0002f420       sf_debug_get_chart_data_number 0000000180030420 f   sfc_debug:sfcdebug.obj
 0001:0002f440       sf_debug_get_chart_event_number 0000000180030440 f   sfc_debug:sfcdebug.obj
 0001:0002f460       sf_debug_set_chart_state_info 0000000180030460 f   sfc_debug:sfcdebug.obj
 0001:0002f4e0       sf_debug_set_chart_decomposition 00000001800304e0 f   sfc_debug:sfcdebug.obj
 0001:0002f550       sf_debug_set_chart_substate_count 0000000180030550 f   sfc_debug:sfcdebug.obj
 0001:0002f630       sf_debug_set_chart_substate_index 0000000180030630 f   sfc_debug:sfcdebug.obj
 0001:0002f6a0       sf_debug_set_chart_state_substate_count 00000001800306a0 f   sfc_debug:sfcdebug.obj
 0001:0002f7b0       sf_debug_set_chart_state_substate_index 00000001800307b0 f   sfc_debug:sfcdebug.obj
 0001:0002f830       sf_debug_set_number_of_data_with_change_event_for_chart 0000000180030830 f   sfc_debug:sfcdebug.obj
 0001:0002f8b0       sf_debug_set_number_of_states_with_entry_event_for_chart 00000001800308b0 f   sfc_debug:sfcdebug.obj
 0001:0002f920       sf_debug_set_number_of_states_with_exit_event_for_chart 0000000180030920 f   sfc_debug:sfcdebug.obj
 0001:0002f990       sf_debug_set_chart_disable_implicit_casting 0000000180030990 f   sfc_debug:sfcdebug.obj
 0001:0002fa00       sf_debug_set_chart_event_thresholds 0000000180030a00 f   sfc_debug:sfcdebug.obj
 0001:0002fa70       sf_debug_set_chart_data_compiled_props 0000000180030a70 f   sfc_debug:sfcdebug.obj
 0001:0002fdc0       sf_debug_set_chart_data_props 0000000180030dc0 f   sfc_debug:sfcdebug.obj
 0001:000300e0       sf_debug_check_fi_license  00000001800310e0 f   sfc_debug:sfcdebug.obj
 0001:000302d0       sf_debug_symbol_scope_push 00000001800312d0 f   sfc_debug:sfcdebug.obj
 0001:00030310       sf_debug_symbol_scope_push_eml 0000000180031310 f   sfc_debug:sfcdebug.obj
 0001:00030360       sf_debug_symbol_scope_pop  0000000180031360 f   sfc_debug:sfcdebug.obj
 0001:000303a0       sf_debug_symbol_scope_add_importable 00000001800313a0 f   sfc_debug:sfcdebug.obj
 0001:00030420       sf_debug_symbol_scope_add  0000000180031420 f   sfc_debug:sfcdebug.obj
 0001:000304a0       sf_debug_symbol_scope_add_dyn_importable 00000001800314a0 f   sfc_debug:sfcdebug.obj
 0001:00030560       sf_debug_symbol_scope_add_dyn 0000000180031560 f   sfc_debug:sfcdebug.obj
 0001:00030590       sf_debug_symbol_scope_add_eml_importable 0000000180031590 f   sfc_debug:sfcdebug.obj
 0001:000305d0       sf_debug_symbol_scope_add_eml 00000001800315d0 f   sfc_debug:sfcdebug.obj
 0001:00030610       sf_debug_symbol_scope_add_eml_dyn_importable 0000000180031610 f   sfc_debug:sfcdebug.obj
 0001:00030680       sf_debug_symbol_scope_add_eml_dyn 0000000180031680 f   sfc_debug:sfcdebug.obj
 0001:000306e0       sf_debug_symbol_switch     00000001800316e0 f   sfc_debug:sfcdebug.obj
 0001:00030700       sf_debug_symbol_scope_add_verbose 0000000180031700 f   sfc_debug:sfcdebug.obj
 0001:000307d0       sf_debug_set_machine_data_value_ptr 00000001800317d0 f   sfc_debug:sfcdebug.obj
 0001:00030810       sf_debug_set_instance_data_value_ptr 0000000180031810 f   sfc_debug:sfcdebug.obj
 0001:000308d0       sf_debug_unset_instance_data_value_ptr 00000001800318d0 f   sfc_debug:sfcdebug.obj
 0001:00030980       sf_debug_set_chart_event_scope 0000000180031980 f   sfc_debug:sfcdebug.obj
 0001:00030a00       sf_debug_set_chart_transition_coverage_maps 0000000180031a00 f   sfc_debug:sfcdebug.obj
 0001:00030b10       sf_debug_set_chart_state_coverage_maps 0000000180031b10 f   sfc_debug:sfcdebug.obj
 0001:00030bf0       sf_debug_set_instance_transition_coverage_weights 0000000180031bf0 f   sfc_debug:sfcdebug.obj
 0001:00030c90       sf_debug_set_instance_state_coverage_weights 0000000180031c90 f   sfc_debug:sfcdebug.obj
 0001:00030ee0       sf_debug_unload_machine    0000000180031ee0 f   sfc_debug:sfcdebug.obj
 0001:00030f30       sf_debug_load_machine      0000000180031f30 f   sfc_debug:sfcdebug.obj
 0001:00031030       sf_debug_set_active_instance_in_data_dictionary 0000000180032030 f   sfc_debug:sfcdebug.obj
 0001:00031210       sf_debug_set_active_instance 0000000180032210 f   sfc_debug:sfcdebug.obj
 0001:00031350       sf_debug_chart_visiblity_change 0000000180032350 f   sfc_debug:sfcdebug.obj
 0001:00031430       sf_debug_select_chart      0000000180032430 f   sfc_debug:sfcdebug.obj
 0001:00031500       sf_debug_set_instance_cv_ids 0000000180032500 f   sfc_debug:sfcdebug.obj
 0001:00031810       sf_debug_select_charts     0000000180032810 f   sfc_debug:sfcdebug.obj
 0001:00031950       sf_debug_initialized       0000000180032950 f   sfc_debug:sfcdebug.obj
 0001:00031960       sf_debug_is_uninterruptible 0000000180032960 f   sfc_debug:sfcdebug.obj
 0001:00031990       sf_debug_initialize_debugger_gui 0000000180032990 f   sfc_debug:sfcdebug.obj
 0001:00031d80       sf_debug_resume            0000000180032d80 f   sfc_debug:sfcdebug.obj
 0001:00031da0       sf_debug_go                0000000180032da0 f   sfc_debug:sfcdebug.obj
 0001:00031db0       sf_debug_break             0000000180032db0 f   sfc_debug:sfcdebug.obj
 0001:00031dc0       sf_debug_step_over         0000000180032dc0 f   sfc_debug:sfcdebug.obj
 0001:00031dd0       sf_debug_step_out          0000000180032dd0 f   sfc_debug:sfcdebug.obj
 0001:00031de0       sf_debug_set_disable_all_breakpoints 0000000180032de0 f   sfc_debug:sfcdebug.obj
 0001:00031df0       sf_debug_disable_all_breakpoints_and_go 0000000180032df0 f   sfc_debug:sfcdebug.obj
 0001:00031e00       sf_debug_break_on_chart_entry 0000000180032e00 f   sfc_debug:sfcdebug.obj
 0001:00031e10       sf_debug_break_on_event_broadcast 0000000180032e10 f   sfc_debug:sfcdebug.obj
 0001:00031e20       sf_debug_break_on_state_entry 0000000180032e20 f   sfc_debug:sfcdebug.obj
 0001:00031e30       sf_debug_break_between_times 0000000180032e30 f   sfc_debug:sfcdebug.obj
 0001:00031e50       sf_debug_browse_data       0000000180032e50 f   sfc_debug:sfcdebug.obj
 0001:00031e70       sf_debug_watch_data        0000000180032e70 f   sfc_debug:sfcdebug.obj
 0001:00031e90       sf_debug_assign_data       0000000180032e90 f   sfc_debug:sfcdebug.obj
 0001:00031eb0       sf_debug_whos              0000000180032eb0 f   sfc_debug:sfcdebug.obj
 0001:00031ed0       sf_debug_get_consistency_info 0000000180032ed0 f   sfc_debug:sfcdebug.obj
 0001:00031ee0       sf_debug_browse_trace      0000000180032ee0 f   sfc_debug:sfcdebug.obj
 0001:00031ef0       sf_debug_set_breakpoints   0000000180032ef0 f   sfc_debug:sfcdebug.obj
 0001:00032050       sf_debug_set_eml_breakpoints 0000000180033050 f   sfc_debug:sfcdebug.obj
 0001:000321b0       sf_debug_set_script_breakpoints 00000001800331b0 f   sfc_debug:sfcdebug.obj
 0001:00032230       sf_debug_add_script_breakpoints 0000000180033230 f   sfc_debug:sfcdebug.obj
 0001:000322a0       sf_debug_clear_script_breakpoints 00000001800332a0 f   sfc_debug:sfcdebug.obj
 0001:00032310       sf_debug_query_script_breakpoints 0000000180033310 f   sfc_debug:sfcdebug.obj
 0001:000323d0       sf_debug_get_eml_script_id 00000001800333d0 f   sfc_debug:sfcdebug.obj
 0001:00032420       sf_debug_set_watch         0000000180033420 f   sfc_debug:sfcdebug.obj
 0001:00032650       sf_debug_get_coverage      0000000180033650 f   sfc_debug:sfcdebug.obj
 0001:00032660       sf_debug_get_instance_handle 0000000180033660 f   sfc_debug:sfcdebug.obj
 0001:000326f0       sf_debug_get_active_states 00000001800336f0 f   sfc_debug:sfcdebug.obj
 0001:00032700       sf_debug_get_animation     0000000180033700 f   sfc_debug:sfcdebug.obj
 0001:00032710       sf_debug_set_animation     0000000180033710 f   sfc_debug:sfcdebug.obj
 0001:00032720       sf_debug_animate           0000000180033720 f   sfc_debug:sfcdebug.obj
 0001:00032750       sf_debug_cycle_detection_check 0000000180033750 f   sfc_debug:sfcdebug.obj
 0001:00032760       sf_debug_data_range_check  0000000180033760 f   sfc_debug:sfcdebug.obj
 0001:00032770       sf_debug_transition_conflict_check 0000000180033770 f   sfc_debug:sfcdebug.obj
 0001:00032780       sf_debug_state_consistency_check 0000000180033780 f   sfc_debug:sfcdebug.obj
 0001:00032790       sf_debug_data_range_check_enabled 0000000180033790 f   sfc_debug:sfcdebug.obj
 0001:000327b0       sf_debug_transition_conflict_check_enabled 00000001800337b0 f   sfc_debug:sfcdebug.obj
 0001:000327d0       sf_debug_transition_conflict_check_begin 00000001800337d0 f   sfc_debug:sfcdebug.obj
 0001:000327f0       sf_debug_transition_conflict_check_end 00000001800337f0 f   sfc_debug:sfcdebug.obj
 0001:00032810       sf_debug_stop_debugging    0000000180033810 f   sfc_debug:sfcdebug.obj
 0001:00032840       sf_debug_is_cycle_detected 0000000180033840 f   sfc_debug:sfcdebug.obj
 0001:00032850       sf_debug_is_array_bounds_detected 0000000180033850 f   sfc_debug:sfcdebug.obj
 0001:00032860       sf_debug_get_state_vectors_data_size 0000000180033860 f   sfc_debug:sfcdebug.obj
 0001:000328a0       sf_debug_get_state_vectors_data 00000001800338a0 f   sfc_debug:sfcdebug.obj
 0001:000329a0       sf_debug_set_state_vectors_data 00000001800339a0 f   sfc_debug:sfcdebug.obj
 0001:00032c60       sf_debug_get_script_index  0000000180033c60 f   sfc_debug:sfcdebug.obj
 0001:00032df0       sf_debug_add_script        0000000180033df0 f   sfc_debug:sfcdebug.obj
 0001:00032f80       cv_eval_point              0000000180033f80 f   sfc_debug:sfcdebug.obj
 0001:000330f0       sf_debug_cv_init_state     00000001800340f0 f   sfc_debug:sfcdebug.obj
 0001:00033210       sf_debug_cv_init_chart     0000000180034210 f   sfc_debug:sfcdebug.obj
 0001:000332f0       sf_debug_cv_init_trans     00000001800342f0 f   sfc_debug:sfcdebug.obj
 0001:00033460       cv_eml_init_script         0000000180034460 f   sfc_debug:sfcdebug.obj
 0001:00033540       cv_eml_init_fcn            0000000180034540 f   sfc_debug:sfcdebug.obj
 0001:000335f0       cv_eml_init_testobjective  00000001800345f0 f   sfc_debug:sfcdebug.obj
 0001:000336a0       cv_eml_init_if             00000001800346a0 f   sfc_debug:sfcdebug.obj
 0001:00033750       cv_eml_init_for            0000000180034750 f   sfc_debug:sfcdebug.obj
 0001:00033800       cv_eml_init_while          0000000180034800 f   sfc_debug:sfcdebug.obj
 0001:000338b0       cv_eml_init_mcdc           00000001800348b0 f   sfc_debug:sfcdebug.obj
 0001:000339b0       cv_eml_init_switch         00000001800349b0 f   sfc_debug:sfcdebug.obj
 0001:00033a90       cv_eml_eval                0000000180034a90 f   sfc_debug:sfcdebug.obj
 0001:00033b70       sf_debug_bm_is_a_eml_breakpoint 0000000180034b70 f   sfc_debug:sfcdebug.obj
 0001:00033cc0       sf_debug_temporal_threshold 0000000180034cc0 f   sfc_debug:sfcdebug.obj
 0001:00034020       sf_debug_transition_conflict_error 0000000180035020 f   sfc_debug:sfcdebug.obj
 0001:000343a0       sf_debug_state_inconsistency_error 00000001800353a0 f   sfc_debug:sfcdebug.obj
 0001:000344c0       sf_debug_check_for_state_inconsistency 00000001800354c0 f   sfc_debug:sfcdebug.obj
 0001:000344f0       sf_debug_cycle_detecton_error 00000001800354f0 f   sfc_debug:sfcdebug.obj
 0001:00034ce0       sf_debug_size_eq_check_1d  0000000180035ce0 f   sfc_debug:sfcdebug.obj
 0001:00034d00       sf_debug_size_eq_check_nd  0000000180035d00 f   sfc_debug:sfcdebug.obj
 0001:00034ee0       sf_debug_dim_size_eq_check 0000000180035ee0 f   sfc_debug:sfcdebug.obj
 0001:00034f10       sf_debug_dim_size_geq_check 0000000180035f10 f   sfc_debug:sfcdebug.obj
 0001:00034f40       sf_debug_sub_assign_size_check_nd 0000000180035f40 f   sfc_debug:sfcdebug.obj
 0001:00035180       sf_debug_matrix_matrix_index_check 0000000180036180 f   sfc_debug:sfcdebug.obj
 0001:000351b0       sf_debug_vector_vector_index_check 00000001800361b0 f   sfc_debug:sfcdebug.obj
 0001:000351e0       sf_debug_runtime_error_msgid 00000001800361e0 f   sfc_debug:sfcdebug.obj
 0001:00035270       sf_debug_data_array_bounds_error_check 0000000180036270 f   sfc_debug:sfcdebug.obj
 0001:00035380       sf_debug_eml_data_array_bounds_error_check 0000000180036380 f   sfc_debug:sfcdebug.obj
 0001:00035860       sf_debug_integer_check     0000000180036860 f   sfc_debug:sfcdebug.obj
 0001:00035940       sf_debug_not_nan_check     0000000180036940 f   sfc_debug:sfcdebug.obj
 0001:00035a00       sf_debug_non_negative_check 0000000180036a00 f   sfc_debug:sfcdebug.obj
 0001:00035ac0       sf_debug_overflow_detection 0000000180036ac0 f   sfc_debug:sfcdebug.obj
 0001:000361b0       sf_debug_cast_to_real32_T  00000001800371b0 f   sfc_debug:sfcdebug.obj
 0001:00036270       sf_debug_cast_to_int8_T    0000000180037270 f   sfc_debug:sfcdebug.obj
 0001:00036330       sf_debug_cast_to_uint8_T   0000000180037330 f   sfc_debug:sfcdebug.obj
 0001:000363f0       sf_debug_cast_to_int16_T   00000001800373f0 f   sfc_debug:sfcdebug.obj
 0001:000364b0       sf_debug_cast_to_uint16_T  00000001800374b0 f   sfc_debug:sfcdebug.obj
 0001:00036570       sf_debug_cast_to_int32_T   0000000180037570 f   sfc_debug:sfcdebug.obj
 0001:00036630       sf_debug_cast_to_uint32_T  0000000180037630 f   sfc_debug:sfcdebug.obj
 0001:000366f0       sf_debug_data_range_error  00000001800376f0 f   sfc_debug:sfcdebug.obj
 0001:00036b70       sf_debug_data_range_error_wrapper_min_max 0000000180037b70 f   sfc_debug:sfcdebug.obj
 0001:00036c60       sf_debug_data_range_error_wrapper_min 0000000180037c60 f   sfc_debug:sfcdebug.obj
 0001:00036d40       sf_debug_data_range_error_wrapper_max 0000000180037d40 f   sfc_debug:sfcdebug.obj
 0001:00036e20       sf_debug_data_range_wrapper 0000000180037e20 f   sfc_debug:sfcdebug.obj
 0001:00036ed0       sf_debug_set_current_status_info 0000000180037ed0 f   sfc_debug:sfcdebug.obj
 0001:00037280       sf_debug_call              0000000180038280 f   sfc_debug:sfcdebug.obj
 0001:00038140       sf_debug_initialize_machine 0000000180039140 f   sfc_debug:sfcdebug.obj
 0001:00038450       sf_debug_initialize_chart  0000000180039450 f   sfc_debug:sfcdebug.obj
 0001:00038930       sf_debug_ensure_script     0000000180039930 f   sfc_debug:sfcdebug.obj
 0001:000389f0       cv_script_init_script      00000001800399f0 f   sfc_debug:sfcdebug.obj
 0001:00038ad0       cv_script_init_fcn         0000000180039ad0 f   sfc_debug:sfcdebug.obj
 0001:00038b80       cv_script_init_testobjective 0000000180039b80 f   sfc_debug:sfcdebug.obj
 0001:00038c30       cv_script_init_if          0000000180039c30 f   sfc_debug:sfcdebug.obj
 0001:00038ce0       cv_script_init_for         0000000180039ce0 f   sfc_debug:sfcdebug.obj
 0001:00038d90       cv_script_init_while       0000000180039d90 f   sfc_debug:sfcdebug.obj
 0001:00038e40       cv_script_init_mcdc        0000000180039e40 f   sfc_debug:sfcdebug.obj
 0001:00038f40       cv_script_init_switch      0000000180039f40 f   sfc_debug:sfcdebug.obj
 0001:00039020       cv_script_eval             000000018003a020 f   sfc_debug:sfcdebug.obj
 0001:00039100       eml_debug_line_call        000000018003a100 f   sfc_debug:sfcdebug.obj
 0001:000392b0       sf_debug_terminate         000000018003a2b0 f   sfc_debug:sfcdebug.obj
 0001:00039420       sf_debug_set_script_cv_ids 000000018003a420 f   sfc_debug:sfcdebug.obj
 0001:000395f0       sf_debug_api               000000018003a5f0 f   sfc_debug:sfc_api.obj
 0001:0003ae20       sf_debug_sm_terminate      000000018003be20 f   sfc_debug:sfdb_animation.obj
 0001:0003afe0       sf_debug_reset_path_objects 000000018003bfe0 f   sfc_debug:sfdb_animation.obj
 0001:0003b060       sf_debug_sm_reset_object_selection_status 000000018003c060 f   sfc_debug:sfdb_animation.obj
 0001:0003b100       sf_debug_sm_reset_state_buffer 000000018003c100 f   sfc_debug:sfdb_animation.obj
 0001:0003b1d0       sf_debug_sm_store_state_buffer 000000018003c1d0 f   sfc_debug:sfdb_animation.obj
 0001:0003b250       sf_debug_sm_restore_state_buffer1 000000018003c250 f   sfc_debug:sfdb_animation.obj
 0001:0003b2c0       sf_debug_sm_restore_state_buffer2 000000018003c2c0 f   sfc_debug:sfdb_animation.obj
 0001:0003b330       sf_debug_sm_chart_active   000000018003c330 f   sfc_debug:sfdb_animation.obj
 0001:0003b380       sf_debug_sm_select_active_objects 000000018003c380 f   sfc_debug:sfdb_animation.obj
 0001:0003b830       sf_debug_sm_is_chart_active 000000018003c830 f   sfc_debug:sfdb_animation.obj
 0001:0003b870       sf_debug_sm_is_state_active 000000018003c870 f   sfc_debug:sfdb_animation.obj
 0001:0003bab0       sf_debug_sm_get_active_states 000000018003cab0 f   sfc_debug:sfdb_animation.obj
 0001:0003c070       sf_debug_sm_initialize_instance 000000018003d070 f   sfc_debug:sfdb_animation.obj
 0001:0003c2c0       sf_debug_sm_change_object_selection_status 000000018003d2c0 f   sfc_debug:sfdb_animation.obj
 0001:0003c5b0       cv_create_interface        000000018003d5b0 f   sfc_debug:cv_sfinterface.obj
 0001:0003c910       cv_init_trans              000000018003d910 f   sfc_debug:cv_sfinterface.obj
 0001:0003c960       cv_init_state              000000018003d960 f   sfc_debug:cv_sfinterface.obj
 0001:0003c9d0       cv_init_chart              000000018003d9d0 f   sfc_debug:cv_sfinterface.obj
 0001:0003ca20       cv_dec_update_call         000000018003da20 f   sfc_debug:cv_sfinterface.obj
 0001:0003ca60       cv_cond_update_call        000000018003da60 f   sfc_debug:cv_sfinterface.obj
 0001:0003caa0       cv_sigrange_update         000000018003daa0 f   sfc_debug:cv_sfinterface.obj
 0001:0003cae0       cvsf_eml_eval              000000018003dae0 f   sfc_debug:cv_sfinterface.obj
 0001:0003cbc0       cvsf_eml_init_script       000000018003dbc0 f   sfc_debug:cv_sfinterface.obj
 0001:0003cc40       cvsf_eml_init_fcn          000000018003dc40 f   sfc_debug:cv_sfinterface.obj
 0001:0003cca0       cvsf_eml_init_testobjective 000000018003dca0 f   sfc_debug:cv_sfinterface.obj
 0001:0003cd00       cvsf_eml_init_if           000000018003dd00 f   sfc_debug:cv_sfinterface.obj
 0001:0003cd60       cvsf_eml_init_for          000000018003dd60 f   sfc_debug:cv_sfinterface.obj
 0001:0003cdb0       cvsf_eml_init_while        000000018003ddb0 f   sfc_debug:cv_sfinterface.obj
 0001:0003ce00       cvsf_eml_init_mcdc         000000018003de00 f   sfc_debug:cv_sfinterface.obj
 0001:0003ce90       cvsf_eml_init_switch       000000018003de90 f   sfc_debug:cv_sfinterface.obj
 0001:0003cf00       cvsf_script_eval           000000018003df00 f   sfc_debug:cv_sfinterface.obj
 0001:0003cfe0       cvsf_script_init_script    000000018003dfe0 f   sfc_debug:cv_sfinterface.obj
 0001:0003d060       cvsf_script_init_fcn       000000018003e060 f   sfc_debug:cv_sfinterface.obj
 0001:0003d0c0       cvsf_script_init_testobjective 000000018003e0c0 f   sfc_debug:cv_sfinterface.obj
 0001:0003d120       cvsf_script_init_if        000000018003e120 f   sfc_debug:cv_sfinterface.obj
 0001:0003d180       cvsf_script_init_for       000000018003e180 f   sfc_debug:cv_sfinterface.obj
 0001:0003d1d0       cvsf_script_init_while     000000018003e1d0 f   sfc_debug:cv_sfinterface.obj
 0001:0003d220       cvsf_script_init_mcdc      000000018003e220 f   sfc_debug:cv_sfinterface.obj
 0001:0003d2b0       cvsf_script_init_switch    000000018003e2b0 f   sfc_debug:cv_sfinterface.obj
 0001:0003d320       cv_destroy_interface       000000018003e320 f   sfc_debug:cv_sfinterface.obj
 0001:0003d340       cv_create_instance_objects 000000018003e340 f   sfc_debug:cv_sfinterface.obj
 0001:0003d7f0       cv_is_enabled              000000018003e7f0 f   sfc_debug:cv_sfinterface.obj
 0001:0003d800       sf_debug_cv_initialize_script 000000018003e800 f   sfc_debug:cv_sfinterface.obj
 0001:0003d9b0       sf_debug_cv_initialize_instance 000000018003e9b0 f   sfc_debug:cv_sfinterface.obj
 0001:0003dd50       sf_debug_cv_terminate_chart 000000018003ed50 f   sfc_debug:cv_sfinterface.obj
 0001:0003de90       cv_call_trans_test         000000018003ee90 f   sfc_debug:cv_sfinterface.obj
 0001:0003dea0       cv_call_sub_cond_test      000000018003eea0 f   sfc_debug:cv_sfinterface.obj
 0001:0003dfd0       sf_debug_hm_initialize_instance 000000018003efd0 f   sfc_debug:sfdb_handle_management.obj
 0001:0003e550       sf_debug_hm_get_object_id  000000018003f550 f   sfc_debug:sfdb_handle_management.obj
 0001:000404c0       sf_debug_object_is_eml_function 00000001800414c0 f   sfc_debug:sfdb_handle_management.obj
 0001:00040530       sf_debug_hm_initialize_ids_in_machine 0000000180041530 f   sfc_debug:sfdb_handle_management.obj
 0001:000406a0       sf_debug_hm_initialize_ids_in_chart 00000001800416a0 f   sfc_debug:sfdb_handle_management.obj
 0001:000407e0       sf_debug_hm_initialize_chart 00000001800417e0 f   sfc_debug:sfdb_handle_management.obj
 0001:00040f90       sf_debug_hm_terminate      0000000180041f90 f   sfc_debug:sfdb_handle_management.obj
 0001:00040ff0       sf_debug_hm_initialize_machine 0000000180041ff0 f   sfc_debug:sfdb_handle_management.obj
 0001:000417a0       sf_debug_st_initialize_machine 00000001800427a0 f   sfc_debug:sfdb_data_browse.obj
 0001:00041860       sf_debug_st_initialize_instance 0000000180042860 f   sfc_debug:sfdb_data_browse.obj
 0001:00041a90       sf_debug_st_terminate      0000000180042a90 f   sfc_debug:sfdb_data_browse.obj
 0001:00041e30       sf_debug_st_set_data_value_ptr_in_machine 0000000180042e30 f   sfc_debug:sfdb_data_browse.obj
 0001:00041ec0       sf_debug_st_set_data_value_ptr_in_instance 0000000180042ec0 f   sfc_debug:sfdb_data_browse.obj
 0001:00041fa0       sf_debug_st_unset_data_value_ptr_in_machine 0000000180042fa0 f   sfc_debug:sfdb_data_browse.obj
 0001:00042010       sf_debug_st_unset_data_value_ptr_in_instance 0000000180043010 f   sfc_debug:sfdb_data_browse.obj
 0001:00042320       sf_debug_mx_value          0000000180043320 f   sfc_debug:sfdb_data_browse.obj
 0001:00042380       sf_debug_mx_packed_vector  0000000180043380 f   sfc_debug:sfdb_data_browse.obj
 0001:00042460       sf_debug_mx_uint_vector    0000000180043460 f   sfc_debug:sfdb_data_browse.obj
 0001:00042520       sf_debug_st_get_double_value_from_void_ptr_vector 0000000180043520 f   sfc_debug:sfdb_data_browse.obj
 0001:00043010       sf_debug_st_browse_data    0000000180044010 f   sfc_debug:sfdb_data_browse.obj
 0001:000437b0       sf_debug_ss_initialize     00000001800447b0 f   sfc_debug:sfdb_symbol_scope.obj
 0001:000437d0       sf_debug_ss_terminate      00000001800447d0 f   sfc_debug:sfdb_symbol_scope.obj
 0001:00043860       sf_debug_ss_push_symbol_scope 0000000180044860 f   sfc_debug:sfdb_symbol_scope.obj
 0001:00043960       sf_debug_ss_push_symbol_scope_eml 0000000180044960 f   sfc_debug:sfdb_symbol_scope.obj
 0001:000439c0       sf_debug_ss_pop_symbol_scope 00000001800449c0 f   sfc_debug:sfdb_symbol_scope.obj
 0001:00043a70       sf_debug_ss_add_symbol     0000000180044a70 f   sfc_debug:sfdb_symbol_scope.obj
 0001:00043bd0       sf_debug_ss_add_symbol_eml 0000000180044bd0 f   sfc_debug:sfdb_symbol_scope.obj
 0001:000448b0       sf_debug_ss_set_data_value 00000001800458b0 f   sfc_debug:sfdb_symbol_scope.obj
 0001:00044d50       sf_debug_ss_watch_data     0000000180045d50 f   sfc_debug:sfdb_symbol_scope.obj
 0001:00044df0       sf_debug_ss_assign_data    0000000180045df0 f   sfc_debug:sfdb_symbol_scope.obj
 0001:000457f0       get_data_entry_name        00000001800467f0 f   sfc_debug:sfdb_symbol_scope.obj
 0001:00045840       sf_debug_ss_whos           0000000180046840 f   sfc_debug:sfdb_symbol_scope.obj
 0001:00045f50       sf_debug_cc_initialize_chart 0000000180046f50 f   sfc_debug:sfdb_coverage.obj
 0001:00046940       sf_debug_cc_initialize_instance 0000000180047940 f   sfc_debug:sfdb_coverage.obj
 0001:00047740       sf_debug_cc_terminate      0000000180048740 f   sfc_debug:sfdb_coverage.obj
 0001:00047830       sf_debug_cc_set_transition_maps 0000000180048830 f   sfc_debug:sfdb_coverage.obj
 0001:00047960       sf_debug_cc_set_state_maps 0000000180048960 f   sfc_debug:sfdb_coverage.obj
 0001:00047a40       sf_debug_cc_set_transition_weights 0000000180048a40 f   sfc_debug:sfdb_coverage.obj
 0001:00047d10       sf_debug_cc_set_state_weights 0000000180048d10 f   sfc_debug:sfdb_coverage.obj
 0001:00047fe0       sf_debug_cc_mark_transition_guard 0000000180048fe0 f   sfc_debug:sfdb_coverage.obj
 0001:00048070       sf_debug_cc_mark_transition_trigger 0000000180049070 f   sfc_debug:sfdb_coverage.obj
 0001:00048100       sf_debug_cc_mark_transition_decision 0000000180049100 f   sfc_debug:sfdb_coverage.obj
 0001:00048170       sf_debug_cc_mark_transition_condition_action 0000000180049170 f   sfc_debug:sfdb_coverage.obj
 0001:000481c0       sf_debug_cc_mark_transition_transition_action 00000001800491c0 f   sfc_debug:sfdb_coverage.obj
 0001:00048210       sf_debug_cc_mark_state_entry 0000000180049210 f   sfc_debug:sfdb_coverage.obj
 0001:00048260       sf_debug_cc_mark_state_during 0000000180049260 f   sfc_debug:sfdb_coverage.obj
 0001:000482b0       sf_debug_cc_mark_state_exit 00000001800492b0 f   sfc_debug:sfdb_coverage.obj
 0001:00048af0       sf_debug_cc_get_coverage   0000000180049af0 f   sfc_debug:sfdb_coverage.obj
 0001:00049090       sf_debug_bm_clear_script_breakpoints 000000018004a090 f   sfc_debug:sfdb_breakpoints.obj
 0001:000490c0       sf_debug_bm_set_script_breakpoint 000000018004a0c0 f   sfc_debug:sfdb_breakpoints.obj
 0001:00049140       sf_debug_bm_clear_single_script_breakpoint 000000018004a140 f   sfc_debug:sfdb_breakpoints.obj
 0001:000491c0       sf_debug_bm_query_script_breakpoint 000000018004a1c0 f   sfc_debug:sfdb_breakpoints.obj
 0001:00049210       sf_debug_bm_initialize_scripts 000000018004a210 f   sfc_debug:sfdb_breakpoints.obj
 0001:00049930       sf_debug_bm_terminate      000000018004a930 f   sfc_debug:sfdb_breakpoints.obj
 0001:00049c20       sf_debug_bm_remove_all_breakpoints_in_machine 000000018004ac20 f   sfc_debug:sfdb_breakpoints.obj
 0001:00049c90       sf_debug_bm_remove_all_breakpoints_in_chart 000000018004ac90 f   sfc_debug:sfdb_breakpoints.obj
 0001:00049de0       sf_debug_bm_initialize_global_breakpoints 000000018004ade0 f   sfc_debug:sfdb_breakpoints.obj
 0001:00049f60       sf_debug_bm_set_breakpoint 000000018004af60 f   sfc_debug:sfdb_breakpoints.obj
 0001:0004a590       sf_debug_bm_set_eml_breakpoint 000000018004b590 f   sfc_debug:sfdb_breakpoints.obj
 0001:0004a630       sf_debug_bm_initialize_machine_breakpoint_map 000000018004b630 f   sfc_debug:sfdb_breakpoints.obj
 0001:0004aa50       sf_debug_bm_is_a_breakpoint 000000018004ba50 f   sfc_debug:sfdb_breakpoints.obj
 0001:0004af70       sf_debug_bm_get_all_breakpoints_in_machine 000000018004bf70 f   sfc_debug:sfdb_breakpoints.obj
 0001:0004b270       sf_debug_bm_get_all_breakpoints_in_chart 000000018004c270 f   sfc_debug:sfdb_breakpoints.obj
 0001:0004bf30       sf_debug_bm_initialize_machine 000000018004cf30 f   sfc_debug:sfdb_breakpoints.obj
 0001:0004c000       sf_debug_bm_initialize_chart 000000018004d000 f   sfc_debug:sfdb_breakpoints.obj
 0001:0004c420       sf_debug_sc_terminate      000000018004d420 f   sfc_debug:sfdb_state_consistency.obj
 0001:0004c750       sf_debug_sc_is_chart_consistent 000000018004d750 f   sfc_debug:sfdb_state_consistency.obj
 0001:0004ca00       sf_debug_sc_get_consistency_error_info 000000018004da00 f   sfc_debug:sfdb_state_consistency.obj
 0001:0004ce50       sf_debug_tm_terminate      000000018004de50 f   sfc_debug:sfdb_call_stack.obj
 0001:0004cf10       sf_debug_tm_push_chart_instance 000000018004df10 f   sfc_debug:sfdb_call_stack.obj
 0001:0004d060       sf_debug_tm_pop_chart_instance 000000018004e060 f   sfc_debug:sfdb_call_stack.obj
 0001:0004d0c0       sf_debug_tm_push_trace_node 000000018004e0c0 f   sfc_debug:sfdb_call_stack.obj
 0001:0004d250       sf_debug_tm_pop_trace_node 000000018004e250 f   sfc_debug:sfdb_call_stack.obj
 0001:0004d2d0       sf_debug_tm_get_current_global_trace_index 000000018004e2d0 f   sfc_debug:sfdb_call_stack.obj
 0001:0004d2e0       sf_debug_tm_get_current_local_trace_index 000000018004e2e0 f   sfc_debug:sfdb_call_stack.obj
 0001:0004d310       sf_debug_tm_set_cycle_detected_flag 000000018004e310 f   sfc_debug:sfdb_call_stack.obj
 0001:0004d350       sf_debug_tm_set_cycle_started_flag 000000018004e350 f   sfc_debug:sfdb_call_stack.obj
 0001:0004d390       sf_debug_tm_get_chart_number_from_stack 000000018004e390 f   sfc_debug:sfdb_call_stack.obj
 0001:0004d590       sf_debug_tm_browse_trace   000000018004e590 f   sfc_debug:sfdb_call_stack.obj
 0001:0004d8d0       sf_debug_cd_initialize_instance 000000018004e8d0 f   sfc_debug:sfdb_cycle_detection.obj
 0001:0004db80       sf_debug_cd_mark_processed_transition_in_instance 000000018004eb80 f   sfc_debug:sfdb_cycle_detection.obj
 0001:0004dc20       sf_debug_cd_checksum_push  000000018004ec20 f   sfc_debug:sfdb_cycle_detection.obj
 0001:0004dee0       sf_debug_cd_checksum_pop   000000018004eee0 f   sfc_debug:sfdb_cycle_detection.obj
 0001:0004df50       sf_debug_cd_turn_off_cycle_detection 000000018004ef50 f   sfc_debug:sfdb_cycle_detection.obj
 0001:0004dfa0       sf_debug_cd_terminate      000000018004efa0 f   sfc_debug:sfdb_cycle_detection.obj
 0001:0004e1e0       md5_initialize_state       000000018004f1e0 f   sfc_debug:ckmd5.obj
 0001:0004ec50       md5_update_state           000000018004fc50 f   sfc_debug:ckmd5.obj
 0001:0004ec70       md5_get_hash               000000018004fc70 f   sfc_debug:ckmd5.obj
 0001:0004eca0       md5_get_hash_for_a_single_string 000000018004fca0 f   sfc_debug:ckmd5.obj
 0001:0004ed04       mxGetPr                    000000018004fd04 f   libmx:libmx.dll
 0001:0004ed0a       mxCreateDoubleScalar       000000018004fd0a f   libmx:libmx.dll
 0001:0004ed10       mxSetField_730             000000018004fd10 f   libmx:libmx.dll
 0001:0004ed16       mxCreateDoubleMatrix_730   000000018004fd16 f   libmx:libmx.dll
 0001:0004ed1c       mxCreateStructMatrix_730   000000018004fd1c f   libmx:libmx.dll
 0001:0004ed22       mxDestroyArray             000000018004fd22 f   libmx:libmx.dll
 0001:0004ed28       mxCreateString             000000018004fd28 f   libmx:libmx.dll
 0001:0004ed2e       mxDuplicateArray           000000018004fd2e f   libmx:libmx.dll
 0001:0004ed34       mxGetString_730            000000018004fd34 f   libmx:libmx.dll
 0001:0004ed3a       mxIsChar                   000000018004fd3a f   libmx:libmx.dll
 0001:0004ed40       mxGetClassID               000000018004fd40 f   libmx:libmx.dll
 0001:0004ed46       mxIsNumeric                000000018004fd46 f   libmx:libmx.dll
 0001:0004ed4c       mxIsComplex                000000018004fd4c f   libmx:libmx.dll
 0001:0004ed52       mxGetN                     000000018004fd52 f   libmx:libmx.dll
 0001:0004ed58       mxGetM                     000000018004fd58 f   libmx:libmx.dll
 0001:0004ed5e       mxCalloc                   000000018004fd5e f   libmx:libmx.dll
 0001:0004ed64       mxGetScalar                000000018004fd64 f   libmx:libmx.dll
 0001:0004ed6a       mxIsLogical                000000018004fd6a f   libmx:libmx.dll
 0001:0004ed70       mxCreateDoubleMatrix_700   000000018004fd70 f   libmx:libmx.dll
 0001:0004ed76       mxFree                     000000018004fd76 f   libmx:libmx.dll
 0001:0004ed7c       mxArrayToString            000000018004fd7c f   libmx:libmx.dll
 0001:0004ed82       mxCreateCellMatrix_700     000000018004fd82 f   libmx:libmx.dll
 0001:0004ed88       mxSetCell_700              000000018004fd88 f   libmx:libmx.dll
 0001:0004ed8e       mxGetCell_700              000000018004fd8e f   libmx:libmx.dll
 0001:0004ed94       mxGetClassName             000000018004fd94 f   libmx:libmx.dll
 0001:0004ed9a       mxSetField_700             000000018004fd9a f   libmx:libmx.dll
 0001:0004eda0       mxAddField                 000000018004fda0 f   libmx:libmx.dll
 0001:0004eda6       mxGetField_700             000000018004fda6 f   libmx:libmx.dll
 0001:0004edac       mxGetNumberOfElements      000000018004fdac f   libmx:libmx.dll
 0001:0004edb2       mxIsStruct                 000000018004fdb2 f   libmx:libmx.dll
 0001:0004edb8       mxIsClass                  000000018004fdb8 f   libmx:libmx.dll
 0001:0004edbe       mxGetLogicals              000000018004fdbe f   libmx:libmx.dll
 0001:0004edc4       mxIsSparse                 000000018004fdc4 f   libmx:libmx.dll
 0001:0004edca       mxSetFieldByNumber_700     000000018004fdca f   libmx:libmx.dll
 0001:0004edd0       mxGetFieldByNumber_700     000000018004fdd0 f   libmx:libmx.dll
 0001:0004edd6       mxGetFieldNameByNumber     000000018004fdd6 f   libmx:libmx.dll
 0001:0004eddc       mxGetNumberOfFields        000000018004fddc f   libmx:libmx.dll
 0001:0004ede2       mxCreateStructMatrix_700   000000018004fde2 f   libmx:libmx.dll
 0001:0004ede8       mxGetFieldNumber           000000018004fde8 f   libmx:libmx.dll
 0001:0004edee       mxIsNaN                    000000018004fdee f   libmx:libmx.dll
 0001:0004edf4       mxIsEmpty                  000000018004fdf4 f   libmx:libmx.dll
 0001:0004edfa       mxGetData                  000000018004fdfa f   libmx:libmx.dll
 0001:0004ee00       mxGetImagData              000000018004fe00 f   libmx:libmx.dll
 0001:0004ee06       mxArrayClassIDName         000000018004fe06 f   libmx:libmx.dll
 0001:0004ee0c       mxCreateNumericMatrix_700  000000018004fe0c f   libmx:libmx.dll
 0001:0004ee12       mxCreateStructArray_700    000000018004fe12 f   libmx:libmx.dll
 0001:0004ee18       mxCalcSingleSubscript_700  000000018004fe18 f   libmx:libmx.dll
 0001:0004ee1e       mxGetDimensions_700        000000018004fe1e f   libmx:libmx.dll
 0001:0004ee24       mxGetNumberOfDimensions_700 000000018004fe24 f   libmx:libmx.dll
 0001:0004ee2a       mxCreateNumericArray_700   000000018004fe2a f   libmx:libmx.dll
 0001:0004ee30       mxGetElementSize           000000018004fe30 f   libmx:libmx.dll
 0001:0004ee36       mxCreateStringFromNChars_700 000000018004fe36 f   libmx:libmx.dll
 0001:0004ee3c       mxGetString_700            000000018004fe3c f   libmx:libmx.dll
 0001:0004ee42       mxIsLogicalScalarTrue      000000018004fe42 f   libmx:libmx.dll
 0001:0004ee48       mxCreateLogicalScalar      000000018004fe48 f   libmx:libmx.dll
 0001:0004ee4e       mexUnlock                  000000018004fe4e f   libmex:libmex.dll
 0001:0004ee54       mexIsLocked                000000018004fe54 f   libmex:libmex.dll
 0001:0004ee5a       mexWarnMsgTxt              000000018004fe5a f   libmex:libmex.dll
 0001:0004ee60       mexCallMATLAB              000000018004fe60 f   libmex:libmex.dll
 0001:0004ee66       mexErrMsgTxt               000000018004fe66 f   libmex:libmex.dll
 0001:0004ee6c       mexSetTrapFlag             000000018004fe6c f   libmex:libmex.dll
 0001:0004ee72       mexMakeArrayPersistent     000000018004fe72 f   libmex:libmex.dll
 0001:0004ee78       mexPutVariable             000000018004fe78 f   libmex:libmex.dll
 0001:0004ee7e       mexGetVariable             000000018004fe7e f   libmex:libmex.dll
 0001:0004ee84       mexLock                    000000018004fe84 f   libmex:libmex.dll
 0001:0004ee8a       mexMakeMemoryPersistent    000000018004fe8a f   libmex:libmex.dll
 0001:0004ee90       mexFunctionName            000000018004fe90 f   libmex:libmex.dll
 0001:0004ee96       ssRegisterDataTypeFxpFSlopeFixExpBias 000000018004fe96 f   libfixedpoint:libfixedpoint.dll
 0001:0004ee9c       utVSNprintf                000000018004fe9c f   libut:libut.dll
 0001:0004eea2       utCPUtime                  000000018004fea2 f   libut:libut.dll
 0001:0004eea8       utFree                     000000018004fea8 f   libut:libut.dll
 0001:0004eeae       utMalloc                   000000018004feae f   libut:libut.dll
 0001:0004eeb4       muDoubleScalarCeil         000000018004feb4 f   libmwmathutil:libmwmathutil.dll
 0001:0004eeba       muDoubleScalarFloor        000000018004feba f   libmwmathutil:libmwmathutil.dll
 0001:0004eec0       muDoubleScalarAbs          000000018004fec0 f   libmwmathutil:libmwmathutil.dll
 0001:0004eec6       muDoubleScalarPower        000000018004fec6 f   libmwmathutil:libmwmathutil.dll
 0001:0004eecc       emlrtCheckBuiltInCtxR2011a 000000018004fecc f   libemlrt:libemlrt.dll
 0001:0004eed2       emlrtCheckVsBuiltInCtxR2011a 000000018004fed2 f   libemlrt:libemlrt.dll
 0001:0004eed8       emlrtCheckEnumR2009a       000000018004fed8 f   libemlrt:libemlrt.dll
 0001:0004eede       emlrtCreateEnumR2010a      000000018004fede f   libemlrt:libemlrt.dll
 0001:0004eee4       emlrtGetEnumElementR2009a  000000018004fee4 f   libemlrt:libemlrt.dll
 0001:0004eeea       emlrtCreateReference       000000018004feea f   libemlrt:libemlrt.dll
 0001:0004eef0       emlrtImportVsFiArrayR2009b 000000018004fef0 f   libemlrt:libemlrt.dll
 0001:0004eef6       emlrtExtractMessageId      000000018004fef6 f   libemlrt:libemlrt.dll
 0001:0004eefc       emlrtTranslateMessageIDtoLCPstring 000000018004fefc f   libemlrt:libemlrt.dll
 0001:0004ef02       emlrtGetEnumUnderlyingArrayR2009a 000000018004ff02 f   libemlrt:libemlrt.dll
 0001:0004ef08       emlrtIsEnumR2009a          000000018004ff08 f   libemlrt:libemlrt.dll
 0001:0004ef10       __GSHandlerCheckCommon     000000018004ff10 f   MSVCRT:gshandler.obj
 0001:0004ef74       __GSHandlerCheck           000000018004ff74 f   MSVCRT:gshandler.obj
 0001:0004ef92       strlen                     000000018004ff92 f   MSVCRT:MSVCR100.dll
 0001:0004efb0       __security_check_cookie    000000018004ffb0 f   MSVCRT:amdsecgs.obj
 0001:0004efd0       memset                     000000018004ffd0 f   MSVCRT:MSVCR100.dll
 0001:0004efd6       malloc                     000000018004ffd6 f   MSVCRT:MSVCR100.dll
 0001:0004eff0       _alloca_probe              000000018004fff0     MSVCRT:chkstk.obj
 0001:0004eff0       __chkstk                   000000018004fff0 f   MSVCRT:chkstk.obj
 0001:0004f03e       free                       000000018005003e f   MSVCRT:MSVCR100.dll
 0001:0004f044       strcmp                     0000000180050044 f   MSVCRT:MSVCR100.dll
 0001:0004f04a       sprintf                    000000018005004a f   MSVCRT:MSVCR100.dll
 0001:0004f050       strcat                     0000000180050050 f   MSVCRT:MSVCR100.dll
 0001:0004f056       memcpy                     0000000180050056 f   MSVCRT:MSVCR100.dll
 0001:0004f05c       NtCurrentTeb               000000018005005c f i MSVCRT:crtdll.obj
 0001:0004f0c8       _CRT_INIT                  00000001800500c8 f   MSVCRT:crtdll.obj
 0001:0004f460       _DllMainCRTStartup         0000000180050460 f   MSVCRT:crtdll.obj
 0001:0004f49e       strncpy                    000000018005049e f   MSVCRT:MSVCR100.dll
 0001:0004f4a4       longjmp                    00000001800504a4 f   MSVCRT:MSVCR100.dll
 0001:0004f4aa       strncmp                    00000001800504aa f   MSVCRT:MSVCR100.dll
 0001:0004f4b0       ceil                       00000001800504b0 f   MSVCRT:MSVCR100.dll
 0001:0004f4b6       strrchr                    00000001800504b6 f   MSVCRT:MSVCR100.dll
 0001:0004f4bc       _setjmp                    00000001800504bc f   MSVCRT:MSVCR100.dll
 0001:0004f4c2       calloc                     00000001800504c2 f   MSVCRT:MSVCR100.dll
 0001:0004f4c8       realloc                    00000001800504c8 f   MSVCRT:MSVCR100.dll
 0001:0004f4ce       ldexp                      00000001800504ce f   MSVCRT:MSVCR100.dll
 0001:0004f4d4       __report_gsfailure         00000001800504d4 f   MSVCRT:gs_report.obj
 0001:0004f620       __clean_type_info_names    0000000180050620 f   MSVCRT:tncleanup.obj
 0001:0004f62c       _onexit                    000000018005062c f   MSVCRT:atonexit.obj
 0001:0004f6dc       atexit                     00000001800506dc f   MSVCRT:atonexit.obj
 0001:0004f6f4       _RTC_Initialize            00000001800506f4 f   MSVCRT:_initsect_.obj
 0001:0004f72c       _RTC_Terminate             000000018005072c f   MSVCRT:_initsect_.obj
 0001:0004f764       _malloc_crt                0000000180050764 f   MSVCRT:MSVCR100.dll
 0001:0004f770       _ValidateImageBase         0000000180050770 f   MSVCRT:pesect.obj
 0001:0004f7a0       _FindPESection             00000001800507a0 f   MSVCRT:pesect.obj
 0001:0004f7f0       _IsNonwritableInCurrentImage 00000001800507f0 f   MSVCRT:pesect.obj
 0001:0004f832       _initterm                  0000000180050832 f   MSVCRT:MSVCR100.dll
 0001:0004f838       _initterm_e                0000000180050838 f   MSVCRT:MSVCR100.dll
 0001:0004f83e       _encoded_null              000000018005083e f   MSVCRT:MSVCR100.dll
 0001:0004f844       _amsg_exit                 0000000180050844 f   MSVCRT:MSVCR100.dll
 0001:0004f84a       __C_specific_handler       000000018005084a f   MSVCRT:MSVCR100.dll
 0001:0004f850       __CppXcptFilter            0000000180050850 f   MSVCRT:MSVCR100.dll
 0001:0004f858       DllMain                    0000000180050858 f   MSVCRT:dllmain.obj
 0001:0004f87c       __security_init_cookie     000000018005087c f   MSVCRT:gs_support.obj
 0001:0004f930       __crt_debugger_hook        0000000180050930 f   MSVCRT:MSVCR100.dll
 0001:0004f936       __clean_type_info_names_internal 0000000180050936 f   MSVCRT:MSVCR100.dll
 0001:0004f93c       _unlock                    000000018005093c f   MSVCRT:MSVCR100.dll
 0001:0004f942       __dllonexit                0000000180050942 f   MSVCRT:MSVCR100.dll
 0001:0004f948       _lock                      0000000180050948 f   MSVCRT:MSVCR100.dll
 0001:0004f94e       EncodePointer              000000018005094e f   kernel32:KERNEL32.dll
 0001:0004f954       DecodePointer              0000000180050954 f   kernel32:KERNEL32.dll
 0001:0004f95a       Sleep                      000000018005095a f   kernel32:KERNEL32.dll
 0001:0004f960       TerminateProcess           0000000180050960 f   kernel32:KERNEL32.dll
 0001:0004f966       GetCurrentProcess          0000000180050966 f   kernel32:KERNEL32.dll
 0001:0004f96c       UnhandledExceptionFilter   000000018005096c f   kernel32:KERNEL32.dll
 0001:0004f972       SetUnhandledExceptionFilter 0000000180050972 f   kernel32:KERNEL32.dll
 0001:0004f978       IsDebuggerPresent          0000000180050978 f   kernel32:KERNEL32.dll
 0001:0004f97e       RtlVirtualUnwind           000000018005097e f   kernel32:KERNEL32.dll
 0001:0004f984       RtlLookupFunctionEntry     0000000180050984 f   kernel32:KERNEL32.dll
 0001:0004f98a       RtlCaptureContext          000000018005098a f   kernel32:KERNEL32.dll
 0001:0004f990       DisableThreadLibraryCalls  0000000180050990 f   kernel32:KERNEL32.dll
 0001:0004f996       QueryPerformanceCounter    0000000180050996 f   kernel32:KERNEL32.dll
 0001:0004f99c       GetTickCount               000000018005099c f   kernel32:KERNEL32.dll
 0001:0004f9a2       GetCurrentThreadId         00000001800509a2 f   kernel32:KERNEL32.dll
 0001:0004f9a8       GetCurrentProcessId        00000001800509a8 f   kernel32:KERNEL32.dll
 0001:0004f9ae       GetSystemTimeAsFileTime    00000001800509ae f   kernel32:KERNEL32.dll
 0002:00000000       __imp_DisableThreadLibraryCalls 0000000180051000     kernel32:KERNEL32.dll
 0002:00000008       __imp_RtlCaptureContext    0000000180051008     kernel32:KERNEL32.dll
 0002:00000010       __imp_RtlLookupFunctionEntry 0000000180051010     kernel32:KERNEL32.dll
 0002:00000018       __imp_RtlVirtualUnwind     0000000180051018     kernel32:KERNEL32.dll
 0002:00000020       __imp_IsDebuggerPresent    0000000180051020     kernel32:KERNEL32.dll
 0002:00000028       __imp_SetUnhandledExceptionFilter 0000000180051028     kernel32:KERNEL32.dll
 0002:00000030       __imp_UnhandledExceptionFilter 0000000180051030     kernel32:KERNEL32.dll
 0002:00000038       __imp_GetCurrentProcess    0000000180051038     kernel32:KERNEL32.dll
 0002:00000040       __imp_TerminateProcess     0000000180051040     kernel32:KERNEL32.dll
 0002:00000048       __imp_Sleep                0000000180051048     kernel32:KERNEL32.dll
 0002:00000050       __imp_DecodePointer        0000000180051050     kernel32:KERNEL32.dll
 0002:00000058       __imp_EncodePointer        0000000180051058     kernel32:KERNEL32.dll
 0002:00000060       __imp_GetTickCount         0000000180051060     kernel32:KERNEL32.dll
 0002:00000068       __imp_GetCurrentThreadId   0000000180051068     kernel32:KERNEL32.dll
 0002:00000070       __imp_GetCurrentProcessId  0000000180051070     kernel32:KERNEL32.dll
 0002:00000078       __imp_GetSystemTimeAsFileTime 0000000180051078     kernel32:KERNEL32.dll
 0002:00000080       __imp_QueryPerformanceCounter 0000000180051080     kernel32:KERNEL32.dll
 0002:00000088       \177KERNEL32_NULL_THUNK_DATA 0000000180051088     kernel32:KERNEL32.dll
 0002:00000090       __imp_malloc               0000000180051090     MSVCRT:MSVCR100.dll
 0002:00000098       __imp__onexit              0000000180051098     MSVCRT:MSVCR100.dll
 0002:000000a0       __imp__lock                00000001800510a0     MSVCRT:MSVCR100.dll
 0002:000000a8       __imp___dllonexit          00000001800510a8     MSVCRT:MSVCR100.dll
 0002:000000b0       __imp__unlock              00000001800510b0     MSVCRT:MSVCR100.dll
 0002:000000b8       __imp___clean_type_info_names_internal 00000001800510b8     MSVCRT:MSVCR100.dll
 0002:000000c0       __imp___crt_debugger_hook  00000001800510c0     MSVCRT:MSVCR100.dll
 0002:000000c8       __imp___CppXcptFilter      00000001800510c8     MSVCRT:MSVCR100.dll
 0002:000000d0       __imp___C_specific_handler 00000001800510d0     MSVCRT:MSVCR100.dll
 0002:000000d8       __imp__amsg_exit           00000001800510d8     MSVCRT:MSVCR100.dll
 0002:000000e0       __imp__encoded_null        00000001800510e0     MSVCRT:MSVCR100.dll
 0002:000000e8       __imp__initterm_e          00000001800510e8     MSVCRT:MSVCR100.dll
 0002:000000f0       __imp__initterm            00000001800510f0     MSVCRT:MSVCR100.dll
 0002:000000f8       __imp__malloc_crt          00000001800510f8     MSVCRT:MSVCR100.dll
 0002:00000100       __imp_ldexp                0000000180051100     MSVCRT:MSVCR100.dll
 0002:00000108       __imp_realloc              0000000180051108     MSVCRT:MSVCR100.dll
 0002:00000110       __imp_calloc               0000000180051110     MSVCRT:MSVCR100.dll
 0002:00000118       __imp__setjmp              0000000180051118     MSVCRT:MSVCR100.dll
 0002:00000120       __imp_strrchr              0000000180051120     MSVCRT:MSVCR100.dll
 0002:00000128       __imp_ceil                 0000000180051128     MSVCRT:MSVCR100.dll
 0002:00000130       __imp_strncmp              0000000180051130     MSVCRT:MSVCR100.dll
 0002:00000138       __imp_longjmp              0000000180051138     MSVCRT:MSVCR100.dll
 0002:00000140       __imp_strncpy              0000000180051140     MSVCRT:MSVCR100.dll
 0002:00000148       __imp_memcpy               0000000180051148     MSVCRT:MSVCR100.dll
 0002:00000150       __imp_strcat               0000000180051150     MSVCRT:MSVCR100.dll
 0002:00000158       __imp_sprintf              0000000180051158     MSVCRT:MSVCR100.dll
 0002:00000160       __imp_strcmp               0000000180051160     MSVCRT:MSVCR100.dll
 0002:00000168       __imp_free                 0000000180051168     MSVCRT:MSVCR100.dll
 0002:00000170       __imp_memset               0000000180051170     MSVCRT:MSVCR100.dll
 0002:00000178       __imp_strlen               0000000180051178     MSVCRT:MSVCR100.dll
 0002:00000180       \177MSVCR100_NULL_THUNK_DATA 0000000180051180     MSVCRT:MSVCR100.dll
 0002:00000188       __imp_emlrtCheckBuiltInCtxR2011a 0000000180051188     libemlrt:libemlrt.dll
 0002:00000190       __imp_emlrtIsEnumR2009a    0000000180051190     libemlrt:libemlrt.dll
 0002:00000198       __imp_emlrtGetEnumUnderlyingArrayR2009a 0000000180051198     libemlrt:libemlrt.dll
 0002:000001a0       __imp_emlrtTranslateMessageIDtoLCPstring 00000001800511a0     libemlrt:libemlrt.dll
 0002:000001a8       __imp_emlrtExtractMessageId 00000001800511a8     libemlrt:libemlrt.dll
 0002:000001b0       __imp_emlrtImportVsFiArrayR2009b 00000001800511b0     libemlrt:libemlrt.dll
 0002:000001b8       __imp_emlrtCheckVsBuiltInCtxR2011a 00000001800511b8     libemlrt:libemlrt.dll
 0002:000001c0       __imp_emlrtCheckEnumR2009a 00000001800511c0     libemlrt:libemlrt.dll
 0002:000001c8       __imp_emlrtCreateEnumR2010a 00000001800511c8     libemlrt:libemlrt.dll
 0002:000001d0       __imp_emlrtGetEnumElementR2009a 00000001800511d0     libemlrt:libemlrt.dll
 0002:000001d8       __imp_emlrtCreateReference 00000001800511d8     libemlrt:libemlrt.dll
 0002:000001e0       \177libemlrt_NULL_THUNK_DATA 00000001800511e0     libemlrt:libemlrt.dll
 0002:000001e8       __imp_ssRegisterDataTypeFxpFSlopeFixExpBias 00000001800511e8     libfixedpoint:libfixedpoint.dll
 0002:000001f0       \177libfixedpoint_NULL_THUNK_DATA 00000001800511f0     libfixedpoint:libfixedpoint.dll
 0002:000001f8       __imp_mexGetVariable       00000001800511f8     libmex:libmex.dll
 0002:00000200       __imp_mexMakeArrayPersistent 0000000180051200     libmex:libmex.dll
 0002:00000208       __imp_mexMakeMemoryPersistent 0000000180051208     libmex:libmex.dll
 0002:00000210       __imp_mexFunctionName      0000000180051210     libmex:libmex.dll
 0002:00000218       __imp_mexErrMsgTxt         0000000180051218     libmex:libmex.dll
 0002:00000220       __imp_mexLock              0000000180051220     libmex:libmex.dll
 0002:00000228       __imp_mexPutVariable       0000000180051228     libmex:libmex.dll
 0002:00000230       __imp_mexSetTrapFlag       0000000180051230     libmex:libmex.dll
 0002:00000238       __imp_mexCallMATLAB        0000000180051238     libmex:libmex.dll
 0002:00000240       __imp_mexWarnMsgTxt        0000000180051240     libmex:libmex.dll
 0002:00000248       __imp_mexIsLocked          0000000180051248     libmex:libmex.dll
 0002:00000250       __imp_mexUnlock            0000000180051250     libmex:libmex.dll
 0002:00000258       \177libmex_NULL_THUNK_DATA 0000000180051258     libmex:libmex.dll
 0002:00000260       __imp_muDoubleScalarCeil   0000000180051260     libmwmathutil:libmwmathutil.dll
 0002:00000268       __imp_muDoubleScalarFloor  0000000180051268     libmwmathutil:libmwmathutil.dll
 0002:00000270       __imp_muDoubleScalarAbs    0000000180051270     libmwmathutil:libmwmathutil.dll
 0002:00000278       __imp_muDoubleScalarPower  0000000180051278     libmwmathutil:libmwmathutil.dll
 0002:00000280       \177libmwmathutil_NULL_THUNK_DATA 0000000180051280     libmwmathutil:libmwmathutil.dll
 0002:00000288       __imp_mxGetN               0000000180051288     libmx:libmx.dll
 0002:00000290       __imp_mxGetM               0000000180051290     libmx:libmx.dll
 0002:00000298       __imp_mxCalloc             0000000180051298     libmx:libmx.dll
 0002:000002a0       __imp_mxGetScalar          00000001800512a0     libmx:libmx.dll
 0002:000002a8       __imp_mxGetPr              00000001800512a8     libmx:libmx.dll
 0002:000002b0       __imp_mxIsLogical          00000001800512b0     libmx:libmx.dll
 0002:000002b8       __imp_mxCreateLogicalScalar 00000001800512b8     libmx:libmx.dll
 0002:000002c0       __imp_mxIsLogicalScalarTrue 00000001800512c0     libmx:libmx.dll
 0002:000002c8       __imp_mxGetString_700      00000001800512c8     libmx:libmx.dll
 0002:000002d0       __imp_mxCreateStringFromNChars_700 00000001800512d0     libmx:libmx.dll
 0002:000002d8       __imp_mxGetElementSize     00000001800512d8     libmx:libmx.dll
 0002:000002e0       __imp_mxCreateNumericArray_700 00000001800512e0     libmx:libmx.dll
 0002:000002e8       __imp_mxGetNumberOfDimensions_700 00000001800512e8     libmx:libmx.dll
 0002:000002f0       __imp_mxGetDimensions_700  00000001800512f0     libmx:libmx.dll
 0002:000002f8       __imp_mxCalcSingleSubscript_700 00000001800512f8     libmx:libmx.dll
 0002:00000300       __imp_mxCreateStructArray_700 0000000180051300     libmx:libmx.dll
 0002:00000308       __imp_mxCreateNumericMatrix_700 0000000180051308     libmx:libmx.dll
 0002:00000310       __imp_mxArrayClassIDName   0000000180051310     libmx:libmx.dll
 0002:00000318       __imp_mxGetImagData        0000000180051318     libmx:libmx.dll
 0002:00000320       __imp_mxGetData            0000000180051320     libmx:libmx.dll
 0002:00000328       __imp_mxIsEmpty            0000000180051328     libmx:libmx.dll
 0002:00000330       __imp_mxIsNaN              0000000180051330     libmx:libmx.dll
 0002:00000338       __imp_mxGetFieldNumber     0000000180051338     libmx:libmx.dll
 0002:00000340       __imp_mxCreateStructMatrix_700 0000000180051340     libmx:libmx.dll
 0002:00000348       __imp_mxGetNumberOfFields  0000000180051348     libmx:libmx.dll
 0002:00000350       __imp_mxGetFieldNameByNumber 0000000180051350     libmx:libmx.dll
 0002:00000358       __imp_mxGetFieldByNumber_700 0000000180051358     libmx:libmx.dll
 0002:00000360       __imp_mxSetFieldByNumber_700 0000000180051360     libmx:libmx.dll
 0002:00000368       __imp_mxIsSparse           0000000180051368     libmx:libmx.dll
 0002:00000370       __imp_mxGetLogicals        0000000180051370     libmx:libmx.dll
 0002:00000378       __imp_mxIsClass            0000000180051378     libmx:libmx.dll
 0002:00000380       __imp_mxIsStruct           0000000180051380     libmx:libmx.dll
 0002:00000388       __imp_mxGetNumberOfElements 0000000180051388     libmx:libmx.dll
 0002:00000390       __imp_mxGetField_700       0000000180051390     libmx:libmx.dll
 0002:00000398       __imp_mxAddField           0000000180051398     libmx:libmx.dll
 0002:000003a0       __imp_mxSetField_700       00000001800513a0     libmx:libmx.dll
 0002:000003a8       __imp_mxGetClassName       00000001800513a8     libmx:libmx.dll
 0002:000003b0       __imp_mxGetCell_700        00000001800513b0     libmx:libmx.dll
 0002:000003b8       __imp_mxSetCell_700        00000001800513b8     libmx:libmx.dll
 0002:000003c0       __imp_mxCreateCellMatrix_700 00000001800513c0     libmx:libmx.dll
 0002:000003c8       __imp_mxArrayToString      00000001800513c8     libmx:libmx.dll
 0002:000003d0       __imp_mxFree               00000001800513d0     libmx:libmx.dll
 0002:000003d8       __imp_mxIsComplex          00000001800513d8     libmx:libmx.dll
 0002:000003e0       __imp_mxIsNumeric          00000001800513e0     libmx:libmx.dll
 0002:000003e8       __imp_mxGetClassID         00000001800513e8     libmx:libmx.dll
 0002:000003f0       __imp_mxIsChar             00000001800513f0     libmx:libmx.dll
 0002:000003f8       __imp_mxGetString_730      00000001800513f8     libmx:libmx.dll
 0002:00000400       __imp_mxDuplicateArray     0000000180051400     libmx:libmx.dll
 0002:00000408       __imp_mxCreateString       0000000180051408     libmx:libmx.dll
 0002:00000410       __imp_mxDestroyArray       0000000180051410     libmx:libmx.dll
 0002:00000418       __imp_mxCreateStructMatrix_730 0000000180051418     libmx:libmx.dll
 0002:00000420       __imp_mxCreateDoubleMatrix_730 0000000180051420     libmx:libmx.dll
 0002:00000428       __imp_mxSetField_730       0000000180051428     libmx:libmx.dll
 0002:00000430       __imp_mxCreateDoubleScalar 0000000180051430     libmx:libmx.dll
 0002:00000438       __imp_mxCreateDoubleMatrix_700 0000000180051438     libmx:libmx.dll
 0002:00000440       \177libmx_NULL_THUNK_DATA  0000000180051440     libmx:libmx.dll
 0002:00000448       __imp_utMalloc             0000000180051448     libut:libut.dll
 0002:00000450       __imp_utFree               0000000180051450     libut:libut.dll
 0002:00000458       __imp_utCPUtime            0000000180051458     libut:libut.dll
 0002:00000460       __imp_utVSNprintf          0000000180051460     libut:libut.dll
 0002:00000468       \177libut_NULL_THUNK_DATA  0000000180051468     libut:libut.dll
 0002:00000470       __xc_a                     0000000180051470     MSVCRT:cinitexe.obj
 0002:00000478       __xc_z                     0000000180051478     MSVCRT:cinitexe.obj
 0002:00000480       __xi_a                     0000000180051480     MSVCRT:cinitexe.obj
 0002:00000490       __xi_z                     0000000180051490     MSVCRT:cinitexe.obj
 0002:000004a0       __real@41d83a11d1400000    00000001800514a0     c1_online_fuzz_clus.obj
 0002:000004a8       __real@41cbe8e87c000000    00000001800514a8     c1_online_fuzz_clus.obj
 0002:000004b0       __real@41e4a91315a00000    00000001800514b0     c1_online_fuzz_clus.obj
 0002:000004b8       __real@41eee55a94c00000    00000001800514b8     c1_online_fuzz_clus.obj
 0002:000004c0       __real@4024000000000000    00000001800514c0     c1_online_fuzz_clus.obj
 0002:000004c8       __real@3ff0000000000000    00000001800514c8     c1_online_fuzz_clus.obj
 0002:000004d0       __real@408f480000000000    00000001800514d0     c1_online_fuzz_clus.obj
 0002:000004d8       __real@41e25e60b4000000    00000001800514d8     c1_online_fuzz_clus.obj
 0002:000004e0       __real@41ea8664d9600000    00000001800514e0     c1_online_fuzz_clus.obj
 0002:000004e8       __real@41e257a468800000    00000001800514e8     c1_online_fuzz_clus.obj
 0002:000004f0       __real@41e2a8020ac00000    00000001800514f0     c1_online_fuzz_clus.obj
 0002:000004f8       __real@4069000000000000    00000001800514f8     c1_online_fuzz_clus.obj
 0002:00000500       __real@0000000000000000    0000000180051500     c1_online_fuzz_clus.obj
 0002:00000508       __real@bfe0000000000000    0000000180051508     c1_online_fuzz_clus.obj
 0002:00000510       __real@3fe0000000000000    0000000180051510     c1_online_fuzz_clus.obj
 0002:00000518       __real@4330000000000000    0000000180051518     c1_online_fuzz_clus.obj
 0002:00000520       __real@4059000000000000    0000000180051520     c1_online_fuzz_clus.obj
 0002:00000528       __real@4000000000000000    0000000180051528     c1_online_fuzz_clus.obj
 0002:00000530       __real@41d3db3c87800000    0000000180051530     c2_online_fuzz_clus.obj
 0002:00000538       __real@41e549f61f000000    0000000180051538     c2_online_fuzz_clus.obj
 0002:00000540       __real@41ed52d772000000    0000000180051540     c2_online_fuzz_clus.obj
 0002:00000548       __real@41dfd5ae68000000    0000000180051548     c2_online_fuzz_clus.obj
 0002:00000550       __real@41de5b3919400000    0000000180051550     c2_online_fuzz_clus.obj
 0002:00000558       __real@41ef960565400000    0000000180051558     c2_online_fuzz_clus.obj
 0002:00000560       __real@41e4ccc8d2400000    0000000180051560     c2_online_fuzz_clus.obj
 0002:00000568       __real@41eaf7f148000000    0000000180051568     c2_online_fuzz_clus.obj
 0002:00000570       __real@4014000000000000    0000000180051570     c2_online_fuzz_clus.obj
 0002:00000578       __real@41e50c27ab800000    0000000180051578     c3_online_fuzz_clus.obj
 0002:00000580       __real@41e5e78933600000    0000000180051580     c3_online_fuzz_clus.obj
 0002:00000588       __real@41d6d7ce76800000    0000000180051588     c3_online_fuzz_clus.obj
 0002:00000590       __real@41baec71f9000000    0000000180051590     c3_online_fuzz_clus.obj
 0002:00000598       __real@41ccf7d330800000    0000000180051598     c3_online_fuzz_clus.obj
 0002:000005a0       __real@41b43e1b1e000000    00000001800515a0     c3_online_fuzz_clus.obj
 0002:000005a8       __real@41eb9be065800000    00000001800515a8     c3_online_fuzz_clus.obj
 0002:000005b0       __real@41e7dec846e00000    00000001800515b0     c3_online_fuzz_clus.obj
 0002:000005b8       __real@3fc999999999999a    00000001800515b8     c3_online_fuzz_clus.obj
 0002:000005c0       __real@3fd999999999999a    00000001800515c0     c3_online_fuzz_clus.obj
 0002:000005c8       __real@41cfc85e98000000    00000001800515c8     c4_online_fuzz_clus.obj
 0002:000005d0       __real@41c3867891800000    00000001800515d0     c4_online_fuzz_clus.obj
 0002:000005d8       __real@418d2234e8000000    00000001800515d8     c4_online_fuzz_clus.obj
 0002:000005e0       __real@41e3ec1d04000000    00000001800515e0     c4_online_fuzz_clus.obj
 0002:000005e8       __real@41e1ab20cf000000    00000001800515e8     c4_online_fuzz_clus.obj
 0002:000005f0       __real@41d8265f1f400000    00000001800515f0     c4_online_fuzz_clus.obj
 0002:000005f8       __real@41cebb7428800000    00000001800515f8     c4_online_fuzz_clus.obj
 0002:00000600       __real@41e000c427800000    0000000180051600     c4_online_fuzz_clus.obj
 0002:00000608       __real@3f847ae147ae147b    0000000180051608     c4_online_fuzz_clus.obj
 0002:00000610       __real@4010000000000000    0000000180051610     c4_online_fuzz_clus.obj
 0002:00000618       __real@41e1618078a00000    0000000180051618     c5_online_fuzz_clus.obj
 0002:00000620       __real@41e5315e4e600000    0000000180051620     c5_online_fuzz_clus.obj
 0002:00000628       __real@41e28a6c06e00000    0000000180051628     c5_online_fuzz_clus.obj
 0002:00000630       __real@41ed42687f000000    0000000180051630     c5_online_fuzz_clus.obj
 0002:00000638       __real@41e39bd54fa00000    0000000180051638     c5_online_fuzz_clus.obj
 0002:00000640       __real@41d09859ac400000    0000000180051640     c5_online_fuzz_clus.obj
 0002:00000648       __real@41e8a90212600000    0000000180051648     c5_online_fuzz_clus.obj
 0002:00000650       __real@41e5b26877400000    0000000180051650     c5_online_fuzz_clus.obj
 0002:00000658       __real@4008000000000000    0000000180051658     c5_online_fuzz_clus.obj
 0002:00000660       __real@41d754f1d5000000    0000000180051660     c6_online_fuzz_clus.obj
 0002:00000668       __real@41e840bdc9a00000    0000000180051668     c6_online_fuzz_clus.obj
 0002:00000670       __real@41ee688c1f200000    0000000180051670     c6_online_fuzz_clus.obj
 0002:00000678       __real@41ea53ada4800000    0000000180051678     c6_online_fuzz_clus.obj
 0002:00000680       __real@4018000000000000    0000000180051680     c6_online_fuzz_clus.obj
 0002:00000688       __real@41e8860583400000    0000000180051688     c6_online_fuzz_clus.obj
 0002:00000690       __real@41c782db39800000    0000000180051690     c6_online_fuzz_clus.obj
 0002:00000698       __real@41ee71d862800000    0000000180051698     c6_online_fuzz_clus.obj
 0002:000006a0       __real@4181e080a8000000    00000001800516a0     c6_online_fuzz_clus.obj
 0002:000006a8       __real@3fd0000000000000    00000001800516a8     c6_online_fuzz_clus.obj
 0002:000006b0       __real@41dd558e8a400000    00000001800516b0     c7_online_fuzz_clus.obj
 0002:000006b8       __real@41ea57723b000000    00000001800516b8     c7_online_fuzz_clus.obj
 0002:000006c0       __real@41e87e9ed3e00000    00000001800516c0     c7_online_fuzz_clus.obj
 0002:000006c8       __real@41b856a673000000    00000001800516c8     c7_online_fuzz_clus.obj
 0002:000006d0       __real@41bd2caf4e000000    00000001800516d0     c7_online_fuzz_clus.obj
 0002:000006d8       __real@41ea49b948200000    00000001800516d8     c7_online_fuzz_clus.obj
 0002:000006e0       __real@41cbba6448800000    00000001800516e0     c7_online_fuzz_clus.obj
 0002:000006e8       __real@41c26e6215000000    00000001800516e8     c7_online_fuzz_clus.obj
 0002:000006f0       DYNAMIC_DIMENSION_DEF      00000001800516f0     online_fuzz_clus_sfun_registry.obj
 0002:00000710       _ssBadLevel2InputAccessMsg 0000000180051710     online_fuzz_clus_sfun_registry.obj
 0002:000008a0       _ssBadLevel2DirectFeedMsg  00000001800518a0     online_fuzz_clus_sfun_registry.obj
 0002:000009e0       _ssBadLevel2DirectFeedSolutionMsg 00000001800519e0     online_fuzz_clus_sfun_registry.obj
 0002:00000a50       _ssBadLevel2ZeroDirectFeedMsg 0000000180051a50     online_fuzz_clus_sfun_registry.obj
 0002:00000b90       _ssBadLevel2ZeroDirectFeedMsg2 0000000180051b90     online_fuzz_clus_sfun_registry.obj
 0002:00000c78       __real@bff0000000000000    0000000180051c78     online_fuzz_clus_sfun_registry.obj
 0002:00000c80       __real@41602cbca0000000    0000000180051c80     online_fuzz_clus_sfun_registry.obj
 0002:00000c88       __real@41ebab2beba00000    0000000180051c88     online_fuzz_clus_sfun.obj
 0002:00000c90       __real@41eca26998600000    0000000180051c90     online_fuzz_clus_sfun.obj
 0002:00000c98       __real@41d845f6cac00000    0000000180051c98     online_fuzz_clus_sfun.obj
 0002:00000ca0       __real@41e21aa223200000    0000000180051ca0     online_fuzz_clus_sfun.obj
 0002:00000ca8       __real@41dc1302e4800000    0000000180051ca8     online_fuzz_clus_sfun.obj
 0002:00000cb0       __real@41c3a4f933800000    0000000180051cb0     online_fuzz_clus_sfun.obj
 0002:00000cb8       __real@41dbc271a2800000    0000000180051cb8     online_fuzz_clus_sfun.obj
 0002:00000cc0       __real@41e7aa6d3b400000    0000000180051cc0     online_fuzz_clus_sfun.obj
 0002:00000cc8       __real@41dd8906bcc00000    0000000180051cc8     online_fuzz_clus_sfun.obj
 0002:00000cd0       __real@41db2e637d000000    0000000180051cd0     online_fuzz_clus_sfun.obj
 0002:00000cd8       __real@41e5ea1044200000    0000000180051cd8     online_fuzz_clus_sfun.obj
 0002:00000ce0       __real@41e607fe90a00000    0000000180051ce0     online_fuzz_clus_sfun.obj
 0002:00000ce8       __real@418bd93728000000    0000000180051ce8     online_fuzz_clus_sfun.obj
 0002:00000cf0       __real@41eac066fde00000    0000000180051cf0     online_fuzz_clus_sfun.obj
 0002:00000cf8       __real@41c400f4b0000000    0000000180051cf8     online_fuzz_clus_sfun.obj
 0002:00000d00       __real@41b16f8d49000000    0000000180051d00     online_fuzz_clus_sfun.obj
 0002:00000d08       ??_C@_00CNPNBAHC@?$AA@     0000000180051d08     sfc_mex:sfc_mex.obj
 0002:00000d0c       ??_C@_05DGLCPCBN@?$CFsx?$CFd?$AA@ 0000000180051d0c     sfc_mex:sfc_mex.obj
 0002:00000d14       ??_C@_02DPKJAMEF@?$CFd?$AA@ 0000000180051d14     sfc_mex:sfc_mex.obj
 0002:00000d18       ??_C@_0CC@DJOAOECF@Unknown?5MATLAB?5error?5encountered@ 0000000180051d18     sfc_mex:sfc_mex.obj
 0002:00000d40       ??_C@_0CJ@DAIIKGLI@?$CFs?5in?5?$CFs?5should?5never?5be?5called?5@ 0000000180051d40     sfc_mex:sfc_mex.obj
 0002:00000d70       ??_C@_0CE@ICKLNELB@Error?5calling?5MATLAB?5function?5?8?$CF@ 0000000180051d70     sfc_mex:sfc_mex.obj
 0002:00000d94       ??_C@_02DKCKIIND@?$CFs?$AA@ 0000000180051d94     sfc_mex:sfc_mex.obj
 0002:00000d98       ??_C@_07PHDIELCI@lasterr?$AA@ 0000000180051d98     sfc_mex:sfc_mex.obj
 0002:00000da0       ??_C@_09HKCBALOK@embedded?4?$AA@ 0000000180051da0     sfc_mex:sfc_mex.obj
 0002:00000dac       ??_C@_06BNJCAIGJ@double?$AA@ 0000000180051dac     sfc_mex:sfc_mex.obj
 0002:00000db4       ??_C@_06EJFMBPJF@single?$AA@ 0000000180051db4     sfc_mex:sfc_mex.obj
 0002:00000dbc       ??_C@_04KBDJOJNB@?$FL?$CFd?$FN?$AA@ 0000000180051dbc     sfc_mex:sfc_mex.obj
 0002:00000dc8       ??_C@_0CD@NFPEPNBJ@Cannot?5add?5field?5?$CFs?5to?5struct?5?$CFs@ 0000000180051dc8     sfc_mex:sfc_mex.obj
 0002:00000df0       ??_C@_0CF@PLDCCEBG@Cannot?5get?5field?5?$CFs?5from?5struct?5@ 0000000180051df0     sfc_mex:sfc_mex.obj
 0002:00000e18       ??_C@_0CO@MFJLJCHI@Struct?5array?5?8?$CFs?8?5does?5not?5have?5@ 0000000180051e18     sfc_mex:sfc_mex.obj
 0002:00000e48       ??_C@_0DF@IPGEGIDM@Object?5?8?$CFs?8?5is?5not?5a?5struct?3?5can@ 0000000180051e48     sfc_mex:sfc_mex.obj
 0002:00000e80       ??_C@_0BL@KEKJNNL@MATLAB?5expression?5?8?$CFs?8?5?$CFs?4?$AA@ 0000000180051e80     sfc_mex:sfc_mex.obj
 0002:00000ea0       ??_C@_0GH@JOEOEBFA@Size?5mismatch?5for?5?8?$CFs?8?5on?5dimens@ 0000000180051ea0     sfc_mex:sfc_mex.obj
 0002:00000f08       ??_C@_04IAGNFIBA@size?$AA@ 0000000180051f08     sfc_mex:sfc_mex.obj
 0002:00000f10       ??_C@_0DN@DNLDLJNN@is?5not?5of?5the?5correct?5class?3?5exp@ 0000000180051f10     sfc_mex:sfc_mex.obj
 0002:00000f50       ??_C@_06POLMGHPK@isreal?$AA@ 0000000180051f50     sfc_mex:sfc_mex.obj
 0002:00000f58       ??_C@_0CC@EDDDCJDC@is?5not?5of?5the?5correct?5complexnes@ 0000000180051f58     sfc_mex:sfc_mex.obj
 0002:00000f80       ??_C@_0CB@POBCEEOP@is?5not?5of?5the?5correct?5sparseness@ 0000000180051f80     sfc_mex:sfc_mex.obj
 0002:00000fa8       ??_C@_0CC@JOFDGEBC@is?5not?5of?5the?5correct?5numerictyp@ 0000000180051fa8     sfc_mex:sfc_mex.obj
 0002:00000fd0       ??_C@_07MIMONDDE@isequal?$AA@ 0000000180051fd0     sfc_mex:sfc_mex.obj
 0002:00000fd8       ??_C@_0M@NAPEIPJI@numerictype?$AA@ 0000000180051fd8     sfc_mex:sfc_mex.obj
 0002:00000fe8       ??_C@_0BN@IMIABIKK@is?5not?5of?5the?5correct?5fimath?$AA@ 0000000180051fe8     sfc_mex:sfc_mex.obj
 0002:00001008       ??_C@_06LJOKAFHF@fimath?$AA@ 0000000180052008     sfc_mex:sfc_mex.obj
 0002:00001010       ??_C@_0EP@IAFBLFNF@Stateflow?5Internal?5Error?3?5?6Error@ 0000000180052010     sfc_mex:sfc_mex.obj
 0002:00001060       ??_C@_02GFKODMMF@sf?$AA@   0000000180052060     sfc_mex:sfc_mex.obj
 0002:00001068       ??_C@_08MJJBNONC@mxDecode?$AA@ 0000000180052068     sfc_mex:sfc_mex.obj
 0002:00001080       ??_C@_0GH@OOBFJADG@Simulation?5stopped?5due?5to?5out?5of@ 0000000180052080     sfc_mex:sfc_mex.obj
 0002:000010f0       ??_C@_0HC@JODLBNFO@Simulation?5stopped?5due?5to?5size?5m@ 00000001800520f0     sfc_mex:sfc_mex.obj
 0002:00001170       ??_C@_0HC@PPOAOPGB@Simulation?5stopped?5due?5to?5size?5m@ 0000000180052170     sfc_mex:sfc_mex.obj
 0002:000011f0       ??_C@_0JM@OFMOAAGL@Simulation?5stopped?5due?5to?5size?5m@ 00000001800521f0     sfc_mex:sfc_mex.obj
 0002:00001290       ??_C@_0KC@ODCGHMPH@Simulation?5stopped?5due?5to?5size?5o@ 0000000180052290     sfc_mex:sfc_mex.obj
 0002:00001340       ??_C@_0GO@BKNPNGBP@Subscripted?5assignment?5dimension@ 0000000180052340     sfc_mex:sfc_mex.obj
 0002:000013b0       ??_C@_0DJ@MEDANBMA@Enable?5debugging?5to?5pinpoint?5the@ 00000001800523b0     sfc_mex:sfc_mex.obj
 0002:000013ec       ??_C@_01CLKCMJKC@?5?$AA@   00000001800523ec     sfc_mex:sfc_mex.obj
 0002:000013f0       ??_C@_0BAO@DDKKHLGF@Matrix?$CImatrix?$CJ?5subscript?5turned?5@ 00000001800523f0     sfc_mex:sfc_mex.obj
 0002:00001500       ??_C@_0BAO@MGKOAKHL@Vector?$CIvector?$CJ?5subscript?5turned?5@ 0000000180052500     sfc_mex:sfc_mex.obj
 0002:00001610       ??_C@_0FC@HJKNPCCF@Negative?5value?5detected?4?5Enable?5@ 0000000180052610     sfc_mex:sfc_mex.obj
 0002:00001668       ??_C@_0DK@JJKHINMK@Overflow?5detected?4?5Enable?5debugg@ 0000000180052668     sfc_mex:sfc_mex.obj
 0002:000016b0       ??_C@_0EA@POIJMBCP@Divide?5by?5zero?5detected?4?5Enable?5@ 00000001800526b0     sfc_mex:sfc_mex.obj
 0002:000016f0       ??_C@_0EK@CFEMECLL@Nonconforming?5enum?5value?5detecte@ 00000001800526f0     sfc_mex:sfc_mex.obj
 0002:00001740       ??_C@_0EE@BPGAOMO@Size?5mismatch?5for?5MATLAB?5express@ 0000000180052740     sfc_mex:sfc_mex.obj
 0002:00001788       ??_C@_07JFPGMOK@fprintf?$AA@ 0000000180052788     sfc_mex:sfc_mex.obj
 0002:00001790       ??_C@_0FE@EHCFPDEG@In?5MATLAB?5expression?5?8?$CFs?8?0?5field@ 0000000180052790     sfc_mex:sfc_mex.obj
 0002:000017e8       ??_C@_0DE@IJIFCHLH@In?5MATLAB?5expression?5?8?$CFs?8?0?5field@ 00000001800527e8     sfc_mex:sfc_mex.obj
 0002:00001820       ??_C@_0FK@JKPMKGDE@MATLAB?5expression?5?8?$CFs?8?5does?5not?5@ 0000000180052820     sfc_mex:sfc_mex.obj
 0002:0000187c       ??_C@_06PBJBIPGK@struct?$AA@ 000000018005287c     sfc_mex:sfc_mex.obj
 0002:00001888       ??_C@_0O@NFNPPCGN@isfimathlocal?$AA@ 0000000180052888     sfc_mex:sfc_mex.obj
 0002:00001898       ??_C@_0M@MLCGNPLD@embedded?4fi?$AA@ 0000000180052898     sfc_mex:sfc_mex.obj
 0002:000018a8       ??_C@_0M@EGMNDJHO@?$CFs?5?$DN?5?$CF?415g?6?$AA@ 00000001800528a8     sfc_mex:sfc_mex.obj
 0002:000018b4       ??_C@_03OFAPEBGM@?$CFs?6?$AA@ 00000001800528b4     sfc_mex:sfc_mex.obj
 0002:000018b8       ??_C@_0CL@LLBJDFID@failed?5sf_assertion?5in?5?$CFs?5at?5lin@ 00000001800528b8     sfc_mex:sfc_mex.obj
 0002:000018f0       ??_C@_0EJ@MIHEOKKA@?8?$CFs?8?3?5Array?5with?5number?5of?5dimen@ 00000001800528f0     sfc_mex:sfc_mex.obj
 0002:00001940       ??_C@_09JCLLFAHO@sfc_mex?4c?$AA@ 0000000180052940     sfc_mex:sfc_mex.obj
 0002:00001950       ??_C@_0O@FCFMOEOA@aNumDims?5?$DO?$DN?50?$AA@ 0000000180052950     sfc_mex:sfc_mex.obj
 0002:00001960       ??_C@_0CK@KDIMGCCA@?8?$CFs?8?3?5Sparse?5matrices?5are?5not?5su@ 0000000180052960     sfc_mex:sfc_mex.obj
 0002:00001990       ??_C@_0CI@KBLJAMNB@MATLAB?5expression?5?8?$CFs?8?5is?5not?5nu@ 0000000180052990     sfc_mex:sfc_mex.obj
 0002:000019b8       ??_C@_0P@LCMMCGDM@aSrcMx?5?$CB?$DN?5NULL?$AA@ 00000001800529b8     sfc_mex:sfc_mex.obj
 0002:000019d0       ??_C@_0EI@HJNNACGI@Eval?5of?5MATLAB?5expression?5?8?$CFs?8?5i@ 00000001800529d0     sfc_mex:sfc_mex.obj
 0002:00001a18       ??_C@_0DM@BJICAGGK@Stateflow?5currently?5only?5support@ 0000000180052a18     sfc_mex:sfc_mex.obj
 0002:00001a54       ??_C@_05LAPONLG@false?$AA@ 0000000180052a54     sfc_mex:sfc_mex.obj
 0002:00001a5c       ??_C@_03LHCJEHON@nan?$AA@  0000000180052a5c     sfc_mex:sfc_mex.obj
 0002:00001a60       ??_C@_04BHIIPFEC@base?$AA@ 0000000180052a60     sfc_mex:sfc_mex.obj
 0002:00001a68       ??_C@_06PLMANNP@evalin?$AA@ 0000000180052a68     sfc_mex:sfc_mex.obj
 0002:00001a70       ??_C@_06GFECGKEO@caller?$AA@ 0000000180052a70     sfc_mex:sfc_mex.obj
 0002:00001a78       ??_C@_0CM@LOMLNLMC@Invalid?5workspace?5type?5for?5sf_ma@ 0000000180052a78     sfc_mex:sfc_mex.obj
 0002:00001aa4       ??_C@_01GBGANLPD@0?$AA@    0000000180052aa4     sfc_mex:sfc_mex.obj
 0002:00001aa8       ??_C@_06FJKEMHGD@global?$AA@ 0000000180052aa8     sfc_mex:sfc_mex.obj
 0002:00001ab0       ??_C@_08KHPDDPHG@getfield?$AA@ 0000000180052ab0     sfc_mex:sfc_mex.obj
 0002:00001abc       ??_C@_05LPIJGKJ@Value?$AA@ 0000000180052abc     sfc_mex:sfc_mex.obj
 0002:00001ac8       ??_C@_0BH@HNIMIIFD@Unknown?5workspace?5type?$AA@ 0000000180052ac8     sfc_mex:sfc_mex.obj
 0002:00001ae0       ??_C@_0DA@IPMLFPJI@MATLAB?5expression?5?8?$CFs?8?5could?5not@ 0000000180052ae0     sfc_mex:sfc_mex.obj
 0002:00001b10       ??_C@_0EB@HHPLBHBA@Parameter?5value?5out?5of?5bounds?4?5?$CF@ 0000000180052b10     sfc_mex:sfc_mex.obj
 0002:00001b60       __mask@@NegDouble@         0000000180052b60     sfc_mex:sfc_mex.obj
 0002:00001b70       ??_C@_0CB@DBMOOMDL@Unsupported?5class?5type?5?$CFs?5for?5?$CFs@ 0000000180052b70     sfc_mex:sfc_mex.obj
 0002:00001b98       ??_C@_0BI@OPNKAIOC@mxIsComplex?$CImxArrayPtr?$CJ?$AA@ 0000000180052b98     sfc_mex:sfc_mex.obj
 0002:00001bb0       ??_C@_0GA@OFLPCMBM@Stateflow?5Runtime?5Warning?3?5Loss?5@ 0000000180052bb0     sfc_mex:sfc_mex.obj
 0002:00001c10       __real@3810000000000000    0000000180052c10     sfc_mex:sfc_mex.obj
 0002:00001c18       __real@47efffffe0000000    0000000180052c18     sfc_mex:sfc_mex.obj
 0002:00001c20       __real@c060000000000000    0000000180052c20     sfc_mex:sfc_mex.obj
 0002:00001c28       __real@405fc00000000000    0000000180052c28     sfc_mex:sfc_mex.obj
 0002:00001c30       __real@406fe00000000000    0000000180052c30     sfc_mex:sfc_mex.obj
 0002:00001c38       __real@c0e0000000000000    0000000180052c38     sfc_mex:sfc_mex.obj
 0002:00001c40       __real@40dfffc000000000    0000000180052c40     sfc_mex:sfc_mex.obj
 0002:00001c48       __real@40efffe000000000    0000000180052c48     sfc_mex:sfc_mex.obj
 0002:00001c50       __real@c1e0000000000000    0000000180052c50     sfc_mex:sfc_mex.obj
 0002:00001c58       __real@41dfffffffc00000    0000000180052c58     sfc_mex:sfc_mex.obj
 0002:00001c60       __real@41efffffffe00000    0000000180052c60     sfc_mex:sfc_mex.obj
 0002:00001c68       ??_C@_0DO@JIJMNCAH@Class?5mismatch?5for?5variable?5?8?$CFs?8@ 0000000180052c68     sfc_mex:sfc_mex.obj
 0002:00001ca8       ??_C@_03BBKEAIF@?$DP?$DP?$DP?$AA@ 0000000180052ca8     sfc_mex:sfc_mex.obj
 0002:00001cb0       ??_C@_0DE@HICLJLJO@Assignment?5of?5complex?5data?5to?5no@ 0000000180052cb0     sfc_mex:sfc_mex.obj
 0002:00001ce8       ??_C@_0CF@NHFFCIEB@MATLAB?5function?5?8?$CFs?8?5returned?5NU@ 0000000180052ce8     sfc_mex:sfc_mex.obj
 0002:00001d10       ??_C@_0GP@JPKMBIEI@Array?5bounds?5error?5in?5MATLAB?5exp@ 0000000180052d10     sfc_mex:sfc_mex.obj
 0002:00001d80       ??_C@_0P@FLJFOPHI@pIndex?$FLi?$FN?5?$DO?$DN?50?$AA@ 0000000180052d80     sfc_mex:sfc_mex.obj
 0002:00001d90       ??_C@_0DI@IGEABFHB@MATLAB?5expression?5?8?$CFs?8?5has?5?$CFd?5di@ 0000000180052d90     sfc_mex:sfc_mex.obj
 0002:00001dc8       ??_C@_0L@EFLJKPA@mxArrayPtr?$AA@ 0000000180052dc8     sfc_mex:sfc_mex.obj
 0002:00001dd8       ??_C@_0CK@FHKKOEPH@numDims?5?$DO?$DN?50?5?$CG?$CG?5numDims?5?$DM?$DN?5MAX_D@ 0000000180052dd8     sfc_mex:sfc_mex.obj
 0002:00001e10       ??_C@_0EM@MPIDLJBF@MATLAB?5expression?5?8?$CFs?8?5subscript@ 0000000180052e10     sfc_mex:sfc_mex.obj
 0002:00001e5c       ??_C@_04IGKKBJEE@?$DN?$CFg?$DL?$AA@ 0000000180052e5c     sfc_mex:sfc_mex.obj
 0002:00001e64       ??_C@_01PKGAHCOL@?$CJ?$AA@ 0000000180052e64     sfc_mex:sfc_mex.obj
 0002:00001e68       ??_C@_03LEIBKMN@?0?$CFd?$AA@ 0000000180052e68     sfc_mex:sfc_mex.obj
 0002:00001e6c       ??_C@_03IECKINJK@?$CI?$CFd?$AA@ 0000000180052e6c     sfc_mex:sfc_mex.obj
 0002:00001e70       ??_C@_0FB@HKJNNBFK@Stateflow?5ml?5type?5data?5?8?$CFs?8?5subs@ 0000000180052e70     sfc_mex:sfc_mex.obj
 0002:00001ec8       ??_C@_0CN@HPHHCDPK@Stateflow?5ml?5type?5data?5?8?$CFs?8?5is?5n@ 0000000180052ec8     sfc_mex:sfc_mex.obj
 0002:00001ef8       ??_C@_0CG@JIOBALFE@Stateflow?5ml?5type?5data?5?8?$CFs?8?5is?5e@ 0000000180052ef8     sfc_mex:sfc_mex.obj
 0002:00001f20       ??_C@_0BD@GAHDCPBG@mxArrayPtr?5?$CB?$DN?5NULL?$AA@ 0000000180052f20     sfc_mex:sfc_mex.obj
 0002:00001f38       ??_C@_0CF@HCINMAFF@result?5?$DN?5mxCreateDoubleScalar?$CIva@ 0000000180052f38     sfc_mex:sfc_mex.obj
 0002:00001f60       ??_C@_0BF@GAJKLFOH@fixpt_lower_mx_array?$AA@ 0000000180052f60     sfc_mex:sfc_mex.obj
 0002:00001f78       ??_C@_02FINOOIBE@Cg?$AA@   0000000180052f78     sfc_mex:sfc_mex.obj
 0002:00001f80       ??_C@_09GIFEIFFL@sfprivate?$AA@ 0000000180052f80     sfc_mex:sfc_sf.obj
 0002:00001f90       ??_C@_0CC@JDELABLI@get_machine_and_chart_file_numbe@ 0000000180052f90     sfc_mex:sfc_sf.obj
 0002:00001fb8       ??_C@_0BO@JCKKMPIB@get_sfun_block_specialization?$AA@ 0000000180052fb8     sfc_mex:sfc_sf.obj
 0002:00001fe0       ??_C@_0FP@OGBKADON@The?5chart?5name?5?4?4?4?$CFs?5is?5not?5pres@ 0000000180052fe0     sfc_mex:sfc_sf.obj
 0002:00002040       ??_C@_0FM@KEMGDKHM@The?5chart?5name?5?$CFs?5is?5not?5present@ 0000000180053040     sfc_mex:sfc_sf.obj
 0002:000020a0       ??_C@_0BD@NMFAPBEK@mdlInitializeSizes?$AA@ 00000001800530a0     sfc_mex:sfc_sf.obj
 0002:000020b4       ??_C@_06EJFCAODB@sfc_sf?$AA@ 00000001800530b4     sfc_mex:sfc_sf.obj
 0002:000020c0       ??_C@_0BJ@PBIFPMMD@mdlInitializeSampleTimes?$AA@ 00000001800530c0     sfc_mex:sfc_sf.obj
 0002:000020e0       ??_C@_0IP@CJMACPIP@Stateflow?5Internal?5Error?3?5?6rtw_o@ 00000001800530e0     sfc_mex:sfc_sf.obj
 0002:00002170       ??_C@_0GN@DNCJEGHD@Stateflow?5Internal?5Error?3?5?6Error@ 0000000180053170     sfc_mex:sfc_sf.obj
 0002:000021e0       ??_C@_0BG@PNKGMGHF@rtw_optimization_info?$AA@ 00000001800531e0     sfc_mex:sfc_sf.obj
 0002:000021f8       ??_C@_07CFINJGKH@Private?$AA@ 00000001800531f8     sfc_mex:sfc_sf.obj
 0002:00002200       ??_C@_0BA@PHPHFLPF@chart_inlinable?$AA@ 0000000180053200     sfc_mex:sfc_sf.obj
 0002:00002210       ??_C@_0MB@KGDKCEKF@Stateflow?5Internal?5Error?3?5?6Numbe@ 0000000180053210     sfc_mex:sfc_sf.obj
 0002:000022d8       ??_C@_0CA@GOKFFBBO@outputEventsWithMultipleCallers?$AA@ 00000001800532d8     sfc_mex:sfc_sf.obj
 0002:00002300       ??_C@_0LH@NDHODBLK@Stateflow?5Internal?5Error?3?5?6Numbe@ 0000000180053300     sfc_mex:sfc_sf.obj
 0002:000023b8       ??_C@_0BB@GEEDBOGK@reusable_outputs?$AA@ 00000001800533b8     sfc_mex:sfc_sf.obj
 0002:000023d0       ??_C@_0II@FEBCOBGA@Stateflow?5Internal?5Error?3?5?6Numbe@ 00000001800533d0     sfc_mex:sfc_sf.obj
 0002:00002458       ??_C@_0BG@HMMHPAKE@expressionable_inputs?$AA@ 0000000180053458     sfc_mex:sfc_sf.obj
 0002:00002470       ??_C@_01CELHOKLL@?$HN?$AA@ 0000000180053470     sfc_mex:sfc_sf.obj
 0002:00002478       ??_C@_0BA@OMJBIEIL@SymbolMapping?5?$HL?$AA@ 0000000180053478     sfc_mex:sfc_sf.obj
 0002:00002488       ??_C@_07MMIKLHCA@defines?$AA@ 0000000180053488     sfc_mex:sfc_sf.obj
 0002:00002490       ??_C@_09CEAIPAHE@functions?$AA@ 0000000180053490     sfc_mex:sfc_sf.obj
 0002:000024a0       ??_C@_09PNCJPHGM@sfSymbols?$AA@ 00000001800534a0     sfc_mex:sfc_sf.obj
 0002:000024b0       ??_C@_0BB@MBBOKNEL@listen_for_ctrlc?$AA@ 00000001800534b0     sfc_mex:sfc_sf.obj
 0002:000024c4       ??_C@_03LOANPFAI@mex?$AA@  00000001800534c4     sfc_mex:sfc_sf.obj
 0002:000024c8       ??_C@_07HLHKBCBI@sfdebug?$AA@ 00000001800534c8     sfc_mex:sfc_sf.obj
 0002:000024d0       ??_C@_07MFNNEMOJ@drawnow?$AA@ 00000001800534d0     sfc_mex:sfc_sf.obj
 0002:000024d8       __real@3fd3333333333333    00000001800534d8     sfc_mex:sfc_sf.obj
 0002:000024e0       ??_C@_0DG@OJBAPEMA@Internal?5Error?3?5paramsIndex?5?$DN?5?$CFd@ 00000001800534e0     sfc_mex:sfc_sf.obj
 0002:00002520       ??_C@_0BAI@GPDPHGCD@Cannot?5broadcast?5function?5call?5o@ 0000000180053520     sfc_mex:sfc_sf.obj
 0002:00002630       ??_C@_0BBC@NGKHEJAF@Cannot?5enable?1disable?5function?5c@ 0000000180053630     sfc_mex:sfc_sf.obj
 0002:00002748       ??_C@_08HDNBGBNP@bitWidth?$AA@ 0000000180053748     sfc_mex:sfc_sf.obj
 0002:00002758       ??_C@_0BG@MDDFDLDC@resolveToSignalObject?$AA@ 0000000180053758     sfc_mex:sfc_sf.obj
 0002:00002770       ??_C@_07KHBFOCMF@varName?$AA@ 0000000180053770     sfc_mex:sfc_sf.obj
 0002:00002778       ??_C@_09LHPHPAOE@isComplex?$AA@ 0000000180053778     sfc_mex:sfc_sf.obj
 0002:00002788       ??_C@_0CM@OAMAJMIG@Failed?5to?5register?5type?5?8?$CFs?8?5wit@ 0000000180053788     sfc_mex:sfc_sf.obj
 0002:000027b8       ??_C@_08MLIGMCAH@typeSize?$AA@ 00000001800537b8     sfc_mex:sfc_sf.obj
 0002:000027c8       ??_C@_0BI@OFLHAMB@vector_of_void_pointers?$AA@ 00000001800537c8     sfc_mex:sfc_sf.obj
 0002:000027e0       ??_C@_04NBAGBPGE@bias?$AA@ 00000001800537e0     sfc_mex:sfc_sf.obj
 0002:000027e8       ??_C@_08EGJNFMPO@exponent?$AA@ 00000001800537e8     sfc_mex:sfc_sf.obj
 0002:000027f4       ??_C@_05LAHHKLJI@slope?$AA@ 00000001800537f4     sfc_mex:sfc_sf.obj
 0002:00002800       ??_C@_0L@EMMELFNN@wordLength?$AA@ 0000000180053800     sfc_mex:sfc_sf.obj
 0002:00002810       ??_C@_08EJEJGLGA@isSigned?$AA@ 0000000180053810     sfc_mex:sfc_sf.obj
 0002:0000281c       ??_C@_05LFJLPLPG@fixpt?$AA@ 000000018005381c     sfc_mex:sfc_sf.obj
 0002:00002828       ??_C@_07GOBOHMJA@boolean?$AA@ 0000000180053828     sfc_mex:sfc_sf.obj
 0002:00002830       ??_C@_06PKDKHAMA@uint32?$AA@ 0000000180053830     sfc_mex:sfc_sf.obj
 0002:00002838       ??_C@_05GIMEPBJB@int32?$AA@ 0000000180053838     sfc_mex:sfc_sf.obj
 0002:00002840       ??_C@_06JNNCGBKK@uint16?$AA@ 0000000180053840     sfc_mex:sfc_sf.obj
 0002:00002848       ??_C@_05PCMOAPL@int16?$AA@ 0000000180053848     sfc_mex:sfc_sf.obj
 0002:00002850       ??_C@_05BOGOCLFF@uint8?$AA@ 0000000180053850     sfc_mex:sfc_sf.obj
 0002:00002858       ??_C@_04DCGBOBJJ@int8?$AA@ 0000000180053858     sfc_mex:sfc_sf.obj
 0002:00002860       ??_C@_04GPMDFGEJ@type?$AA@ 0000000180053860     sfc_mex:sfc_sf.obj
 0002:00002868       ??_C@_0O@EIPJLOAA@extModeUpload?$AA@ 0000000180053868     sfc_mex:sfc_sf.obj
 0002:00002878       __real@43e0000000000000    0000000180053878     sfc_mex:sfc_sf.obj
 0002:00002880       ??_C@_03PLHFFLIH@ptr?$AA@  0000000180053880     sfc_mex:sfc_sf.obj
 0002:00002888       ??_C@_0BC@HMCIKMPA@requiredStackSize?$AA@ 0000000180053888     sfc_mex:sfc_sf.obj
 0002:000028a0       ??_C@_0CB@OCGIMAKA@RegisterMachineParentedDataDwork@ 00000001800538a0     sfc_mex:sfc_sf.obj
 0002:000028c8       ??_C@_0BD@LFPAKDFC@machineDataVarInfo?$AA@ 00000001800538c8     sfc_mex:sfc_sf.obj
 0002:000028e0       ??_C@_09GAJBGLOB@dworkInfo?$AA@ 00000001800538e0     sfc_mex:sfc_sf.obj
 0002:000028f0       sf_uint_bits_log2          00000001800538f0     sfc_debug:sfcdebug.obj
 0002:00002910       ??_C@_04GKMJMOBJ@disp?$AA@ 0000000180053910     sfc_debug:sfcdebug.obj
 0002:00002918       ??_C@_0DJ@GEKCDEED@Runtime?5size?5mismatch?5for?5dimens@ 0000000180053918     sfc_debug:sfcdebug.obj
 0002:00002958       ??_C@_0N@IHFJDIPG@load_machine?$AA@ 0000000180053958     sfc_debug:sfcdebug.obj
 0002:00002968       ??_C@_0P@NOFOFJMO@ScriptCacheGet?$AA@ 0000000180053968     sfc_debug:sfcdebug.obj
 0002:00002978       ??_C@_0BD@LPIHANBP@State?5Entry?5Action?$AA@ 0000000180053978     sfc_debug:sfcdebug.obj
 0002:00002990       ??_C@_0BE@EDAKPKIF@State?5During?5Action?$AA@ 0000000180053990     sfc_debug:sfcdebug.obj
 0002:000029a8       ??_C@_0BC@FKIGLKJE@State?5Exit?5Action?$AA@ 00000001800539a8     sfc_debug:sfcdebug.obj
 0002:000029bc       ??_C@_04CGFJFPFD@none?$AA@ 00000001800539bc     sfc_debug:sfcdebug.obj
 0002:000029c8       ??_C@_0BD@JMJALEKH@Transition?5Trigger?$AA@ 00000001800539c8     sfc_debug:sfcdebug.obj
 0002:000029e0       ??_C@_0BO@JIGLNAHF@Transition?5Guarding?5Condition?$AA@ 00000001800539e0     sfc_debug:sfcdebug.obj
 0002:00002a00       ??_C@_0BB@ODEGBFLN@Condition?5Action?$AA@ 0000000180053a00     sfc_debug:sfcdebug.obj
 0002:00002a18       ??_C@_0BC@EPJNNAPA@Transition?5Action?$AA@ 0000000180053a18     sfc_debug:sfcdebug.obj
 0002:00002a30       ??_C@_0DI@JGHJOLLJ@INTERNAL?5ERROR?4?5Failed?5assertion@ 0000000180053a30     sfc_debug:sfcdebug.obj
 0002:00002a68       ??_C@_01EEMJAFIK@?6?$AA@   0000000180053a68     sfc_debug:sfcdebug.obj
 0002:00002a70       ??_C@_0P@HHNBJNJA@context_string?$AA@ 0000000180053a70     sfc_debug:sfcdebug.obj
 0002:00002a80       ??_C@_0DL@EPKGPGLC@?$CImachine?9?$DOdataCompInfo?4fixedPoin@ 0000000180053a80     sfc_debug:sfcdebug.obj
 0002:00002ac0       ??_C@_0L@GJHMCDGO@sfcdebug?4c?$AA@ 0000000180053ac0     sfc_debug:sfcdebug.obj
 0002:00002ad0       ??_C@_0DE@CBCLKIAM@?$CImachine?9?$DOdataCompInfo?4isComplex@ 0000000180053ad0     sfc_debug:sfcdebug.obj
 0002:00002b08       ??_C@_0DP@MDOJBFKE@?$CIinstance?9?$DOdataCompInfo?4fixedPoi@ 0000000180053b08     sfc_debug:sfcdebug.obj
 0002:00002b48       ??_C@_0DM@KFHGIBMB@?$CIinstance?9?$DOdataCompInfo?4fixedPoi@ 0000000180053b48     sfc_debug:sfcdebug.obj
 0002:00002b88       ??_C@_0DF@IIPJPBAH@?$CIinstance?9?$DOdataCompInfo?4isComple@ 0000000180053b88     sfc_debug:sfcdebug.obj
 0002:00002bc0       ??_C@_0DA@OMEPAHNH@?$CIchart?9?$DOdata?4outputDataFlags?$CJ?4le@ 0000000180053bc0     sfc_debug:sfcdebug.obj
 0002:00002bf0       ??_C@_0CP@JPBDBJBK@?$CIchart?9?$DOdata?4inputDataFlags?$CJ?4len@ 0000000180053bf0     sfc_debug:sfcdebug.obj
 0002:00002c20       ??_C@_03KGJNKAJD@lic?$AA@  0000000180053c20     sfc_debug:sfcdebug.obj
 0002:00002c24       ??_C@_04PNMLDJAE@ense?$AA@ 0000000180053c24     sfc_debug:sfcdebug.obj
 0002:00002c30       ??_C@_0L@ONMHLBPB@?$CFs?$CFs?$CFslbox?$AA@ 0000000180053c30     sfc_debug:sfcdebug.obj
 0002:00002c3c       ??_C@_04CLOJJEIM@fixe?$AA@ 0000000180053c3c     sfc_debug:sfcdebug.obj
 0002:00002c44       ??_C@_05CBHOIFCP@t_too?$AA@ 0000000180053c44     sfc_debug:sfcdebug.obj
 0002:00002c4c       ??_C@_06MGFNEDEJ@d_poin?$AA@ 0000000180053c4c     sfc_debug:sfcdebug.obj
 0002:00002c54       ??_C@_04HDOCAJNK@?$CFs?$CFs?$AA@ 0000000180053c54     sfc_debug:sfcdebug.obj
 0002:00002c5c       ??_C@_04BJBBOLDM@chec?$AA@ 0000000180053c5c     sfc_debug:sfcdebug.obj
 0002:00002c64       ??_C@_04KNBDLPKC@kout?$AA@ 0000000180053c64     sfc_debug:sfcdebug.obj
 0002:00002c70       ??_C@_0BA@FKECJMCE@active_instance?$AA@ 0000000180053c70     sfc_debug:sfcdebug.obj
 0002:00002c80       ??_C@_0DD@MJFCMKPO@transCnt?5?$DN?$DN?5instance?9?$DOcvToolIds?4@ 0000000180053c80     sfc_debug:sfcdebug.obj
 0002:00002cb8       ??_C@_0CO@MONEMJEL@stateCnt?5?$DN?$DN?5instance?9?$DOcvToolIds?4@ 0000000180053cb8     sfc_debug:sfcdebug.obj
 0002:00002ce8       ??_C@_0O@ELHBEDAD@init_debugger?$AA@ 0000000180053ce8     sfc_debug:sfcdebug.obj
 0002:00002cf8       ??_C@_0L@PKOFOKNN@break_here?$AA@ 0000000180053cf8     sfc_debug:sfcdebug.obj
 0002:00002d08       ??_C@_0BH@KBPHNGCH@script?4activeMachineId?$AA@ 0000000180053d08     sfc_debug:sfcdebug.obj
 0002:00002d20       ??_C@_03KCHOJKKI@set?$AA@  0000000180053d20     sfc_debug:sfcdebug.obj
 0002:00002d28       ??_C@_0DD@PKMAPHBF@?$CImachine?9?$DOdata?4watchFlags?$CJ?4lengt@ 0000000180053d28     sfc_debug:sfcdebug.obj
 0002:00002d60       ??_C@_0FE@KLPHIMDI@?$CIchart?9?$DOdata?4watchFlags?$CJ?4length?$DO@ 0000000180053d60     sfc_debug:sfcdebug.obj
 0002:00002db8       ??_C@_0BO@GFBPGEIL@bufferSizeGet?5?$DN?$DN?5totalSizeGet?$AA@ 0000000180053db8     sfc_debug:sfcdebug.obj
 0002:00002dd8       ??_C@_0BO@BEEPOEDP@bufferSizeSet?5?$DN?$DN?5totalSizeSet?$AA@ 0000000180053dd8     sfc_debug:sfcdebug.obj
 0002:00002df8       ??_C@_0BG@NNAKOPEK@get_script_line_count?$AA@ 0000000180053df8     sfc_debug:sfcdebug.obj
 0002:00002e10       ??_C@_0BJ@GADAHKGG@temporal_threshold_error?$AA@ 0000000180053e10     sfc_debug:sfcdebug.obj
 0002:00002e30       ??_C@_0BK@KABIOMCC@transition_conflict_error?$AA@ 0000000180053e30     sfc_debug:sfcdebug.obj
 0002:00002e50       ??_C@_0BK@HLPANOPJ@state_inconsistency_error?$AA@ 0000000180053e50     sfc_debug:sfcdebug.obj
 0002:00002e70       ??_C@_0BA@PCEGODO@cycle_detection?$AA@ 0000000180053e70     sfc_debug:sfcdebug.obj
 0002:00002e80       ??_C@_0CP@HMOGACCG@Simulation?5stopped?5due?5to?5out?5of@ 0000000180053e80     sfc_debug:sfcdebug.obj
 0002:00002eb0       ??_C@_0BD@LFFFHIJG@array_bounds_error?$AA@ 0000000180053eb0     sfc_debug:sfcdebug.obj
 0002:00002ec8       ??_C@_0O@IENBAMNA@runtime_error?$AA@ 0000000180053ec8     sfc_debug:sfcdebug.obj
 0002:00002ed8       ??_C@_0CC@EDKHOOPE@Call?5to?5MATLAB?5function?5aborted?3@ 0000000180053ed8     sfc_debug:sfcdebug.obj
 0002:00002f00       ??_C@_0DJ@JBGHLJFL@Simulation?5stopped?5due?5to?5size?5m@ 0000000180053f00     sfc_debug:sfcdebug.obj
 0002:00002f40       ??_C@_0DJ@EAKPCDBG@Simulation?5stopped?5due?5to?5size?5m@ 0000000180053f40     sfc_debug:sfcdebug.obj
 0002:00002f80       ??_C@_0GD@BJCLDBKO@Simulation?5stopped?5due?5to?5size?5m@ 0000000180053f80     sfc_debug:sfcdebug.obj
 0002:00002ff0       ??_C@_0GJ@OHCOIONE@Simulation?5stopped?5due?5to?5size?5o@ 0000000180053ff0     sfc_debug:sfcdebug.obj
 0002:00003060       ??_C@_0DF@BOMHHCNB@Subscripted?5assignment?5dimension@ 0000000180054060     sfc_debug:sfcdebug.obj
 0002:000030a0       ??_C@_0NG@BOPFGKBO@Matrix?$CImatrix?$CJ?5subscript?5turned?5@ 00000001800540a0     sfc_debug:sfcdebug.obj
 0002:00003180       ??_C@_0HE@FPEPCMDA@Matrix?$CImatrix?$CJ?5subscript?5turned?5@ 0000000180054180     sfc_debug:sfcdebug.obj
 0002:00003200       ??_C@_0NG@MLJIHJIH@Vector?$CIvector?$CJ?5subscript?5turned?5@ 0000000180054200     sfc_debug:sfcdebug.obj
 0002:000032e0       ??_C@_0HE@BHPDCNDF@Vector?$CIvector?$CJ?5subscript?5turned?5@ 00000001800542e0     sfc_debug:sfcdebug.obj
 0002:00003358       ??_C@_0BL@HKADOJK@Unknown?5runtime?5error?3?5?$CFs?4?$AA@ 0000000180054358     sfc_debug:sfcdebug.obj
 0002:00003378       ??_C@_0P@FIEIFKHH@dataName?$CB?$DNNULL?$AA@ 0000000180054378     sfc_debug:sfcdebug.obj
 0002:00003388       ??_C@_0BC@JKFOPCCM@non_integer_error?$AA@ 0000000180054388     sfc_debug:sfcdebug.obj
 0002:000033a0       ??_C@_09MMCAMPEC@nan_error?$AA@ 00000001800543a0     sfc_debug:sfcdebug.obj
 0002:000033b0       ??_C@_0P@KGNBONIG@negative_error?$AA@ 00000001800543b0     sfc_debug:sfcdebug.obj
 0002:000033c0       ??_C@_0DA@OEGHOJFO@Simulation?5stopped?5due?5to?5divide@ 00000001800543c0     sfc_debug:sfcdebug.obj
 0002:000033f0       ??_C@_0P@DAGNNBKM@overflow_error?$AA@ 00000001800543f0     sfc_debug:sfcdebug.obj
 0002:00003400       ??_C@_0BF@IEPBJJM@divide_by_zero_error?$AA@ 0000000180054400     sfc_debug:sfcdebug.obj
 0002:00003418       ??_C@_0BC@CNIFONOF@unsafe_enum_error?$AA@ 0000000180054418     sfc_debug:sfcdebug.obj
 0002:00003430       ??_C@_0BA@GLGJGIFO@data_loss_error?$AA@ 0000000180054430     sfc_debug:sfcdebug.obj
 0002:00003440       ??_C@_0BB@LFNCDKMF@data_range_error?$AA@ 0000000180054440     sfc_debug:sfcdebug.obj
 0002:00003460       ??_C@_0EL@LHLCBPON@objectType?$DN?$DNEVENT_OBJECT?5?$CG?$CG?5obje@ 0000000180054460     sfc_debug:sfcdebug.obj
 0002:000034b0       ??_C@_0CK@BGKNIJPH@Simulation?5stopped?5due?5to?5infini@ 00000001800544b0     sfc_debug:sfcdebug.obj
 0002:000034e0       ??_C@_0EC@EKMLJIIP@strlen?$CItargetName?$CJ?$DMsizeof?$CIdebugI@ 00000001800544e0     sfc_debug:sfcdebug.obj
 0002:00003530       ??_C@_0EE@LPPEFNLK@strlen?$CImachineName?$CJ?$DMsizeof?$CIdebug@ 0000000180054530     sfc_debug:sfcdebug.obj
 0002:00003578       ??_C@_0P@NDNBPAGO@charts?9?$DOsize?$DO0?$AA@ 0000000180054578     sfc_debug:sfcdebug.obj
 0002:00003588       ??_C@_09DACGJFPO@terminate?$AA@ 0000000180054588     sfc_debug:sfcdebug.obj
 0002:00003598       ??_C@_0BH@BOIPOAMD@currentoptionalinteger?$AA@ 0000000180054598     sfc_debug:sfc_api.obj
 0002:000035b0       ??_C@_0BI@KDFLIHKN@currentstatementcontext?$AA@ 00000001800545b0     sfc_debug:sfc_api.obj
 0002:000035c8       ??_C@_0BF@CJJCNHOP@currentstatementinfo?$AA@ 00000001800545c8     sfc_debug:sfc_api.obj
 0002:000035e0       ??_C@_0BA@EEHAMBBL@currentcoverage?$AA@ 00000001800545e0     sfc_debug:sfc_api.obj
 0002:000035f0       ??_C@_0BD@CPIGBEHM@currentmachinename?$AA@ 00000001800545f0     sfc_debug:sfc_api.obj
 0002:00003608       ??_C@_0BF@MPNFKHIK@currentmachinenumber?$AA@ 0000000180054608     sfc_debug:sfc_api.obj
 0002:00003620       ??_C@_0BB@EAGFPGEG@currentmachineid?$AA@ 0000000180054620     sfc_debug:sfc_api.obj
 0002:00003638       ??_C@_0P@LDEJFJKJ@simulationtime?$AA@ 0000000180054638     sfc_debug:sfc_api.obj
 0002:00003648       ??_C@_0P@CKMPNBM@currenttagtype?$AA@ 0000000180054648     sfc_debug:sfc_api.obj
 0002:00003658       ??_C@_0BH@EMAALFDO@currentactiveeventtype?$AA@ 0000000180054658     sfc_debug:sfc_api.obj
 0002:00003670       ??_C@_0BF@BIDFPCPF@currentactiveeventid?$AA@ 0000000180054670     sfc_debug:sfc_api.obj
 0002:00003688       ??_C@_0BA@LAPNNELA@currentobjectid?$AA@ 0000000180054688     sfc_debug:sfc_api.obj
 0002:00003698       ??_C@_0BB@LLJHHKEI@currenteventtype?$AA@ 0000000180054698     sfc_debug:sfc_api.obj
 0002:000036b0       ??_C@_0BC@BDADCDEL@currentobjecttype?$AA@ 00000001800546b0     sfc_debug:sfc_api.obj
 0002:000036c8       ??_C@_0BH@HDHFFKCN@currentisminortimestep?$AA@ 00000001800546c8     sfc_debug:sfc_api.obj
 0002:000036e0       ??_C@_0BG@PKFJEKLL@currentinstancehandle?$AA@ 00000001800546e0     sfc_debug:sfc_api.obj
 0002:000036f8       ??_C@_0BG@GJFHKFBJ@currentinstancenumber?$AA@ 00000001800546f8     sfc_debug:sfc_api.obj
 0002:00003710       ??_C@_0BD@DKAMMHEE@currentchartnumber?$AA@ 0000000180054710     sfc_debug:sfc_api.obj
 0002:00003728       ??_C@_0P@EANFOHCD@currentchartid?$AA@ 0000000180054728     sfc_debug:sfc_api.obj
 0002:00003738       ??_C@_06IMFOKBKF@assign?$AA@ 0000000180054738     sfc_debug:sfc_api.obj
 0002:00003740       ??_C@_0BC@CMFMGKCG@set_script_cv_ids?$AA@ 0000000180054740     sfc_debug:sfc_api.obj
 0002:00003758       ??_C@_0BE@ONNFKBAC@set_instance_cv_ids?$AA@ 0000000180054758     sfc_debug:sfc_api.obj
 0002:00003770       ??_C@_0BE@CDIKCKCD@get_instance_handle?$AA@ 0000000180054770     sfc_debug:sfc_api.obj
 0002:00003788       ??_C@_0BE@GPEMFILK@break_between_times?$AA@ 0000000180054788     sfc_debug:sfc_api.obj
 0002:000037a0       ??_C@_0O@KGONFDDG@active_states?$AA@ 00000001800547a0     sfc_debug:sfc_api.obj
 0002:000037b0       ??_C@_0BC@LHALNGBC@state_consistency?$AA@ 00000001800547b0     sfc_debug:sfc_api.obj
 0002:000037c8       ??_C@_0BE@JNDELHDH@transition_conflict?$AA@ 00000001800547c8     sfc_debug:sfc_api.obj
 0002:000037e0       ??_C@_0L@ECJAFPAF@data_range?$AA@ 00000001800547e0     sfc_debug:sfc_api.obj
 0002:000037f0       ??_C@_0O@NAKDKJME@select_charts?$AA@ 00000001800547f0     sfc_debug:sfc_api.obj
 0002:00003800       ??_C@_0N@KLDBDGD@select_chart?$AA@ 0000000180054800     sfc_debug:sfc_api.obj
 0002:00003810       ??_C@_0O@NJPMKBAC@set_animation?$AA@ 0000000180054810     sfc_debug:sfc_api.obj
 0002:00003820       ??_C@_0N@NLCAJHNH@get_coverage?$AA@ 0000000180054820     sfc_debug:sfc_api.obj
 0002:00003830       ??_C@_09FLOFKLFE@set_watch?$AA@ 0000000180054830     sfc_debug:sfc_api.obj
 0002:00003840       ??_C@_0O@ECMAEPOC@get_script_id?$AA@ 0000000180054840     sfc_debug:sfc_api.obj
 0002:00003850       ??_C@_0BJ@KFGPCNG@query_script_breakpoints?$AA@ 0000000180054850     sfc_debug:sfc_api.obj
 0002:00003870       ??_C@_0BJ@CAAHLJNF@clear_script_breakpoints?$AA@ 0000000180054870     sfc_debug:sfc_api.obj
 0002:00003890       ??_C@_0BH@BAILBHDP@add_script_breakpoints?$AA@ 0000000180054890     sfc_debug:sfc_api.obj
 0002:000038a8       ??_C@_0BH@KAKDDELG@set_script_breakpoints?$AA@ 00000001800548a8     sfc_debug:sfc_api.obj
 0002:000038c0       ??_C@_0BE@GAGDJPKA@set_eml_breakpoints?$AA@ 00000001800548c0     sfc_debug:sfc_api.obj
 0002:000038d8       ??_C@_0BA@NHOBHLLJ@set_breakpoints?$AA@ 00000001800548d8     sfc_debug:sfc_api.obj
 0002:000038e8       ??_C@_0BF@GOGOODJG@break_on_state_entry?$AA@ 00000001800548e8     sfc_debug:sfc_api.obj
 0002:00003900       ??_C@_0BJ@FPOJDFBP@break_on_event_broadcast?$AA@ 0000000180054900     sfc_debug:sfc_api.obj
 0002:00003920       ??_C@_0BF@FJBBAFJ@break_on_chart_entry?$AA@ 0000000180054920     sfc_debug:sfc_api.obj
 0002:00003938       ??_C@_0N@MHHEHLAI@browse_trace?$AA@ 0000000180054938     sfc_debug:sfc_api.obj
 0002:00003948       ??_C@_0BB@JEAJMJMI@consistency_info?$AA@ 0000000180054948     sfc_debug:sfc_api.obj
 0002:0000395c       ??_C@_04MLCEENPJ@whos?$AA@ 000000018005495c     sfc_debug:sfc_api.obj
 0002:00003968       ??_C@_0L@LNIDAIN@watch_data?$AA@ 0000000180054968     sfc_debug:sfc_api.obj
 0002:00003978       ??_C@_0M@JEJMEFEG@browse_data?$AA@ 0000000180054978     sfc_debug:sfc_api.obj
 0002:00003984       ??_C@_03HNAFFKGA@get?$AA@  0000000180054984     sfc_debug:sfc_api.obj
 0002:00003988       ??_C@_05LBOHBHFK@close?$AA@ 0000000180054988     sfc_debug:sfc_api.obj
 0002:00003990       ??_C@_0BM@ICDFOOIE@set_disable_all_breakpoints?$AA@ 0000000180054990     sfc_debug:sfc_api.obj
 0002:000039b0       ??_C@_0BP@IBIALPGH@disable_all_breakpoints_and_go?$AA@ 00000001800549b0     sfc_debug:sfc_api.obj
 0002:000039d0       ??_C@_0BJ@BOMFHJBD@is_array_bounds_detected?$AA@ 00000001800549d0     sfc_debug:sfc_api.obj
 0002:000039f0       ??_C@_0BC@LKOOEAAH@is_cycle_detected?$AA@ 00000001800549f0     sfc_debug:sfc_api.obj
 0002:00003a08       ??_C@_0P@NIBPNIDJ@stop_debugging?$AA@ 0000000180054a08     sfc_debug:sfc_api.obj
 0002:00003a18       ??_C@_05ELPHFHOI@break?$AA@ 0000000180054a18     sfc_debug:sfc_api.obj
 0002:00003a20       ??_C@_06PLELHCEK@resume?$AA@ 0000000180054a20     sfc_debug:sfc_api.obj
 0002:00003a28       ??_C@_08OKABEMKO@step_out?$AA@ 0000000180054a28     sfc_debug:sfc_api.obj
 0002:00003a38       ??_C@_09CDNMPCHO@step_over?$AA@ 0000000180054a38     sfc_debug:sfc_api.obj
 0002:00003a44       ??_C@_02KPEDIMCA@go?$AA@   0000000180054a44     sfc_debug:sfc_api.obj
 0002:00003a48       ??_C@_0P@MMCMIGPN@debugger_alive?$AA@ 0000000180054a48     sfc_debug:sfc_api.obj
 0002:00003a58       ??_C@_0N@GHFBLJDM@machine_load?$AA@ 0000000180054a58     sfc_debug:sfc_api.obj
 0002:00003a68       ??_C@_0O@GIBFCMLF@chart_visible?$AA@ 0000000180054a68     sfc_debug:sfc_api.obj
 0002:00003e90       ??_C@_05JEMLEKKA@found?$AA@ 0000000180054e90     sfc_debug:sfc_api.obj
 0002:00003e98       ??_C@_09KFNMLIAN@sfc_api?4c?$AA@ 0000000180054e98     sfc_debug:sfc_api.obj
 0002:00003ea8       ??_C@_0N@PFBMDOLG@sf_debug_api?$AA@ 0000000180054ea8     sfc_debug:sfc_api.obj
 0002:00003eb8       ??_C@_07KEAHHHLK@nrhs?$DN?$DN3?$AA@ 0000000180054eb8     sfc_debug:sfc_api.obj
 0002:00003ec0       ??_C@_0BC@HOOMKBNL@mxIsChar?$CIprhs?$FL0?$FN?$CJ?$AA@ 0000000180054ec0     sfc_debug:sfc_api.obj
 0002:00003ed8       ??_C@_0BF@NGLAGMHA@mxIsNumeric?$CIprhs?$FL0?$FN?$CJ?$AA@ 0000000180054ed8     sfc_debug:sfc_api.obj
 0002:00003ef0       ??_C@_07IEIELKNG@nrhs?$DO?$DN1?$AA@ 0000000180054ef0     sfc_debug:sfc_api.obj
 0002:00003ef8       ??_C@_07LNBMEGPL@nrhs?$DN?$DN2?$AA@ 0000000180054ef8     sfc_debug:sfc_api.obj
 0002:00003f00       ??_C@_09HBMMCBIO@nrhs?5?$DN?$DN?51?$AA@ 0000000180054f00     sfc_debug:sfc_api.obj
 0002:00003f10       ??_C@_09FKOBHCEN@nrhs?5?$DN?$DN?52?$AA@ 0000000180054f10     sfc_debug:sfc_api.obj
 0002:00003f20       ??_C@_09EMKMAIDO@nrhs?5?$DM?$DN?51?$AA@ 0000000180054f20     sfc_debug:sfc_api.obj
 0002:00003f30       ??_C@_07OLEGOBHN@nrhs?$DN?$DN4?$AA@ 0000000180054f30     sfc_debug:sfc_api.obj
 0002:00003f38       ??_C@_07PCFNNADM@nrhs?$DN?$DN5?$AA@ 0000000180054f38     sfc_debug:sfc_api.obj
 0002:00003f40       ??_C@_07JGDBBFDI@nrhs?$DN?$DN1?$AA@ 0000000180054f40     sfc_debug:sfc_api.obj
 0002:00003f48       ??_C@_07KBNAPCKL@nlhs?$DN?$DN1?$AA@ 0000000180054f48     sfc_debug:sfc_api.obj
 0002:00003f50       ??_C@_08PAMHJLPB@statusOk?$AA@ 0000000180054f50     sfc_debug:sfc_api.obj
 0002:00003f60       ??_C@_07NJHAIDPP@nrhs?$DN?$DN6?$AA@ 0000000180054f60     sfc_debug:sfc_api.obj
 0002:00003f68       ??_C@_0L@EMNHGDGL@nlhs?$DN?$DNnrhs?$AA@ 0000000180054f68     sfc_debug:sfc_api.obj
 0002:00003f78       ??_C@_0BP@PJLNOBEA@sf_debug_using_unified_editors?$AA@ 0000000180054f78     sfc_debug:sfdb_animation.obj
 0002:00003f98       ??_C@_0CE@EANGLCEA@sf_debug_unified_editor_has_diag@ 0000000180054f98     sfc_debug:sfdb_animation.obj
 0002:00003fc0       ??_C@_0P@BLJCAHMG@select_objects?$AA@ 0000000180054fc0     sfc_debug:sfdb_animation.obj
 0002:00003fd0       ??_C@_06CFKBOPCI@states?$AA@ 0000000180054fd0     sfc_debug:sfdb_animation.obj
 0002:00003fd8       ??_C@_0P@KHIIFDEG@instanceHandle?$AA@ 0000000180054fd8     sfc_debug:sfdb_animation.obj
 0002:00003fe8       ??_C@_0P@DEIGLMOE@instanceNumber?$AA@ 0000000180054fe8     sfc_debug:sfdb_animation.obj
 0002:00003ff8       ??_C@_0N@HACOJJON@instanceName?$AA@ 0000000180054ff8     sfc_debug:sfdb_animation.obj
 0002:00004008       ??_C@_0M@BFNIOHPP@chartNumber?$AA@ 0000000180055008     sfc_debug:sfdb_animation.obj
 0002:00004018       ??_C@_07KGNNMFDL@chartId?$AA@ 0000000180055018     sfc_debug:sfdb_animation.obj
 0002:00004020       ??_C@_09KMHJEGJ@chartName?$AA@ 0000000180055020     sfc_debug:sfdb_animation.obj
 0002:0000402c       ??_C@_06OOECHJN@charts?$AA@ 000000018005502c     sfc_debug:sfdb_animation.obj
 0002:00004038       ??_C@_0O@LOMGGENK@machineNumber?$AA@ 0000000180055038     sfc_debug:sfdb_animation.obj
 0002:00004048       ??_C@_09OOJCKABH@machineId?$AA@ 0000000180055048     sfc_debug:sfdb_animation.obj
 0002:00004058       ??_C@_0M@OCOCCFP@machineName?$AA@ 0000000180055058     sfc_debug:sfdb_animation.obj
 0002:00004068       ??_C@_0CN@CCJEMGOM@?$CIinstance?9?$DOsm?4statePack?$CJ?4length?$DO@ 0000000180055068     sfc_debug:sfdb_animation.obj
 0002:00004098       ??_C@_0DC@DKAJIDPA@?$CIinstance?9?$DOsm?4transitionPack?$CJ?4le@ 0000000180055098     sfc_debug:sfdb_animation.obj
 0002:000040d0       ??_C@_0BB@EGGLBLCL@sfdb_animation?4c?$AA@ 00000001800550d0     sfc_debug:sfdb_animation.obj
 0002:000040e8       ??_C@_0BB@GDGPIGLB@cv_model_enabled?$AA@ 00000001800550e8     sfc_debug:cv_sfinterface.obj
 0002:00004100       ??_C@_09DDDNMFIJ@get_param?$AA@ 0000000180055100     sfc_debug:cv_sfinterface.obj
 0002:00004110       ??_C@_0L@BODNDPN@CoverageId?$AA@ 0000000180055110     sfc_debug:cv_sfinterface.obj
 0002:0000411c       ??_C@_05IEGMLJMJ@exist?$AA@ 000000018005511c     sfc_debug:cv_sfinterface.obj
 0002:00004124       ??_C@_02DDEKINOE@cv?$AA@   0000000180055124     sfc_debug:cv_sfinterface.obj
 0002:00004128       __real@4082c00000000000    0000000180055128     sfc_debug:cv_sfinterface.obj
 0002:00004130       ??_C@_0O@HGNEKHDK@MatlabVersion?$AA@ 0000000180055130     sfc_debug:cv_sfinterface.obj
 0002:00004140       ??_C@_0M@IIAIMKFO@status?5?$DN?$DN?50?$AA@ 0000000180055140     sfc_debug:cv_sfinterface.obj
 0002:00004150       ??_C@_0BB@ENEMAMMG@cv_sfinterface?4c?$AA@ 0000000180055150     sfc_debug:cv_sfinterface.obj
 0002:00004168       ??_C@_0CC@JMPFGLON@mxGetNumberOfElements?$CIplhs?$FL3?$FN?$CJ?$DN?$DN@ 0000000180055168     sfc_debug:cv_sfinterface.obj
 0002:00004190       ??_C@_0P@MCDOIOOF@plhs?$FL3?$FN?5?$CB?$DNNULL?$AA@ 0000000180055190     sfc_debug:cv_sfinterface.obj
 0002:000041a0       ??_C@_0P@HAMLCBNF@len?$DM?$DNdataCount?$AA@ 00000001800551a0     sfc_debug:cv_sfinterface.obj
 0002:000041b0       ??_C@_0BA@FJOAHKLL@len?$DN?$DNtransCount?$AA@ 00000001800551b0     sfc_debug:cv_sfinterface.obj
 0002:000041c0       ??_C@_0BA@JELAJLGI@len?$DN?$DNstateCount?$AA@ 00000001800551c0     sfc_debug:cv_sfinterface.obj
 0002:000041d0       ??_C@_0BC@NEFBEIHN@InitChartInstance?$AA@ 00000001800551d0     sfc_debug:cv_sfinterface.obj
 0002:000041e4       ??_C@_04MMALOABH@cvsf?$AA@ 00000001800551e4     sfc_debug:cv_sfinterface.obj
 0002:000041f0       ??_C@_0L@GIEKKEHF@InitScript?$AA@ 00000001800551f0     sfc_debug:cv_sfinterface.obj
 0002:00004200       ??_C@_08DNDOONPK@sigrange?$AA@ 0000000180055200     sfc_debug:cv_sfinterface.obj
 0002:00004210       ??_C@_0O@KGBGEHIN@MetricEnabled?$AA@ 0000000180055210     sfc_debug:cv_sfinterface.obj
 0002:00004220       ??_C@_0BC@NKPEPJDJ@chart?9?$DOchartId?$CB?$DN0?$AA@ 0000000180055220     sfc_debug:cv_sfinterface.obj
 0002:00004234       ??_C@_06LIBBAANI@len?$DN?$DN1?$AA@ 0000000180055234     sfc_debug:sfdb_handle_management.obj
 0002:00004240       ??_C@_0BJ@IEEBKHME@sfdb_handle_management?4c?$AA@ 0000000180055240     sfc_debug:sfdb_handle_management.obj
 0002:0000425c       ??_C@_06NCGDPKCC@handle?$AA@ 000000018005525c     sfc_debug:sfdb_handle_management.obj
 0002:00004268       ??_C@_0BP@NAIIDBEE@parentObjectType?$DN?$DNCHART_OBJECT?$AA@ 0000000180055268     sfc_debug:sfdb_handle_management.obj
 0002:00004288       ??_C@_0BD@JOOOIBOE@get_machine_option?$AA@ 0000000180055288     sfc_debug:sfdb_handle_management.obj
 0002:000042a0       ??_C@_0P@KGLBOIAN@get_machine_id?$AA@ 00000001800552a0     sfc_debug:sfdb_handle_management.obj
 0002:000042b0       ??_C@_0N@OBHOGINE@get_chart_id?$AA@ 00000001800552b0     sfc_debug:sfdb_handle_management.obj
 0002:000042c0       ??_C@_0BD@DICPGEAM@register_sfunction?$AA@ 00000001800552c0     sfc_debug:sfdb_handle_management.obj
 0002:000042d8       ??_C@_0BK@FGANPGOL@get_chart_active_instance?$AA@ 00000001800552d8     sfc_debug:sfdb_handle_management.obj
 0002:000042f8       ??_C@_0BF@FENDCECP@get_chart_visibility?$AA@ 00000001800552f8     sfc_debug:sfdb_handle_management.obj
 0002:00004310       ??_C@_0BM@FDGIEMLG@objectProperties?9?$DOlength?$DN?$DN0?$AA@ 0000000180055310     sfc_debug:sfdb_handle_management.obj
 0002:00004330       ??_C@_0CE@KBPIEDGG@?$CI?$CI?$CKobjectProperties?$CJ?$CJ?4length?$DOnum@ 0000000180055330     sfc_debug:sfdb_handle_management.obj
 0002:00004358       ??_C@_0CA@HFGDFECP@len?5?$DN?$DN?5objectProperties?9?$DOlength?$AA@ 0000000180055358     sfc_debug:sfdb_handle_management.obj
 0002:00004378       ??_C@_0P@BHPLCHGJ@get_object_ids?$AA@ 0000000180055378     sfc_debug:sfdb_handle_management.obj
 0002:00004388       ??_C@_0BK@IFFOLHLE@objectProperties?9?$DOsize?$DN?$DN0?$AA@ 0000000180055388     sfc_debug:sfdb_handle_management.obj
 0002:000043a8       ??_C@_0BO@GFLPGHHM@len?5?$DO?$DN?5objectProperties?9?$DOsize?$AA@ 00000001800553a8     sfc_debug:sfdb_handle_management.obj
 0002:000043c8       ??_C@_05GFHEIIDD@event?$AA@ 00000001800553c8     sfc_debug:sfdb_handle_management.obj
 0002:000043d0       ??_C@_0M@BFOKCNLA@debug?4watch?$AA@ 00000001800553d0     sfc_debug:sfdb_handle_management.obj
 0002:000043dc       ??_C@_04PJOLNDGD@data?$AA@ 00000001800553dc     sfc_debug:sfdb_handle_management.obj
 0002:000043e4       ??_C@_02EGCJHIOB@id?$AA@   00000001800553e4     sfc_debug:sfdb_handle_management.obj
 0002:000043e8       ??_C@_0CE@OILCPIFA@machine?4debug?4disableAllBreakpoi@ 00000001800553e8     sfc_debug:sfdb_handle_management.obj
 0002:00004410       ??_C@_0DA@JMDEGBBH@machine?4debug?4runTimeCheck?4state@ 0000000180055410     sfc_debug:sfdb_handle_management.obj
 0002:00004440       ??_C@_0CP@IPHIMGFA@machine?4debug?4runTimeCheck?4trans@ 0000000180055440     sfc_debug:sfdb_handle_management.obj
 0002:00004470       ??_C@_0CL@LENOAAKD@machine?4debug?4runTimeCheck?4dataR@ 0000000180055470     sfc_debug:sfdb_handle_management.obj
 0002:000044a0       ??_C@_0CK@MBMAMLGE@machine?4debug?4runTimeCheck?4cycle@ 00000001800554a0     sfc_debug:sfdb_handle_management.obj
 0002:000044d0       ??_C@_0CA@EGLALCO@machine?4debug?4animation?4enabled?$AA@ 00000001800554d0     sfc_debug:sfdb_handle_management.obj
 0002:000044f0       ??_C@_0L@KGLELNDP@transition?$AA@ 00000001800554f0     sfc_debug:sfdb_handle_management.obj
 0002:000044fc       ??_C@_06JKPEPHBG@dst?4id?$AA@ 00000001800554fc     sfc_debug:sfdb_handle_management.obj
 0002:00004504       ??_C@_05HDBKIDE@state?$AA@ 0000000180055504     sfc_debug:sfdb_handle_management.obj
 0002:00004510       ??_C@_0EG@MFIKDIJB@strlen?$CImachineName?$CJ?5?$DM?5sizeof?$CIdeb@ 0000000180055510     sfc_debug:sfdb_handle_management.obj
 0002:00004558       ??_C@_02GMHACPFF@?$CFu?$AA@ 0000000180055558     sfc_debug:sfdb_data_browse.obj
 0002:0000455c       ??_C@_02NJPGOMH@?$CFf?$AA@ 000000018005555c     sfc_debug:sfdb_data_browse.obj
 0002:00004560       ??_C@_0BD@PCGIEHBF@sfdb_data_browse?4c?$AA@ 0000000180055560     sfc_debug:sfdb_data_browse.obj
 0002:00004578       __real@c2a2309ce53fffcd    0000000180055578     sfc_debug:sfdb_data_browse.obj
 0002:00004580       ??_C@_0CK@JKBFHDPL@result?5?$DN?5mxCreateDoubleMatrix?$CI1?0@ 0000000180055580     sfc_debug:sfdb_data_browse.obj
 0002:000045b0       ??_C@_0DK@FJDNFCNK@result?5?$DN?5mxCreateDoubleMatrix?$CI1?0@ 00000001800555b0     sfc_debug:sfdb_data_browse.obj
 0002:000045f0       ??_C@_0DL@OAKPHGJG@result?5?$DN?5mxCreateDoubleMatrix?$CI1?0@ 00000001800555f0     sfc_debug:sfdb_data_browse.obj
 0002:00004630       ??_C@_0N@MNGHGLAH@isFixedPoint?$AA@ 0000000180055630     sfc_debug:sfdb_data_browse.obj
 0002:00004640       ??_C@_06DLEPGFEF@format?$AA@ 0000000180055640     sfc_debug:sfdb_data_browse.obj
 0002:00004648       ??_C@_05MFEJDJP@value?$AA@ 0000000180055648     sfc_debug:sfdb_data_browse.obj
 0002:00004650       ??_C@_05DCCHDMEJ@scope?$AA@ 0000000180055650     sfc_debug:sfdb_data_browse.obj
 0002:00004658       ??_C@_0BM@DEONCIBN@stackPtr?5?$DN?$DN?5symScope?9?$DOstack?$AA@ 0000000180055658     sfc_debug:sfdb_symbol_scope.obj
 0002:00004678       ??_C@_0BE@PIKAOBFK@sfdb_symbol_scope?4c?$AA@ 0000000180055678     sfc_debug:sfdb_symbol_scope.obj
 0002:00004690       ??_C@_0BP@MJGDIBPE@symScope?9?$DOcurrentScope?5?$CB?$DN?5NULL?$AA@ 0000000180055690     sfc_debug:sfdb_symbol_scope.obj
 0002:000046b0       ??_C@_0BP@OCHHKFJA@symScope?9?$DOcurrentScope?5?$DN?$DN?5NULL?$AA@ 00000001800556b0     sfc_debug:sfdb_symbol_scope.obj
 0002:000046d0       ??_C@_0BM@KCIKANPA@symScope?9?$DOstack?5?$DN?$DN?5stackPtr?$AA@ 00000001800556d0     sfc_debug:sfdb_symbol_scope.obj
 0002:000046f0       ??_C@_0DK@NCABFGD@symScope?9?$DOcurrentScope?5?$CB?$DN?5NULL?5?$CG@ 00000001800556f0     sfc_debug:sfdb_symbol_scope.obj
 0002:00004730       ??_C@_0DL@LDAGNOEE@currScope?9?$DOsymbolTable?4count?5?$DM?5c@ 0000000180055730     sfc_debug:sfdb_symbol_scope.obj
 0002:00004770       ??_C@_0BK@PHCKFGOO@numDims?5?$DM?$DN?5MAX_DIMENSIONS?$AA@ 0000000180055770     sfc_debug:sfdb_symbol_scope.obj
 0002:00004790       ??_C@_0EE@CLCFNFKP@Warning?3?5Can?8t?5display?5value?4?5Nu@ 0000000180055790     sfc_debug:sfdb_symbol_scope.obj
 0002:000047d8       ??_C@_0BB@NPDHFBEP@valuePtr?5?$CB?$DN?5NULL?$AA@ 00000001800557d8     sfc_debug:sfdb_symbol_scope.obj
 0002:000047f0       ??_C@_0O@CHHKIHJE@chart?5?$CB?$DN?5NULL?$AA@ 00000001800557f0     sfc_debug:sfdb_symbol_scope.obj
 0002:00004800       ??_C@_0CB@PFGINMAC@dataInfo?5?$CG?$CG?5data?5?$CG?$CG?5st?5?$CG?$CG?5i?5?$DO?$DN?50@ 0000000180055800     sfc_debug:sfdb_symbol_scope.obj
 0002:00004830       ??_C@_0PC@ENOLANEC@Cannot?5change?5value?5of?5?8?$CFs?8?5at?5d@ 0000000180055830     sfc_debug:sfdb_symbol_scope.obj
 0002:00004924       ??_C@_02PINLEBJB@fi?$AA@   0000000180055924     sfc_debug:sfdb_symbol_scope.obj
 0002:00004928       ??_C@_06FDANFAAP@sim2fi?$AA@ 0000000180055928     sfc_debug:sfdb_symbol_scope.obj
 0002:00004930       ??_C@_0BF@KFJKGDMO@Unrecognized?5symbol?4?$AA@ 0000000180055930     sfc_debug:sfdb_symbol_scope.obj
 0002:00004948       ??_C@_0L@INJGJGAM@?5?$CIcomplex?$CJ?$AA@ 0000000180055948     sfc_debug:sfdb_symbol_scope.obj
 0002:00004958       ??_C@_0O@MHGLJPE@fixpt?5?$CI?$CFs?5?$CFs?$CJ?$AA@ 0000000180055958     sfc_debug:sfdb_symbol_scope.obj
 0002:00004968       ??_C@_08FFKICJMO@?$CFs?$CL?$CF?416g?$AA@ 0000000180055968     sfc_debug:sfdb_symbol_scope.obj
 0002:00004974       ??_C@_02EPPPECEI@SI?$AA@   0000000180055974     sfc_debug:sfdb_symbol_scope.obj
 0002:00004978       ??_C@_09LKFGHFHF@?$CFs?$CI2?$FO?$CFd?$CJ?$CK?$AA@ 0000000180055978     sfc_debug:sfdb_symbol_scope.obj
 0002:00004984       ??_C@_06KJECHFDK@?$CF?416g?$CK?$AA@ 0000000180055984     sfc_debug:sfdb_symbol_scope.obj
 0002:0000498c       ??_C@_02IJPJFKDF@ml?$AA@   000000018005598c     sfc_debug:sfdb_symbol_scope.obj
 0002:00004990       ??_C@_0O@NJOJHIHO@logical?5array?$AA@ 0000000180055990     sfc_debug:sfdb_symbol_scope.obj
 0002:000049a0       ??_C@_0L@MDMKKENH@char?5array?$AA@ 00000001800559a0     sfc_debug:sfdb_symbol_scope.obj
 0002:000049b0       ??_C@_0N@DGCGENML@uint32?5array?$AA@ 00000001800559b0     sfc_debug:sfdb_symbol_scope.obj
 0002:000049c0       ??_C@_0M@OFFMACLB@int32?5array?$AA@ 00000001800559c0     sfc_debug:sfdb_symbol_scope.obj
 0002:000049d0       ??_C@_0N@JMJKGLLH@uint16?5array?$AA@ 00000001800559d0     sfc_debug:sfdb_symbol_scope.obj
 0002:000049e0       ??_C@_0M@EPOACEMN@int16?5array?$AA@ 00000001800559e0     sfc_debug:sfdb_symbol_scope.obj
 0002:000049f0       ??_C@_0M@NOMKNEGI@uint8?5array?$AA@ 00000001800559f0     sfc_debug:sfdb_symbol_scope.obj
 0002:00004a00       ??_C@_0L@HCHBFFAP@int8?5array?$AA@ 0000000180055a00     sfc_debug:sfdb_symbol_scope.obj
 0002:00004a10       ??_C@_0N@KIFCNMIF@single?5array?$AA@ 0000000180055a10     sfc_debug:sfdb_symbol_scope.obj
 0002:00004a20       ??_C@_0N@OFOFFBCM@double?5array?$AA@ 0000000180055a20     sfc_debug:sfdb_symbol_scope.obj
 0002:00004a30       ??_C@_04BIAHPGJI@?$CFdx1?$AA@ 0000000180055a30     sfc_debug:sfdb_symbol_scope.obj
 0002:00004a38       ??_C@_04CADIJHHA@?$CFd?9D?$AA@ 0000000180055a38     sfc_debug:sfdb_symbol_scope.obj
 0002:00004a40       ??_C@_05JIPKJPMI@?$CFs?$CFdx?$AA@ 0000000180055a40     sfc_debug:sfdb_symbol_scope.obj
 0002:00004a48       ??_C@_0BH@GLACFBLP@?5?$CIvariable?5sized?3?5MAX?5?$AA@ 0000000180055a48     sfc_debug:sfdb_symbol_scope.obj
 0002:00004a60       ??_C@_07CIFAGBMG@unknown?$AA@ 0000000180055a60     sfc_debug:sfdb_symbol_scope.obj
 0002:00004a68       ??_C@_05ENKANFLO@class?$AA@ 0000000180055a68     sfc_debug:sfdb_symbol_scope.obj
 0002:00004a70       ??_C@_05FBJAGGIG@bytes?$AA@ 0000000180055a70     sfc_debug:sfdb_symbol_scope.obj
 0002:00004a78       ??_C@_04MEMAJGDJ@name?$AA@ 0000000180055a78     sfc_debug:sfdb_symbol_scope.obj
 0002:00004a80       ??_C@_0CF@NELOECCL@coverageVector?9?$DOlength?$DOcoverageI@ 0000000180055a80     sfc_debug:sfdb_coverage.obj
 0002:00004aa8       ??_C@_0BA@CBMBNBFB@sfdb_coverage?4c?$AA@ 0000000180055aa8     sfc_debug:sfdb_coverage.obj
 0002:00004ab8       ??_C@_0BF@FHBODGMA@transitionActionData?$AA@ 0000000180055ab8     sfc_debug:sfdb_coverage.obj
 0002:00004ad0       ??_C@_0BE@FOEHFHL@conditionActionData?$AA@ 0000000180055ad0     sfc_debug:sfdb_coverage.obj
 0002:00004ae8       ??_C@_09GAFONGPE@guardData?$AA@ 0000000180055ae8     sfc_debug:sfdb_coverage.obj
 0002:00004af8       ??_C@_0M@FEGFDJFB@triggerData?$AA@ 0000000180055af8     sfc_debug:sfdb_coverage.obj
 0002:00004b08       ??_C@_0BE@DDIOFNHN@endTransitionAction?$AA@ 0000000180055b08     sfc_debug:sfdb_coverage.obj
 0002:00004b20       ??_C@_0BD@BICKLGDM@endConditionAction?$AA@ 0000000180055b20     sfc_debug:sfdb_coverage.obj
 0002:00004b38       ??_C@_08EDILCCFF@endGuard?$AA@ 0000000180055b38     sfc_debug:sfdb_coverage.obj
 0002:00004b48       ??_C@_0L@CAMMIEPG@endTrigger?$AA@ 0000000180055b48     sfc_debug:sfdb_coverage.obj
 0002:00004b58       ??_C@_0BG@OPNNMDEH@startTransitionAction?$AA@ 0000000180055b58     sfc_debug:sfdb_coverage.obj
 0002:00004b70       ??_C@_0BF@JNLJEDBC@startConditionAction?$AA@ 0000000180055b70     sfc_debug:sfdb_coverage.obj
 0002:00004b88       ??_C@_0L@EHEBHPKB@startGuard?$AA@ 0000000180055b88     sfc_debug:sfdb_coverage.obj
 0002:00004b98       ??_C@_0N@EFMGIJMM@startTrigger?$AA@ 0000000180055b98     sfc_debug:sfdb_coverage.obj
 0002:00004ba8       ??_C@_07HIPHOHKK@endExit?$AA@ 0000000180055ba8     sfc_debug:sfdb_coverage.obj
 0002:00004bb0       ??_C@_09KNNJHBLO@endDuring?$AA@ 0000000180055bb0     sfc_debug:sfdb_coverage.obj
 0002:00004bc0       ??_C@_08IBNIOOHM@endEntry?$AA@ 0000000180055bc0     sfc_debug:sfdb_coverage.obj
 0002:00004bd0       ??_C@_09GJIMAGCM@startExit?$AA@ 0000000180055bd0     sfc_debug:sfdb_coverage.obj
 0002:00004be0       ??_C@_0M@BHANINOG@startDuring?$AA@ 0000000180055be0     sfc_debug:sfdb_coverage.obj
 0002:00004bf0       ??_C@_0L@IFBCLDII@startEntry?$AA@ 0000000180055bf0     sfc_debug:sfdb_coverage.obj
 0002:00004c00       ??_C@_08PPNNBHPL@exitData?$AA@ 0000000180055c00     sfc_debug:sfdb_coverage.obj
 0002:00004c10       ??_C@_0L@LKGLEJGJ@duringData?$AA@ 0000000180055c10     sfc_debug:sfdb_coverage.obj
 0002:00004c20       ??_C@_09MBCNPEGP@entryData?$AA@ 0000000180055c20     sfc_debug:sfdb_coverage.obj
 0002:00004c30       ??_C@_09BJOJOOIO@instances?$AA@ 0000000180055c30     sfc_debug:sfdb_coverage.obj
 0002:00004c40       ??_C@_0M@LCNCLDLF@transitions?$AA@ 0000000180055c40     sfc_debug:sfdb_coverage.obj
 0002:00004c50       ??_C@_0DN@FAEHHEAM@?$CIscript?9?$DObm?4breakpoints?$CJ?4length?$DO@ 0000000180055c50     sfc_debug:sfdb_breakpoints.obj
 0002:00004c90       ??_C@_0BD@BABBLJFB@sfdb_breakpoints?4c?$AA@ 0000000180055c90     sfc_debug:sfdb_breakpoints.obj
 0002:00004ca8       ??_C@_0P@IGHKOFID@get_script_bps?$AA@ 0000000180055ca8     sfc_debug:sfdb_breakpoints.obj
 0002:00004cb8       ??_C@_0BA@ICOJJJDD@get_all_scripts?$AA@ 0000000180055cb8     sfc_debug:sfdb_breakpoints.obj
 0002:00004cd0       ??_C@_0EI@EDDFBGGP@?$CIunsigned?5int?$CJ?$CImxGetM?$CIplhs?$FL0?$FN?$CJ?5?$CK@ 0000000180055cd0     sfc_debug:sfdb_breakpoints.obj
 0002:00004d18       ??_C@_0BE@PNADEEOB@get_eml_line_counts?$AA@ 0000000180055d18     sfc_debug:sfdb_breakpoints.obj
 0002:00004d30       ??_C@_0CC@JPCLBDPC@mxGetNumberOfElements?$CIplhs?$FL0?$FN?$CJ?$DN?$DN@ 0000000180055d30     sfc_debug:sfdb_breakpoints.obj
 0002:00004d58       ??_C@_0P@EHJHKHLL@get_global_bps?$AA@ 0000000180055d58     sfc_debug:sfdb_breakpoints.obj
 0002:00004d68       ??_C@_0CE@NADCJCF@?$CIchart?9?$DObm?4chart?$FLtagType?$FN?$CJ?4lengt@ 0000000180055d68     sfc_debug:sfdb_breakpoints.obj
 0002:00004d90       ??_C@_0CP@JOFCMAIP@?$CIchart?9?$DObm?4state?$FLtagType?$FN?$CJ?4lengt@ 0000000180055d90     sfc_debug:sfdb_breakpoints.obj
 0002:00004dc0       ??_C@_0DE@GNPGALGC@?$CIchart?9?$DObm?4transition?$FLtagType?$FN?$CJ?4@ 0000000180055dc0     sfc_debug:sfdb_breakpoints.obj
 0002:00004df8       ??_C@_0DB@PCFIPMMH@?$CImachine?9?$DObm?4event?$FLtagType?$FN?$CJ?4len@ 0000000180055df8     sfc_debug:sfdb_breakpoints.obj
 0002:00004e30       ??_C@_0CP@FENPPAOI@?$CIchart?9?$DObm?4event?$FLtagType?$FN?$CJ?4lengt@ 0000000180055e30     sfc_debug:sfdb_breakpoints.obj
 0002:00004e60       ??_C@_0CH@EKAIFOIL@numCols?5?$DN?$DN?5TOTAL_EVENT_BREAKPOIN@ 0000000180055e60     sfc_debug:sfdb_breakpoints.obj
 0002:00004e88       ??_C@_0CA@BECONEOF@numRows?5?$DN?$DN?5machine?9?$DOevent?4count?$AA@ 0000000180055e88     sfc_debug:sfdb_breakpoints.obj
 0002:00004ea8       ??_C@_07HCEBIAFG@get_bps?$AA@ 0000000180055ea8     sfc_debug:sfdb_breakpoints.obj
 0002:00004eb0       ??_C@_0BI@LFGGAIIJ@?$CIbps?$CJ?4length?$DObreakPoint?$AA@ 0000000180055eb0     sfc_debug:sfdb_breakpoints.obj
 0002:00004ec8       ??_C@_0N@CNOINHPD@numCols?5?$DN?$DN?51?$AA@ 0000000180055ec8     sfc_debug:sfdb_breakpoints.obj
 0002:00004ed8       ??_C@_0M@NNPJEEAE@get_eml_bps?$AA@ 0000000180055ed8     sfc_debug:sfdb_breakpoints.obj
 0002:00004ee8       ??_C@_0BO@CDPAPHEM@numRows?5?$DN?$DN?5chart?9?$DOevent?4count?$AA@ 0000000180055ee8     sfc_debug:sfdb_breakpoints.obj
 0002:00004f08       ??_C@_0CM@FFJFHNEO@numCols?5?$DN?$DN?5TOTAL_TRANSITION_BREA@ 0000000180055f08     sfc_debug:sfdb_breakpoints.obj
 0002:00004f38       ??_C@_0CD@IOIMPEBN@numRows?5?$DN?$DN?5chart?9?$DOtransition?4cou@ 0000000180055f38     sfc_debug:sfdb_breakpoints.obj
 0002:00004f60       ??_C@_0CH@JEIBGOOJ@numCols?5?$DN?$DN?5TOTAL_STATE_BREAKPOIN@ 0000000180055f60     sfc_debug:sfdb_breakpoints.obj
 0002:00004f88       ??_C@_0BO@BIKNFPLB@numRows?5?$DN?$DN?5chart?9?$DOstate?4count?$AA@ 0000000180055f88     sfc_debug:sfdb_breakpoints.obj
 0002:00004fa8       ??_C@_0CH@BNLENKGD@numCols?5?$DN?$DN?5TOTAL_CHART_BREAKPOIN@ 0000000180055fa8     sfc_debug:sfdb_breakpoints.obj
 0002:00004fd0       ??_C@_0N@MEFFBAFI@numRows?5?$DN?$DN?51?$AA@ 0000000180055fd0     sfc_debug:sfdb_breakpoints.obj
 0002:00004fe0       ??_C@_0BJ@BLHBHILO@sfdb_state_consistency?4c?$AA@ 0000000180055fe0     sfc_debug:sfdb_state_consistency.obj
 0002:00005000       ??_C@_09LHFAMEGK@errorType?$AA@ 0000000180056000     sfc_debug:sfdb_state_consistency.obj
 0002:00005010       ??_C@_08DLAIKNBK@objectId?$AA@ 0000000180056010     sfc_debug:sfdb_state_consistency.obj
 0002:00005020       ??_C@_0L@GODCDFEF@objectType?$AA@ 0000000180056020     sfc_debug:sfdb_state_consistency.obj
 0002:00005030       ??_C@_0L@CCGENCKP@errorStack?$AA@ 0000000180056030     sfc_debug:sfdb_state_consistency.obj
 0002:00005040       ??_C@_0O@PPHMCEKO@cycleDetected?$AA@ 0000000180056040     sfc_debug:sfdb_call_stack.obj
 0002:00005050       ??_C@_0N@MGKMJLEK@cycleStarted?$AA@ 0000000180056050     sfc_debug:sfdb_call_stack.obj
 0002:00005060       ??_C@_07BNCILGOA@tagType?$AA@ 0000000180056060     sfc_debug:sfdb_call_stack.obj
 0002:00005068       ??_C@_0L@POKIGEMP@eventScope?$AA@ 0000000180056068     sfc_debug:sfdb_call_stack.obj
 0002:00005078       ??_C@_0M@LKJJPLIC@traceVector?$AA@ 0000000180056078     sfc_debug:sfdb_call_stack.obj
 0002:00005090       ??_C@_0EC@MGCLADPL@?$CIinstance?9?$DOcycleDetection?4transi@ 0000000180056090     sfc_debug:sfdb_cycle_detection.obj
 0002:000050d8       ??_C@_0BH@ELCAAKDD@sfdb_cycle_detection?4c?$AA@ 00000001800560d8     sfc_debug:sfdb_cycle_detection.obj
 0002:000050f0       ??_C@_0O@PICIAFIK@newNode?$CB?$DNNULL?$AA@ 00000001800560f0     sfc_debug:sfdb_cycle_detection.obj
 0002:00005100       _pDefaultRawDllMain        0000000180056100     MSVCRT:crtdll.obj
 0002:00005100       _pRawDllMain               0000000180056100     MSVCRT:crtdll.obj
 0002:00005118       ?ProcessDetach@NativeDll@<CrtImplementationDetails>@@0IB 0000000180056118     MSVCRT:tncleanup.obj
 0002:0000511c       ?ProcessAttach@NativeDll@<CrtImplementationDetails>@@0IB 000000018005611c     MSVCRT:tncleanup.obj
 0002:00005120       ?ThreadAttach@NativeDll@<CrtImplementationDetails>@@0IB 0000000180056120     MSVCRT:tncleanup.obj
 0002:00005124       ?ThreadDetach@NativeDll@<CrtImplementationDetails>@@0IB 0000000180056124     MSVCRT:tncleanup.obj
 0002:00005128       ?ProcessVerifier@NativeDll@<CrtImplementationDetails>@@0IB 0000000180056128     MSVCRT:tncleanup.obj
 0002:00005130       __rtc_iaa                  0000000180056130     MSVCRT:_initsect_.obj
 0002:00005138       __rtc_izz                  0000000180056138     MSVCRT:_initsect_.obj
 0002:00005140       __rtc_taa                  0000000180056140     MSVCRT:_initsect_.obj
 0002:00005148       __rtc_tzz                  0000000180056148     MSVCRT:_initsect_.obj
 0002:000097d4       __IMPORT_DESCRIPTOR_libmx  000000018005a7d4     libmx:libmx.dll
 0002:000097e8       __IMPORT_DESCRIPTOR_libmex 000000018005a7e8     libmex:libmex.dll
 0002:000097fc       __IMPORT_DESCRIPTOR_libfixedpoint 000000018005a7fc     libfixedpoint:libfixedpoint.dll
 0002:00009810       __IMPORT_DESCRIPTOR_libut  000000018005a810     libut:libut.dll
 0002:00009824       __IMPORT_DESCRIPTOR_libmwmathutil 000000018005a824     libmwmathutil:libmwmathutil.dll
 0002:00009838       __IMPORT_DESCRIPTOR_libemlrt 000000018005a838     libemlrt:libemlrt.dll
 0002:0000984c       __IMPORT_DESCRIPTOR_MSVCR100 000000018005a84c     MSVCRT:MSVCR100.dll
 0002:00009860       __IMPORT_DESCRIPTOR_KERNEL32 000000018005a860     kernel32:KERNEL32.dll
 0002:00009874       __NULL_IMPORT_DESCRIPTOR   000000018005a874     libmx:libmx.dll
 0003:00006408       DYNAMIC_DIMENSION          0000000180062408     online_fuzz_clus_sfun_registry.obj
 0003:000070b8       emlrtContextGlobal         00000001800630b8     sfc_mex:sfc_mex.obj
 0003:00007150       __security_cookie          0000000180063150     MSVCRT:gs_cookie.obj
 0003:00007158       __security_cookie_complement 0000000180063158     MSVCRT:gs_cookie.obj
 0003:00007160       _fltused                   0000000180063160     MSVCRT:dllsupp.obj
 0003:00007170       __native_dllmain_reason    0000000180063170     MSVCRT:natstart.obj
 0003:00007174       __native_vcclrit_reason    0000000180063174     MSVCRT:natstart.obj
 0003:00008650       sSFDebuggerInitialized     0000000180064650     sfc_debug:sfcdebug.obj
 0003:00009700       ?__type_info_root_node@@3U__type_info_node@@A 0000000180065700     MSVCRT:tncleanup.obj
 0003:00009710       _sfTime_                   0000000180065710     <common>
 0003:00009718       _online_fuzz_clusMachineNumber_ 0000000180065718     <common>
 0003:00009720       gSfComplexDataTypeOffsets  0000000180065720     <common>
 0003:00009780       gSfDataTypeOffsets         0000000180065780     <common>
 0003:000097c8       gMaskBits                  00000001800657c8     <common>
 0003:000097d0       __native_startup_state     00000001800657d0     <common>
 0003:000097d8       __native_startup_lock      00000001800657d8     <common>
 0003:000097e0       __onexitend                00000001800657e0     <common>
 0003:000097e8       __onexitbegin              00000001800657e8     <common>
 0003:000097f0       __dyn_tls_init_callback    00000001800657f0     <common>

 entry point at        0001:0004f460

 Static symbols

 0001:000010c0       get_sim_state_c1_online_fuzz_clus 00000001800020c0 f   c1_online_fuzz_clus.obj
 0001:00001320       sf_get_sim_state_info_c1_online_fuzz_clus 0000000180002320 f   c1_online_fuzz_clus.obj
 0001:00001500       set_sim_state_c1_online_fuzz_clus 0000000180002500 f   c1_online_fuzz_clus.obj
 0001:00001620       c1_update_debugger_state_c1_online_fuzz_clus 0000000180002620 f   c1_online_fuzz_clus.obj
 0001:00001630       c1_emlrt_marshallIn        0000000180002630 f   c1_online_fuzz_clus.obj
 0001:000016a0       c1_b_emlrt_marshallIn      00000001800026a0 f   c1_online_fuzz_clus.obj
 0001:00001730       c1_d_emlrt_marshallIn      0000000180002730 f   c1_online_fuzz_clus.obj
 0001:00001790       c1_e_emlrt_marshallIn      0000000180002790 f   c1_online_fuzz_clus.obj
 0001:00001890       mdlProcessParameters_c1_online_fuzz_clus 0000000180002890 f   c1_online_fuzz_clus.obj
 0001:00001950       initialize_params_c1_online_fuzz_clus 0000000180002950 f   c1_online_fuzz_clus.obj
 0001:00001960       mdlSetWorkWidths_c1_online_fuzz_clus 0000000180002960 f   c1_online_fuzz_clus.obj
 0001:00001ce0       mdlStart_c1_online_fuzz_clus 0000000180002ce0 f   c1_online_fuzz_clus.obj
 0001:00001ee0       init_dsm_address_info      0000000180002ee0 f   c1_online_fuzz_clus.obj
 0001:00001ef0       chart_debug_initialization 0000000180002ef0 f   c1_online_fuzz_clus.obj
 0001:00002940       init_script_number_translation 0000000180003940 f   c1_online_fuzz_clus.obj
 0001:00002950       c1_sf_marshallOut          0000000180003950 f   c1_online_fuzz_clus.obj
 0001:00002a00       c1_sf_marshallIn           0000000180003a00 f   c1_online_fuzz_clus.obj
 0001:00002aa0       c1_b_sf_marshallOut        0000000180003aa0 f   c1_online_fuzz_clus.obj
 0001:00002c20       sf_opaque_initialize_c1_online_fuzz_clus 0000000180003c20 f   c1_online_fuzz_clus.obj
 0001:00002c60       initialize_c1_online_fuzz_clus 0000000180003c60 f   c1_online_fuzz_clus.obj
 0001:00002ca0       sf_opaque_enable_c1_online_fuzz_clus 0000000180003ca0 f   c1_online_fuzz_clus.obj
 0001:00002cc0       enable_c1_online_fuzz_clus 0000000180003cc0 f   c1_online_fuzz_clus.obj
 0001:00002cf0       sf_opaque_disable_c1_online_fuzz_clus 0000000180003cf0 f   c1_online_fuzz_clus.obj
 0001:00002d10       disable_c1_online_fuzz_clus 0000000180003d10 f   c1_online_fuzz_clus.obj
 0001:00002d40       sf_opaque_gateway_c1_online_fuzz_clus 0000000180003d40 f   c1_online_fuzz_clus.obj
 0001:00002d60       sf_c1_online_fuzz_clus     0000000180003d60 f   c1_online_fuzz_clus.obj
 0001:00004120       sf_opaque_get_sim_state_c1_online_fuzz_clus 0000000180005120 f   c1_online_fuzz_clus.obj
 0001:00004140       sf_opaque_set_sim_state_c1_online_fuzz_clus 0000000180005140 f   c1_online_fuzz_clus.obj
 0001:00004170       sf_opaque_terminate_c1_online_fuzz_clus 0000000180005170 f   c1_online_fuzz_clus.obj
 0001:000041f0       finalize_c1_online_fuzz_clus 00000001800051f0 f   c1_online_fuzz_clus.obj
 0001:00004200       sf_opaque_init_subchart_simstructs 0000000180005200 f   c1_online_fuzz_clus.obj
 0001:00004220       initSimStructsc1_online_fuzz_clus 0000000180005220 f   c1_online_fuzz_clus.obj
 0001:00004230       mdlRTW_c1_online_fuzz_clus 0000000180005230 f   c1_online_fuzz_clus.obj
 0001:00005270       get_sim_state_c2_online_fuzz_clus 0000000180006270 f   c2_online_fuzz_clus.obj
 0001:00005400       sf_get_sim_state_info_c2_online_fuzz_clus 0000000180006400 f   c2_online_fuzz_clus.obj
 0001:000055e0       set_sim_state_c2_online_fuzz_clus 00000001800065e0 f   c2_online_fuzz_clus.obj
 0001:000056b0       c2_update_debugger_state_c2_online_fuzz_clus 00000001800066b0 f   c2_online_fuzz_clus.obj
 0001:000056c0       c2_emlrt_marshallIn        00000001800066c0 f   c2_online_fuzz_clus.obj
 0001:00005730       c2_b_emlrt_marshallIn      0000000180006730 f   c2_online_fuzz_clus.obj
 0001:000057c0       c2_d_emlrt_marshallIn      00000001800067c0 f   c2_online_fuzz_clus.obj
 0001:00005820       c2_e_emlrt_marshallIn      0000000180006820 f   c2_online_fuzz_clus.obj
 0001:00005920       mdlProcessParameters_c2_online_fuzz_clus 0000000180006920 f   c2_online_fuzz_clus.obj
 0001:000059e0       initialize_params_c2_online_fuzz_clus 00000001800069e0 f   c2_online_fuzz_clus.obj
 0001:000059f0       mdlSetWorkWidths_c2_online_fuzz_clus 00000001800069f0 f   c2_online_fuzz_clus.obj
 0001:00005d70       mdlStart_c2_online_fuzz_clus 0000000180006d70 f   c2_online_fuzz_clus.obj
 0001:00005f70       init_dsm_address_info      0000000180006f70 f   c2_online_fuzz_clus.obj
 0001:00005f80       chart_debug_initialization 0000000180006f80 f   c2_online_fuzz_clus.obj
 0001:000068c0       init_script_number_translation 00000001800078c0 f   c2_online_fuzz_clus.obj
 0001:000068d0       c2_sf_marshallOut          00000001800078d0 f   c2_online_fuzz_clus.obj
 0001:00006980       c2_sf_marshallIn           0000000180007980 f   c2_online_fuzz_clus.obj
 0001:00006a20       c2_b_sf_marshallOut        0000000180007a20 f   c2_online_fuzz_clus.obj
 0001:00006b90       sf_opaque_initialize_c2_online_fuzz_clus 0000000180007b90 f   c2_online_fuzz_clus.obj
 0001:00006bd0       initialize_c2_online_fuzz_clus 0000000180007bd0 f   c2_online_fuzz_clus.obj
 0001:00006c10       sf_opaque_enable_c2_online_fuzz_clus 0000000180007c10 f   c2_online_fuzz_clus.obj
 0001:00006c30       enable_c2_online_fuzz_clus 0000000180007c30 f   c2_online_fuzz_clus.obj
 0001:00006c60       sf_opaque_disable_c2_online_fuzz_clus 0000000180007c60 f   c2_online_fuzz_clus.obj
 0001:00006c80       disable_c2_online_fuzz_clus 0000000180007c80 f   c2_online_fuzz_clus.obj
 0001:00006cb0       sf_opaque_gateway_c2_online_fuzz_clus 0000000180007cb0 f   c2_online_fuzz_clus.obj
 0001:00006cd0       sf_c2_online_fuzz_clus     0000000180007cd0 f   c2_online_fuzz_clus.obj
 0001:00007b10       sf_opaque_get_sim_state_c2_online_fuzz_clus 0000000180008b10 f   c2_online_fuzz_clus.obj
 0001:00007b30       sf_opaque_set_sim_state_c2_online_fuzz_clus 0000000180008b30 f   c2_online_fuzz_clus.obj
 0001:00007b60       sf_opaque_terminate_c2_online_fuzz_clus 0000000180008b60 f   c2_online_fuzz_clus.obj
 0001:00007be0       finalize_c2_online_fuzz_clus 0000000180008be0 f   c2_online_fuzz_clus.obj
 0001:00007bf0       sf_opaque_init_subchart_simstructs 0000000180008bf0 f   c2_online_fuzz_clus.obj
 0001:00007c10       initSimStructsc2_online_fuzz_clus 0000000180008c10 f   c2_online_fuzz_clus.obj
 0001:00007c20       mdlRTW_c2_online_fuzz_clus 0000000180008c20 f   c2_online_fuzz_clus.obj
 0001:00008d20       get_sim_state_c3_online_fuzz_clus 0000000180009d20 f   c3_online_fuzz_clus.obj
 0001:00008eb0       sf_get_sim_state_info_c3_online_fuzz_clus 0000000180009eb0 f   c3_online_fuzz_clus.obj
 0001:00009090       set_sim_state_c3_online_fuzz_clus 000000018000a090 f   c3_online_fuzz_clus.obj
 0001:00009160       c3_update_debugger_state_c3_online_fuzz_clus 000000018000a160 f   c3_online_fuzz_clus.obj
 0001:00009170       c3_emlrt_marshallIn        000000018000a170 f   c3_online_fuzz_clus.obj
 0001:000091e0       c3_b_emlrt_marshallIn      000000018000a1e0 f   c3_online_fuzz_clus.obj
 0001:00009270       c3_d_emlrt_marshallIn      000000018000a270 f   c3_online_fuzz_clus.obj
 0001:000092d0       c3_e_emlrt_marshallIn      000000018000a2d0 f   c3_online_fuzz_clus.obj
 0001:000093d0       mdlProcessParameters_c3_online_fuzz_clus 000000018000a3d0 f   c3_online_fuzz_clus.obj
 0001:00009490       initialize_params_c3_online_fuzz_clus 000000018000a490 f   c3_online_fuzz_clus.obj
 0001:000094a0       mdlSetWorkWidths_c3_online_fuzz_clus 000000018000a4a0 f   c3_online_fuzz_clus.obj
 0001:00009820       mdlStart_c3_online_fuzz_clus 000000018000a820 f   c3_online_fuzz_clus.obj
 0001:00009a20       init_dsm_address_info      000000018000aa20 f   c3_online_fuzz_clus.obj
 0001:00009a30       chart_debug_initialization 000000018000aa30 f   c3_online_fuzz_clus.obj
 0001:0000a370       init_script_number_translation 000000018000b370 f   c3_online_fuzz_clus.obj
 0001:0000a380       c3_sf_marshallOut          000000018000b380 f   c3_online_fuzz_clus.obj
 0001:0000a430       c3_sf_marshallIn           000000018000b430 f   c3_online_fuzz_clus.obj
 0001:0000a4d0       c3_b_sf_marshallOut        000000018000b4d0 f   c3_online_fuzz_clus.obj
 0001:0000a640       sf_opaque_initialize_c3_online_fuzz_clus 000000018000b640 f   c3_online_fuzz_clus.obj
 0001:0000a680       initialize_c3_online_fuzz_clus 000000018000b680 f   c3_online_fuzz_clus.obj
 0001:0000a6c0       sf_opaque_enable_c3_online_fuzz_clus 000000018000b6c0 f   c3_online_fuzz_clus.obj
 0001:0000a6e0       enable_c3_online_fuzz_clus 000000018000b6e0 f   c3_online_fuzz_clus.obj
 0001:0000a710       sf_opaque_disable_c3_online_fuzz_clus 000000018000b710 f   c3_online_fuzz_clus.obj
 0001:0000a730       disable_c3_online_fuzz_clus 000000018000b730 f   c3_online_fuzz_clus.obj
 0001:0000a760       sf_opaque_gateway_c3_online_fuzz_clus 000000018000b760 f   c3_online_fuzz_clus.obj
 0001:0000a780       sf_c3_online_fuzz_clus     000000018000b780 f   c3_online_fuzz_clus.obj
 0001:0000b5a0       sf_opaque_get_sim_state_c3_online_fuzz_clus 000000018000c5a0 f   c3_online_fuzz_clus.obj
 0001:0000b5c0       sf_opaque_set_sim_state_c3_online_fuzz_clus 000000018000c5c0 f   c3_online_fuzz_clus.obj
 0001:0000b5f0       sf_opaque_terminate_c3_online_fuzz_clus 000000018000c5f0 f   c3_online_fuzz_clus.obj
 0001:0000b670       finalize_c3_online_fuzz_clus 000000018000c670 f   c3_online_fuzz_clus.obj
 0001:0000b680       sf_opaque_init_subchart_simstructs 000000018000c680 f   c3_online_fuzz_clus.obj
 0001:0000b6a0       initSimStructsc3_online_fuzz_clus 000000018000c6a0 f   c3_online_fuzz_clus.obj
 0001:0000b6b0       mdlRTW_c3_online_fuzz_clus 000000018000c6b0 f   c3_online_fuzz_clus.obj
 0001:0000c910       get_sim_state_c4_online_fuzz_clus 000000018000d910 f   c4_online_fuzz_clus.obj
 0001:0000caa0       sf_get_sim_state_info_c4_online_fuzz_clus 000000018000daa0 f   c4_online_fuzz_clus.obj
 0001:0000cc80       set_sim_state_c4_online_fuzz_clus 000000018000dc80 f   c4_online_fuzz_clus.obj
 0001:0000cd50       c4_update_debugger_state_c4_online_fuzz_clus 000000018000dd50 f   c4_online_fuzz_clus.obj
 0001:0000cd60       c4_emlrt_marshallIn        000000018000dd60 f   c4_online_fuzz_clus.obj
 0001:0000cdd0       c4_b_emlrt_marshallIn      000000018000ddd0 f   c4_online_fuzz_clus.obj
 0001:0000ce60       c4_d_emlrt_marshallIn      000000018000de60 f   c4_online_fuzz_clus.obj
 0001:0000cec0       c4_e_emlrt_marshallIn      000000018000dec0 f   c4_online_fuzz_clus.obj
 0001:0000cfc0       mdlProcessParameters_c4_online_fuzz_clus 000000018000dfc0 f   c4_online_fuzz_clus.obj
 0001:0000d080       initialize_params_c4_online_fuzz_clus 000000018000e080 f   c4_online_fuzz_clus.obj
 0001:0000d090       mdlSetWorkWidths_c4_online_fuzz_clus 000000018000e090 f   c4_online_fuzz_clus.obj
 0001:0000d460       mdlStart_c4_online_fuzz_clus 000000018000e460 f   c4_online_fuzz_clus.obj
 0001:0000d660       init_dsm_address_info      000000018000e660 f   c4_online_fuzz_clus.obj
 0001:0000d670       chart_debug_initialization 000000018000e670 f   c4_online_fuzz_clus.obj
 0001:0000e1b0       init_script_number_translation 000000018000f1b0 f   c4_online_fuzz_clus.obj
 0001:0000e1c0       c4_sf_marshallOut          000000018000f1c0 f   c4_online_fuzz_clus.obj
 0001:0000e270       c4_sf_marshallIn           000000018000f270 f   c4_online_fuzz_clus.obj
 0001:0000e310       c4_b_sf_marshallOut        000000018000f310 f   c4_online_fuzz_clus.obj
 0001:0000e4a0       sf_opaque_initialize_c4_online_fuzz_clus 000000018000f4a0 f   c4_online_fuzz_clus.obj
 0001:0000e4e0       initialize_c4_online_fuzz_clus 000000018000f4e0 f   c4_online_fuzz_clus.obj
 0001:0000e520       sf_opaque_enable_c4_online_fuzz_clus 000000018000f520 f   c4_online_fuzz_clus.obj
 0001:0000e540       enable_c4_online_fuzz_clus 000000018000f540 f   c4_online_fuzz_clus.obj
 0001:0000e570       sf_opaque_disable_c4_online_fuzz_clus 000000018000f570 f   c4_online_fuzz_clus.obj
 0001:0000e590       disable_c4_online_fuzz_clus 000000018000f590 f   c4_online_fuzz_clus.obj
 0001:0000e5c0       sf_opaque_gateway_c4_online_fuzz_clus 000000018000f5c0 f   c4_online_fuzz_clus.obj
 0001:0000e5e0       sf_c4_online_fuzz_clus     000000018000f5e0 f   c4_online_fuzz_clus.obj
 0001:0000f770       sf_opaque_get_sim_state_c4_online_fuzz_clus 0000000180010770 f   c4_online_fuzz_clus.obj
 0001:0000f790       sf_opaque_set_sim_state_c4_online_fuzz_clus 0000000180010790 f   c4_online_fuzz_clus.obj
 0001:0000f7c0       sf_opaque_terminate_c4_online_fuzz_clus 00000001800107c0 f   c4_online_fuzz_clus.obj
 0001:0000f840       finalize_c4_online_fuzz_clus 0000000180010840 f   c4_online_fuzz_clus.obj
 0001:0000f850       sf_opaque_init_subchart_simstructs 0000000180010850 f   c4_online_fuzz_clus.obj
 0001:0000f870       initSimStructsc4_online_fuzz_clus 0000000180010870 f   c4_online_fuzz_clus.obj
 0001:0000f880       mdlRTW_c4_online_fuzz_clus 0000000180010880 f   c4_online_fuzz_clus.obj
 0001:0000fd80       c5_info_helper             0000000180010d80 f   c5_online_fuzz_clus.obj
 0001:00010d40       get_sim_state_c5_online_fuzz_clus 0000000180011d40 f   c5_online_fuzz_clus.obj
 0001:00010ed0       sf_get_sim_state_info_c5_online_fuzz_clus 0000000180011ed0 f   c5_online_fuzz_clus.obj
 0001:000110b0       set_sim_state_c5_online_fuzz_clus 00000001800120b0 f   c5_online_fuzz_clus.obj
 0001:00011180       c5_update_debugger_state_c5_online_fuzz_clus 0000000180012180 f   c5_online_fuzz_clus.obj
 0001:00011190       c5_emlrt_marshallIn        0000000180012190 f   c5_online_fuzz_clus.obj
 0001:00011200       c5_b_emlrt_marshallIn      0000000180012200 f   c5_online_fuzz_clus.obj
 0001:00011290       c5_d_emlrt_marshallIn      0000000180012290 f   c5_online_fuzz_clus.obj
 0001:000112f0       c5_e_emlrt_marshallIn      00000001800122f0 f   c5_online_fuzz_clus.obj
 0001:000113f0       mdlProcessParameters_c5_online_fuzz_clus 00000001800123f0 f   c5_online_fuzz_clus.obj
 0001:000114b0       initialize_params_c5_online_fuzz_clus 00000001800124b0 f   c5_online_fuzz_clus.obj
 0001:000114c0       mdlSetWorkWidths_c5_online_fuzz_clus 00000001800124c0 f   c5_online_fuzz_clus.obj
 0001:00011860       mdlStart_c5_online_fuzz_clus 0000000180012860 f   c5_online_fuzz_clus.obj
 0001:00011a60       init_dsm_address_info      0000000180012a60 f   c5_online_fuzz_clus.obj
 0001:00011a70       chart_debug_initialization 0000000180012a70 f   c5_online_fuzz_clus.obj
 0001:00012470       init_script_number_translation 0000000180013470 f   c5_online_fuzz_clus.obj
 0001:00012480       c5_sf_marshallOut          0000000180013480 f   c5_online_fuzz_clus.obj
 0001:00012530       c5_sf_marshallIn           0000000180013530 f   c5_online_fuzz_clus.obj
 0001:000125d0       c5_b_sf_marshallOut        00000001800135d0 f   c5_online_fuzz_clus.obj
 0001:00012750       sf_opaque_initialize_c5_online_fuzz_clus 0000000180013750 f   c5_online_fuzz_clus.obj
 0001:00012790       initialize_c5_online_fuzz_clus 0000000180013790 f   c5_online_fuzz_clus.obj
 0001:000127d0       sf_opaque_enable_c5_online_fuzz_clus 00000001800137d0 f   c5_online_fuzz_clus.obj
 0001:000127f0       enable_c5_online_fuzz_clus 00000001800137f0 f   c5_online_fuzz_clus.obj
 0001:00012820       sf_opaque_disable_c5_online_fuzz_clus 0000000180013820 f   c5_online_fuzz_clus.obj
 0001:00012840       disable_c5_online_fuzz_clus 0000000180013840 f   c5_online_fuzz_clus.obj
 0001:00012870       sf_opaque_gateway_c5_online_fuzz_clus 0000000180013870 f   c5_online_fuzz_clus.obj
 0001:00012890       sf_c5_online_fuzz_clus     0000000180013890 f   c5_online_fuzz_clus.obj
 0001:00013940       c5_mpower                  0000000180014940 f   c5_online_fuzz_clus.obj
 0001:00013990       sf_opaque_get_sim_state_c5_online_fuzz_clus 0000000180014990 f   c5_online_fuzz_clus.obj
 0001:000139b0       sf_opaque_set_sim_state_c5_online_fuzz_clus 00000001800149b0 f   c5_online_fuzz_clus.obj
 0001:000139e0       sf_opaque_terminate_c5_online_fuzz_clus 00000001800149e0 f   c5_online_fuzz_clus.obj
 0001:00013a60       finalize_c5_online_fuzz_clus 0000000180014a60 f   c5_online_fuzz_clus.obj
 0001:00013a70       sf_opaque_init_subchart_simstructs 0000000180014a70 f   c5_online_fuzz_clus.obj
 0001:00013a90       initSimStructsc5_online_fuzz_clus 0000000180014a90 f   c5_online_fuzz_clus.obj
 0001:00013aa0       mdlRTW_c5_online_fuzz_clus 0000000180014aa0 f   c5_online_fuzz_clus.obj
 0001:00014b40       get_sim_state_c6_online_fuzz_clus 0000000180015b40 f   c6_online_fuzz_clus.obj
 0001:00014d30       sf_get_sim_state_info_c6_online_fuzz_clus 0000000180015d30 f   c6_online_fuzz_clus.obj
 0001:00014f10       set_sim_state_c6_online_fuzz_clus 0000000180015f10 f   c6_online_fuzz_clus.obj
 0001:00015050       c6_update_debugger_state_c6_online_fuzz_clus 0000000180016050 f   c6_online_fuzz_clus.obj
 0001:00015060       c6_emlrt_marshallIn        0000000180016060 f   c6_online_fuzz_clus.obj
 0001:000150d0       c6_b_emlrt_marshallIn      00000001800160d0 f   c6_online_fuzz_clus.obj
 0001:000151c0       c6_f_emlrt_marshallIn      00000001800161c0 f   c6_online_fuzz_clus.obj
 0001:00015220       c6_g_emlrt_marshallIn      0000000180016220 f   c6_online_fuzz_clus.obj
 0001:00015320       mdlProcessParameters_c6_online_fuzz_clus 0000000180016320 f   c6_online_fuzz_clus.obj
 0001:000153e0       initialize_params_c6_online_fuzz_clus 00000001800163e0 f   c6_online_fuzz_clus.obj
 0001:000154f0       mdlSetWorkWidths_c6_online_fuzz_clus 00000001800164f0 f   c6_online_fuzz_clus.obj
 0001:00015980       mdlStart_c6_online_fuzz_clus 0000000180016980 f   c6_online_fuzz_clus.obj
 0001:00015ba0       init_dsm_address_info      0000000180016ba0 f   c6_online_fuzz_clus.obj
 0001:00015bb0       chart_debug_initialization 0000000180016bb0 f   c6_online_fuzz_clus.obj
 0001:00016550       init_script_number_translation 0000000180017550 f   c6_online_fuzz_clus.obj
 0001:00016560       c6_sf_marshallOut          0000000180017560 f   c6_online_fuzz_clus.obj
 0001:000166c0       c6_sf_marshallIn           00000001800176c0 f   c6_online_fuzz_clus.obj
 0001:000167c0       c6_b_sf_marshallOut        00000001800177c0 f   c6_online_fuzz_clus.obj
 0001:000169d0       c6_b_sf_marshallIn         00000001800179d0 f   c6_online_fuzz_clus.obj
 0001:00016b30       c6_c_emlrt_marshallIn      0000000180017b30 f   c6_online_fuzz_clus.obj
 0001:00016c30       c6_c_sf_marshallOut        0000000180017c30 f   c6_online_fuzz_clus.obj
 0001:00016db0       sf_opaque_initialize_c6_online_fuzz_clus 0000000180017db0 f   c6_online_fuzz_clus.obj
 0001:00016df0       initialize_c6_online_fuzz_clus 0000000180017df0 f   c6_online_fuzz_clus.obj
 0001:00016e40       sf_opaque_enable_c6_online_fuzz_clus 0000000180017e40 f   c6_online_fuzz_clus.obj
 0001:00016e60       enable_c6_online_fuzz_clus 0000000180017e60 f   c6_online_fuzz_clus.obj
 0001:00016e90       sf_opaque_disable_c6_online_fuzz_clus 0000000180017e90 f   c6_online_fuzz_clus.obj
 0001:00016eb0       disable_c6_online_fuzz_clus 0000000180017eb0 f   c6_online_fuzz_clus.obj
 0001:00016ee0       sf_opaque_gateway_c6_online_fuzz_clus 0000000180017ee0 f   c6_online_fuzz_clus.obj
 0001:00016f00       sf_c6_online_fuzz_clus     0000000180017f00 f   c6_online_fuzz_clus.obj
 0001:000189e0       c6_d_sf_marshallOut        00000001800199e0 f   c6_online_fuzz_clus.obj
 0001:00018a90       c6_c_sf_marshallIn         0000000180019a90 f   c6_online_fuzz_clus.obj
 0001:00018b30       c6_d_emlrt_marshallIn      0000000180019b30 f   c6_online_fuzz_clus.obj
 0001:00018bc0       c6_power                   0000000180019bc0 f   c6_online_fuzz_clus.obj
 0001:00018c60       c6_eml_error               0000000180019c60 f   c6_online_fuzz_clus.obj
 0001:00018d80       sf_opaque_get_sim_state_c6_online_fuzz_clus 0000000180019d80 f   c6_online_fuzz_clus.obj
 0001:00018da0       sf_opaque_set_sim_state_c6_online_fuzz_clus 0000000180019da0 f   c6_online_fuzz_clus.obj
 0001:00018dd0       sf_opaque_terminate_c6_online_fuzz_clus 0000000180019dd0 f   c6_online_fuzz_clus.obj
 0001:00018e50       finalize_c6_online_fuzz_clus 0000000180019e50 f   c6_online_fuzz_clus.obj
 0001:00018e60       sf_opaque_init_subchart_simstructs 0000000180019e60 f   c6_online_fuzz_clus.obj
 0001:00018e80       initSimStructsc6_online_fuzz_clus 0000000180019e80 f   c6_online_fuzz_clus.obj
 0001:00018e90       mdlRTW_c6_online_fuzz_clus 0000000180019e90 f   c6_online_fuzz_clus.obj
 0001:0001a3c0       get_sim_state_c7_online_fuzz_clus 000000018001b3c0 f   c7_online_fuzz_clus.obj
 0001:0001a6d0       sf_get_sim_state_info_c7_online_fuzz_clus 000000018001b6d0 f   c7_online_fuzz_clus.obj
 0001:0001a8b0       set_sim_state_c7_online_fuzz_clus 000000018001b8b0 f   c7_online_fuzz_clus.obj
 0001:0001aa20       c7_update_debugger_state_c7_online_fuzz_clus 000000018001ba20 f   c7_online_fuzz_clus.obj
 0001:0001aa30       c7_emlrt_marshallIn        000000018001ba30 f   c7_online_fuzz_clus.obj
 0001:0001aaa0       c7_b_emlrt_marshallIn      000000018001baa0 f   c7_online_fuzz_clus.obj
 0001:0001ab30       c7_d_emlrt_marshallIn      000000018001bb30 f   c7_online_fuzz_clus.obj
 0001:0001ab90       c7_e_emlrt_marshallIn      000000018001bb90 f   c7_online_fuzz_clus.obj
 0001:0001ac90       mdlProcessParameters_c7_online_fuzz_clus 000000018001bc90 f   c7_online_fuzz_clus.obj
 0001:0001ad50       initialize_params_c7_online_fuzz_clus 000000018001bd50 f   c7_online_fuzz_clus.obj
 0001:0001ad60       mdlSetWorkWidths_c7_online_fuzz_clus 000000018001bd60 f   c7_online_fuzz_clus.obj
 0001:0001b130       mdlStart_c7_online_fuzz_clus 000000018001c130 f   c7_online_fuzz_clus.obj
 0001:0001b330       init_dsm_address_info      000000018001c330 f   c7_online_fuzz_clus.obj
 0001:0001b340       chart_debug_initialization 000000018001c340 f   c7_online_fuzz_clus.obj
 0001:0001c010       init_script_number_translation 000000018001d010 f   c7_online_fuzz_clus.obj
 0001:0001c020       c7_sf_marshallOut          000000018001d020 f   c7_online_fuzz_clus.obj
 0001:0001c0d0       c7_sf_marshallIn           000000018001d0d0 f   c7_online_fuzz_clus.obj
 0001:0001c170       c7_b_sf_marshallOut        000000018001d170 f   c7_online_fuzz_clus.obj
 0001:0001c2f0       sf_opaque_initialize_c7_online_fuzz_clus 000000018001d2f0 f   c7_online_fuzz_clus.obj
 0001:0001c330       initialize_c7_online_fuzz_clus 000000018001d330 f   c7_online_fuzz_clus.obj
 0001:0001c370       sf_opaque_enable_c7_online_fuzz_clus 000000018001d370 f   c7_online_fuzz_clus.obj
 0001:0001c390       enable_c7_online_fuzz_clus 000000018001d390 f   c7_online_fuzz_clus.obj
 0001:0001c3c0       sf_opaque_disable_c7_online_fuzz_clus 000000018001d3c0 f   c7_online_fuzz_clus.obj
 0001:0001c3e0       disable_c7_online_fuzz_clus 000000018001d3e0 f   c7_online_fuzz_clus.obj
 0001:0001c410       sf_opaque_gateway_c7_online_fuzz_clus 000000018001d410 f   c7_online_fuzz_clus.obj
 0001:0001c430       sf_c7_online_fuzz_clus     000000018001d430 f   c7_online_fuzz_clus.obj
 0001:0001d0e0       sf_opaque_get_sim_state_c7_online_fuzz_clus 000000018001e0e0 f   c7_online_fuzz_clus.obj
 0001:0001d100       sf_opaque_set_sim_state_c7_online_fuzz_clus 000000018001e100 f   c7_online_fuzz_clus.obj
 0001:0001d130       sf_opaque_terminate_c7_online_fuzz_clus 000000018001e130 f   c7_online_fuzz_clus.obj
 0001:0001d1b0       finalize_c7_online_fuzz_clus 000000018001e1b0 f   c7_online_fuzz_clus.obj
 0001:0001d1c0       sf_opaque_init_subchart_simstructs 000000018001e1c0 f   c7_online_fuzz_clus.obj
 0001:0001d1e0       initSimStructsc7_online_fuzz_clus 000000018001e1e0 f   c7_online_fuzz_clus.obj
 0001:0001d1f0       mdlRTW_c7_online_fuzz_clus 000000018001e1f0 f   c7_online_fuzz_clus.obj
 0001:0001ede0       _ssFatalError              000000018001fde0 f   online_fuzz_clus_sfun_registry.obj
 0001:00021e90       ProcessMexSfunctionCmdLineCall 0000000180022e90 f   online_fuzz_clus_sfun_registry.obj
 0001:00021f80       mdlGetTimeOfNextVarHit     0000000180022f80 f   online_fuzz_clus_sfun_registry.obj
 0001:00021fd0       _ProcessMexSfunctionCmdLineCall 0000000180022fd0 f   online_fuzz_clus_sfun_registry.obj
 0001:000226a0       _CreateSimStruct           00000001800236a0 f   online_fuzz_clus_sfun_registry.obj
 0001:00022830       _RegNumInputPortsCB        0000000180023830 f   online_fuzz_clus_sfun_registry.obj
 0001:000228b0       _RegNumOutputPortsCB       00000001800238b0 f   online_fuzz_clus_sfun_registry.obj
 0001:00022990       sf_machine_load_sfunction_ptrs 0000000180023990 f   online_fuzz_clus_sfun_registry.obj
 0001:00023550       SNPRINTF_WRAPPER           0000000180024550 f   sfc_mex:sfc_mex.obj
 0001:00023570       convert_dims_to_string     0000000180024570 f   sfc_mex:sfc_mex.obj
 0001:00023790       is_real_T_equal_to_double  0000000180024790 f   sfc_mex:sfc_mex.obj
 0001:000237b0       is_real32_T_equal_to_double 00000001800247b0 f   sfc_mex:sfc_mex.obj
 0001:000237c0       is_mxLogical_equal_to_double 00000001800247c0 f   sfc_mex:sfc_mex.obj
 0001:000237e0       is_int8_T_equal_to_double  00000001800247e0 f   sfc_mex:sfc_mex.obj
 0001:00023800       is_uint8_T_equal_to_double 0000000180024800 f   sfc_mex:sfc_mex.obj
 0001:00023820       is_int16_T_equal_to_double 0000000180024820 f   sfc_mex:sfc_mex.obj
 0001:00023840       is_uint16_T_equal_to_double 0000000180024840 f   sfc_mex:sfc_mex.obj
 0001:00023860       is_int32_T_equal_to_double 0000000180024860 f   sfc_mex:sfc_mex.obj
 0001:00023880       is_uint32_T_equal_to_double 0000000180024880 f   sfc_mex:sfc_mex.obj
 0001:000238a0       is_char_T_equal_to_double  00000001800248a0 f   sfc_mex:sfc_mex.obj
 0001:000238c0       sf_zero_numeric_value      00000001800248c0 f   sfc_mex:sfc_mex.obj
 0001:000238f0       sf_error_append_debugger_context_if_available 00000001800248f0 f   sfc_mex:sfc_mex.obj
 0001:000239a0       sf_mex_get_error_message_for_write 00000001800249a0 f   sfc_mex:sfc_mex.obj
 0001:000239d0       replace_single_quotes_by_doubled_quotes 00000001800249d0 f   sfc_mex:sfc_mex.obj
 0001:00023c10       sf_mex_get_formatted_error_string 0000000180024c10 f   sfc_mex:sfc_mex.obj
 0001:00024030       sf_mex_destroy_array       0000000180025030 f   sfc_mex:sfc_mex.obj
 0001:00024320       sfrtAddSize                0000000180025320 f   sfc_mex:sfc_mex.obj
 0001:000243e0       sfrtGenSizeString          00000001800253e0 f   sfc_mex:sfc_mex.obj
 0001:00024450       sfIsProperVector           0000000180025450 f   sfc_mex:sfc_mex.obj
 0001:00024480       sfIsRowVector              0000000180025480 f   sfc_mex:sfc_mex.obj
 0001:000245b0       sf_ExtractMessageId        00000001800255b0 f   sfc_mex:sfc_mex.obj
 0001:00024880       sf_mex_err                 0000000180025880 f   sfc_mex:sfc_mex.obj
 0001:00024930       sf_error_dimension_out_of_bound 0000000180025930 f   sfc_mex:sfc_mex.obj
 0001:000249f0       sf_mex_check_and_set_actual_dimensions 00000001800259f0 f   sfc_mex:sfc_mex.obj
 0001:00024c20       sf_mex_check_complex       0000000180025c20 f   sfc_mex:sfc_mex.obj
 0001:00024cb0       sf_mex_check_sparse        0000000180025cb0 f   sfc_mex:sfc_mex.obj
 0001:00024d10       sf_mex_check_numerictype   0000000180025d10 f   sfc_mex:sfc_mex.obj
 0001:00024ea0       sf_mex_check_fimath        0000000180025ea0 f   sfc_mex:sfc_mex.obj
 0001:000259a0       size_mismatch_error        00000001800269a0 f   sfc_mex:sfc_mex.obj
 0001:000263e0       check_array_dimensions     00000001800273e0 f   sfc_mex:sfc_mex.obj
 0001:00026450       check_input_mxarray        0000000180027450 f   sfc_mex:sfc_mex.obj
 0001:00026b90       sf_numeric_value_to_double 0000000180027b90 f   sfc_mex:sfc_mex.obj
 0001:00026be0       ml_generic_out_of_bounds_check 0000000180027be0 f   sfc_mex:sfc_mex.obj
 0001:00026db0       ml_get_element_value_from_array 0000000180027db0 f   sfc_mex:sfc_mex.obj
 0001:00027150       _ml_generic_castability_check 0000000180028150 f   sfc_mex:sfc_mex.obj
 0001:00027eb0       ml_generic_castability_check 0000000180028eb0 f   sfc_mex:sfc_mex.obj
 0001:00027f50       ml_check_mx_array_for_single_castability 0000000180028f50 f   sfc_mex:sfc_mex.obj
 0001:00027ff0       ml_check_mx_array_for_logical_castability 0000000180028ff0 f   sfc_mex:sfc_mex.obj
 0001:00028090       ml_check_mx_array_for_int8_castability 0000000180029090 f   sfc_mex:sfc_mex.obj
 0001:00028140       ml_check_mx_array_for_uint8_castability 0000000180029140 f   sfc_mex:sfc_mex.obj
 0001:000281a0       ml_check_mx_array_for_int16_castability 00000001800291a0 f   sfc_mex:sfc_mex.obj
 0001:00028200       ml_check_mx_array_for_uint16_castability 0000000180029200 f   sfc_mex:sfc_mex.obj
 0001:00028260       ml_check_mx_array_for_int32_castability 0000000180029260 f   sfc_mex:sfc_mex.obj
 0001:000282c0       ml_check_mx_array_for_uint32_castability 00000001800292c0 f   sfc_mex:sfc_mex.obj
 0001:00028320       ml_check_mx_array_for_castability 0000000180029320 f   sfc_mex:sfc_mex.obj
 0001:00028c50       set_data_value             0000000180029c50 f   sfc_mex:sfc_mex.obj
 0001:00028fc0       get_data_value             0000000180029fc0 f   sfc_mex:sfc_mex.obj
 0001:000290d0       get_next_element_address   000000018002a0d0 f   sfc_mex:sfc_mex.obj
 0001:000291a0       sf_normalize_index         000000018002a1a0 f   sfc_mex:sfc_mex.obj
 0001:00029530       ml_array_index_bound_check 000000018002a530 f   sfc_mex:sfc_mex.obj
 0001:0002a050       mx_value                   000000018002b050 f   sfc_mex:sfc_mex.obj
 0001:0002a0a0       sf_create_numeric_array    000000018002b0a0 f   sfc_mex:sfc_mex.obj
 0001:0002a140       sf_mex_assign_to_mx_array  000000018002b140 f   sfc_mex:sfc_mex.obj
 0001:0002a490       assign_from_mx_array       000000018002b490 f   sfc_mex:sfc_mex.obj
 0001:0002acc0       sf_mex_import_v            000000018002bcc0 f   sfc_mex:sfc_mex.obj
 0001:0002b290       get_machine_and_chart_file_number 000000018002c290 f   sfc_mex:sfc_sf.obj
 0001:0002b380       get_sfun_block_specialization 000000018002c380 f   sfc_mex:sfc_sf.obj
 0001:0002b400       call_sf_machine_global_method_dispatcher 000000018002c400 f   sfc_mex:sfc_sf.obj
 0001:0002b630       mdl_zeroCrossings_processing 000000018002c630 f   sfc_mex:sfc_sf.obj
 0001:0002b700       mdl_derivatives_processing 000000018002c700 f   sfc_mex:sfc_sf.obj
 0001:0002b9c0       mdl_outputs_continuous_legacy 000000018002c9c0 f   sfc_mex:sfc_sf.obj
 0001:0002ba40       mdl_outputs_processing     000000018002ca40 f   sfc_mex:sfc_sf.obj
 0001:0002bc70       mdl_enable_processing      000000018002cc70 f   sfc_mex:sfc_sf.obj
 0001:0002bd40       mdl_disable_processing     000000018002cd40 f   sfc_mex:sfc_sf.obj
 0001:0002c690       write_symbol_mapping       000000018002d690 f   sfc_mex:sfc_sf.obj
 0001:0002cdb0       sf_call_output_fcn_enable_disable 000000018002ddb0 f   sfc_mex:sfc_sf.obj
 0001:0002d030       set_dwork_information_from_mx_array 000000018002e030 f   sfc_mex:sfc_sf.obj
 0001:0002d920       ptr2mxStruct               000000018002e920 f   sfc_mex:sfc_sf.obj
 0001:0002dc30       SNPRINTF_WRAPPER           000000018002ec30 f   sfc_debug:sfcdebug.obj
 0001:0002dc50       sf_debug_chart_instance_initialized_quick 000000018002ec50 f   sfc_debug:sfcdebug.obj
 0001:0002dc60       sf_debug_chart_instance_initialized 000000018002ec60 f   sfc_debug:sfcdebug.obj
 0001:0002de00       sfrtAddSize                000000018002ee00 f   sfc_debug:sfcdebug.obj
 0001:0002dec0       sfrtGenSizeString          000000018002eec0 f   sfc_debug:sfcdebug.obj
 0001:0002e5d0       sf_debug_sim_status_listener 000000018002f5d0 f   sfc_debug:sfcdebug.obj
 0001:0002eb40       sf_debug_form_mask_bits    000000018002fb40 f   sfc_debug:sfcdebug.obj
 0001:0002eb80       sf_debug_form_sf_data_type_offsets 000000018002fb80 f   sfc_debug:sfcdebug.obj
 0001:0002ec40       sf_debug_free_all          000000018002fc40 f   sfc_debug:sfcdebug.obj
 0001:0002edc0       sf_debug_append_debugger_context 000000018002fdc0 f   sfc_debug:sfcdebug.obj
 0001:0002f080       local_strdup               0000000180030080 f   sfc_debug:sfcdebug.obj
 0001:0002ff60       sf_debug_em_terminate      0000000180030f60 f   sfc_debug:sfcdebug.obj
 0001:0002ffa0       sf_debug_push_eml_function 0000000180030fa0 f   sfc_debug:sfcdebug.obj
 0001:00030040       sf_debug_pop_eml_function  0000000180031040 f   sfc_debug:sfcdebug.obj
 0001:00030d40       sf_debug_get_machine_number_from_id_or_name 0000000180031d40 f   sfc_debug:sfcdebug.obj
 0001:00030e90       sf_debug_get_chart_number_from_id 0000000180031e90 f   sfc_debug:sfcdebug.obj
 0001:00031b00       sf_debug_transfer_control_to_debugger_GUI 0000000180032b00 f   sfc_debug:sfcdebug.obj
 0001:00032aa0       sf_debug_scripts_rehash    0000000180033aa0 f   sfc_debug:sfcdebug.obj
 0001:00032ce0       sf_debug_get_script_line_count 0000000180033ce0 f   sfc_debug:sfcdebug.obj
 0001:000333f0       cv_eml_state_cvId          00000001800343f0 f   sfc_debug:sfcdebug.obj
 0001:00034610       sf_debug_data_array_bounds_error 0000000180035610 f   sfc_debug:sfcdebug.obj
 0001:00034a40       eml_debug_runtime_error_doclink 0000000180035a40 f   sfc_debug:sfcdebug.obj
 0001:00034bc0       sf_debug_runtime_error     0000000180035bc0 f   sfc_debug:sfcdebug.obj
 0001:00034c30       sf_debug_matlab_error      0000000180035c30 f   sfc_debug:sfcdebug.obj
 0001:000354e0       sf_debug_data_value_error  00000001800364e0 f   sfc_debug:sfcdebug.obj
 0001:00035de0       sf_debug_data_loss_error   0000000180036de0 f   sfc_debug:sfcdebug.obj
 0001:00036a40       call_cv_range_check        0000000180037a40 f   sfc_debug:sfcdebug.obj
 0001:00037210       sf_debug_invoke_cycle_detection_code 0000000180038210 f   sfc_debug:sfcdebug.obj
 0001:00038080       sf_reset_debug_info_struct 0000000180039080 f   sfc_debug:sfcdebug.obj
 0001:00038970       cv_script_cvId             0000000180039970 f   sfc_debug:sfcdebug.obj
 0001:00039760       sfc_api_chart_visible      000000018003a760 f   sfc_debug:sfc_api.obj
 0001:000397e0       sfc_api_active_instance    000000018003a7e0 f   sfc_debug:sfc_api.obj
 0001:00039860       sfc_api_machine_load       000000018003a860 f   sfc_debug:sfc_api.obj
 0001:00039930       sfc_api_debugger_alive     000000018003a930 f   sfc_debug:sfc_api.obj
 0001:00039940       sfc_api_go                 000000018003a940 f   sfc_debug:sfc_api.obj
 0001:00039950       sfc_api_step_over          000000018003a950 f   sfc_debug:sfc_api.obj
 0001:00039960       sfc_api_step_out           000000018003a960 f   sfc_debug:sfc_api.obj
 0001:00039970       sfc_api_resume             000000018003a970 f   sfc_debug:sfc_api.obj
 0001:00039980       sfc_api_break              000000018003a980 f   sfc_debug:sfc_api.obj
 0001:00039990       sfc_api_stop_debugging     000000018003a990 f   sfc_debug:sfc_api.obj
 0001:000399e0       sfc_api_is_cycle_detected  000000018003a9e0 f   sfc_debug:sfc_api.obj
 0001:00039a30       sfc_api_is_array_bounds_detected 000000018003aa30 f   sfc_debug:sfc_api.obj
 0001:00039a80       sfc_api_set_disable_all_breakpoints 000000018003aa80 f   sfc_debug:sfc_api.obj
 0001:00039af0       sfc_api_disable_all_breakpoints_and_go 000000018003aaf0 f   sfc_debug:sfc_api.obj
 0001:00039b00       sfc_api_close              000000018003ab00 f   sfc_debug:sfc_api.obj
 0001:00039b10       sfc_api_browse_data        000000018003ab10 f   sfc_debug:sfc_api.obj
 0001:00039b80       sfc_api_watch_data         000000018003ab80 f   sfc_debug:sfc_api.obj
 0001:00039c20       sfc_api_assign_data        000000018003ac20 f   sfc_debug:sfc_api.obj
 0001:00039cc0       sfc_api_whos               000000018003acc0 f   sfc_debug:sfc_api.obj
 0001:00039d50       sfc_api_get_consistency_info 000000018003ad50 f   sfc_debug:sfc_api.obj
 0001:00039d60       sfc_api_browse_trace       000000018003ad60 f   sfc_debug:sfc_api.obj
 0001:00039d70       sfc_api_break_on_chart_entry 000000018003ad70 f   sfc_debug:sfc_api.obj
 0001:00039d90       sfc_api_break_on_event_broadcast 000000018003ad90 f   sfc_debug:sfc_api.obj
 0001:00039db0       sfc_api_break_on_state_entry 000000018003adb0 f   sfc_debug:sfc_api.obj
 0001:00039dd0       sfc_api_set_watch          000000018003add0 f   sfc_debug:sfc_api.obj
 0001:00039e70       sfc_api_set_breakpoints    000000018003ae70 f   sfc_debug:sfc_api.obj
 0001:00039f10       sfc_api_set_eml_breakpoints 000000018003af10 f   sfc_debug:sfc_api.obj
 0001:00039f90       sfc_api_set_script_breakpoints 000000018003af90 f   sfc_debug:sfc_api.obj
 0001:00039fe0       sfc_api_add_script_breakpoints 000000018003afe0 f   sfc_debug:sfc_api.obj
 0001:0003a030       sfc_api_clear_script_breakpoints 000000018003b030 f   sfc_debug:sfc_api.obj
 0001:0003a080       sfc_api_query_script_breakpoints 000000018003b080 f   sfc_debug:sfc_api.obj
 0001:0003a0e0       sfc_api_get_script_id      000000018003b0e0 f   sfc_debug:sfc_api.obj
 0001:0003a1a0       sfc_api_get_active_states  000000018003b1a0 f   sfc_debug:sfc_api.obj
 0001:0003a220       sfc_api_break_between_times 000000018003b220 f   sfc_debug:sfc_api.obj
 0001:0003a280       sfc_api_get_instance_handle 000000018003b280 f   sfc_debug:sfc_api.obj
 0001:0003a330       sfc_api_get_coverage       000000018003b330 f   sfc_debug:sfc_api.obj
 0001:0003a3b0       sfc_api_set_animation      000000018003b3b0 f   sfc_debug:sfc_api.obj
 0001:0003a400       sfc_api_select_chart       000000018003b400 f   sfc_debug:sfc_api.obj
 0001:0003a460       sfc_api_select_charts      000000018003b460 f   sfc_debug:sfc_api.obj
 0001:0003a490       sfc_api_cycle_detection_check 000000018003b490 f   sfc_debug:sfc_api.obj
 0001:0003a4e0       sfc_api_data_range_check   000000018003b4e0 f   sfc_debug:sfc_api.obj
 0001:0003a530       sfc_api_transition_conflict_check 000000018003b530 f   sfc_debug:sfc_api.obj
 0001:0003a580       sfc_api_state_consistency_check 000000018003b580 f   sfc_debug:sfc_api.obj
 0001:0003a5d0       sfc_api_set_instance_cv_ids 000000018003b5d0 f   sfc_debug:sfc_api.obj
 0001:0003a6e0       sfc_api_set_script_cv_ids  000000018003b6e0 f   sfc_debug:sfc_api.obj
 0001:0003a780       sfc_api_get_current_machine_id 000000018003b780 f   sfc_debug:sfc_api.obj
 0001:0003a7b0       sfc_api_get_current_machine_number 000000018003b7b0 f   sfc_debug:sfc_api.obj
 0001:0003a7e0       sfc_api_get_current_chart_number 000000018003b7e0 f   sfc_debug:sfc_api.obj
 0001:0003a810       sfc_api_get_current_instance_number 000000018003b810 f   sfc_debug:sfc_api.obj
 0001:0003a840       sfc_api_get_current_instance_handle 000000018003b840 f   sfc_debug:sfc_api.obj
 0001:0003a860       sfc_api_get_current_is_minor_time_step 000000018003b860 f   sfc_debug:sfc_api.obj
 0001:0003a890       sfc_api_get_current_machine_name 000000018003b890 f   sfc_debug:sfc_api.obj
 0001:0003a8b0       sfc_api_get_current_chart_id 000000018003b8b0 f   sfc_debug:sfc_api.obj
 0001:0003a8e0       sfc_api_get_current_object_type 000000018003b8e0 f   sfc_debug:sfc_api.obj
 0001:0003a910       sfc_api_get_current_event_type 000000018003b910 f   sfc_debug:sfc_api.obj
 0001:0003a940       sfc_api_get_current_object_id 000000018003b940 f   sfc_debug:sfc_api.obj
 0001:0003a970       sfc_get_current_active_event_type 000000018003b970 f   sfc_debug:sfc_api.obj
 0001:0003a9a0       sfc_api_get_current_active_event_id 000000018003b9a0 f   sfc_debug:sfc_api.obj
 0001:0003a9d0       sfc_api_get_current_simulation_time 000000018003b9d0 f   sfc_debug:sfc_api.obj
 0001:0003a9f0       sfc_get_current_tag_type   000000018003b9f0 f   sfc_debug:sfc_api.obj
 0001:0003aa20       sfc_get_current_coverage_percentage 000000018003ba20 f   sfc_debug:sfc_api.obj
 0001:0003aa40       sfc_get_current_statement_context 000000018003ba40 f   sfc_debug:sfc_api.obj
 0001:0003aa60       sfc_get_current_optional_integer 000000018003ba60 f   sfc_debug:sfc_api.obj
 0001:0003aa90       sfc_get_current_statement_info 000000018003ba90 f   sfc_debug:sfc_api.obj
 0001:0003ab30       sfc_api_get                000000018003bb30 f   sfc_debug:sfc_api.obj
 0001:0003ac90       sf_debug_sm_is_using_unified_editors 000000018003bc90 f   sfc_debug:sfdb_animation.obj
 0001:0003ad30       sf_debug_sm_is_chart_visible_in_unified_editors 000000018003bd30 f   sfc_debug:sfdb_animation.obj
 0001:0003adf0       sf_debug_sm_check_if_chart_is_visible 000000018003bdf0 f   sfc_debug:sfdb_animation.obj
 0001:0003b8f0       sf_debug_sm_fill_state_activity_data 000000018003c8f0 f   sfc_debug:sfdb_animation.obj
 0001:0003dee0       sf_debug_hm_get_simulink_handle 000000018003eee0 f   sfc_debug:sfdb_handle_management.obj
 0001:0003ea30       sf_debug_hm_initialize_globals 000000018003fa30 f   sfc_debug:sfdb_handle_management.obj
 0001:0003eb30       sf_debug_hm_get_machine_debug_flag 000000018003fb30 f   sfc_debug:sfdb_handle_management.obj
 0001:0003eca0       sf_debug_hm_get_machine_id 000000018003fca0 f   sfc_debug:sfdb_handle_management.obj
 0001:0003edc0       sf_debug_hm_get_chart_id   000000018003fdc0 f   sfc_debug:sfdb_handle_management.obj
 0001:0003ef60       sf_debug_hm_register_executing_SFunction 000000018003ff60 f   sfc_debug:sfdb_handle_management.obj
 0001:0003f100       sf_debug_hm_get_chart_active_instance 0000000180040100 f   sfc_debug:sfdb_handle_management.obj
 0001:0003f270       sf_debug_hm_get_chart_visibility 0000000180040270 f   sfc_debug:sfdb_handle_management.obj
 0001:0003f3c0       sf_debug_hm_form_object_boolean_properties 00000001800403c0 f   sfc_debug:sfdb_handle_management.obj
 0001:0003f690       sf_debug_hm_form_object_properties 0000000180040690 f   sfc_debug:sfdb_handle_management.obj
 0001:0003f8d0       sf_debug_hm_terminate_charts 00000001800408d0 f   sfc_debug:sfdb_handle_management.obj
 0001:00040040       sf_debug_hm_terminate_machines 0000000180041040 f   sfc_debug:sfdb_handle_management.obj
 0001:00041960       void_ptr_stack_vector_free_total 0000000180042960 f   sfc_debug:sfdb_data_browse.obj
 0001:000419f0       sf_debug_st_terminate_machine 00000001800429f0 f   sfc_debug:sfdb_data_browse.obj
 0001:00041a30       sf_debug_st_terminate_instance 0000000180042a30 f   sfc_debug:sfdb_data_browse.obj
 0001:00041de0       push_on_to_void_ptr_stack  0000000180042de0 f   sfc_debug:sfdb_data_browse.obj
 0001:00041f70       pop_from_void_ptr_stack    0000000180042f70 f   sfc_debug:sfdb_data_browse.obj
 0001:000420a0       sf_debug_st_get_data_value 00000001800430a0 f   sfc_debug:sfdb_data_browse.obj
 0001:00042630       mx_value                   0000000180043630 f   sfc_debug:sfdb_data_browse.obj
 0001:00042670       sf_debug_st_fill_data_struct 0000000180043670 f   sfc_debug:sfdb_data_browse.obj
 0001:000429b0       data_type_format_strings   00000001800439b0 f   sfc_debug:sfdb_data_browse.obj
 0001:00042a60       sf_debug_st_fill_data      0000000180043a60 f   sfc_debug:sfdb_data_browse.obj
 0001:00043ca0       sf_debug_ss_copy_dimension 0000000180044ca0 f   sfc_debug:sfdb_symbol_scope.obj
 0001:00043d60       sf_debug_ss_get_number_elements 0000000180044d60 f   sfc_debug:sfdb_symbol_scope.obj
 0001:00043d80       sf_debug_ss_fill_data_struct 0000000180044d80 f   sfc_debug:sfdb_symbol_scope.obj
 0001:000440d0       sf_debug_ss_reset_data_info 00000001800450d0 f   sfc_debug:sfdb_symbol_scope.obj
 0001:00044130       sf_debug_fill_data_info_by_symbol_scope_entry 0000000180045130 f   sfc_debug:sfdb_symbol_scope.obj
 0001:000441f0       sf_debug_fill_data_info_by_data_vector 00000001800451f0 f   sfc_debug:sfdb_symbol_scope.obj
 0001:00044440       sf_debug_ss_get_data_info  0000000180045440 f   sfc_debug:sfdb_symbol_scope.obj
 0001:00044730       sf_debug_select_mex_function 0000000180045730 f   sfc_debug:sfdb_symbol_scope.obj
 0001:00044760       sf_debug_is_dyn_matrix_initialized 0000000180045760 f   sfc_debug:sfdb_symbol_scope.obj
 0001:00044780       sf_debug_ss_set_data_value_try 0000000180045780 f   sfc_debug:sfdb_symbol_scope.obj
 0001:00044950       sf_debug_ss_get_data_value 0000000180045950 f   sfc_debug:sfdb_symbol_scope.obj
 0001:00044ea0       sf_debug_ss_data_bytes_string 0000000180045ea0 f   sfc_debug:sfdb_symbol_scope.obj
 0001:00044f50       sf_debug_ss_data_class_string 0000000180045f50 f   sfc_debug:sfdb_symbol_scope.obj
 0001:000452e0       sf_debug_ss_data_size_string 00000001800462e0 f   sfc_debug:sfdb_symbol_scope.obj
 0001:000453c0       sf_debug_ss_data_create_data_info_struct 00000001800463c0 f   sfc_debug:sfdb_symbol_scope.obj
 0001:00045690       sf_debug_ss_data_create_name_value_pair 0000000180046690 f   sfc_debug:sfdb_symbol_scope.obj
 0001:00045730       sf_debug_ss_data_get_whos_info 0000000180046730 f   sfc_debug:sfdb_symbol_scope.obj
 0001:00045740       same_named_data_in_data_array 0000000180046740 f   sfc_debug:sfdb_symbol_scope.obj
 0001:00046fb0       sf_debug_cc_terminate_chart 0000000180047fb0 f   sfc_debug:sfdb_coverage.obj
 0001:00047350       sf_debug_cc_terminate_instance 0000000180048350 f   sfc_debug:sfdb_coverage.obj
 0001:00047f40       sf_debug_cc_mark_object_if_needed 0000000180048f40 f   sfc_debug:sfdb_coverage.obj
 0001:00048300       sf_debug_cc_fill_transition_coverage_data 0000000180049300 f   sfc_debug:sfdb_coverage.obj
 0001:00048490       sf_debug_cc_fill_transition_coverage_map 0000000180049490 f   sfc_debug:sfdb_coverage.obj
 0001:00048740       sf_debug_cc_fill_state_coverage_map 0000000180049740 f   sfc_debug:sfdb_coverage.obj
 0001:00048990       sf_debug_cc_fill_state_coverage_data 0000000180049990 f   sfc_debug:sfdb_coverage.obj
 0001:000495d0       sf_debug_bm_initialize_eml 000000018004a5d0 f   sfc_debug:sfdb_breakpoints.obj
 0001:0004a740       sf_debug_bm_map_debug_tag_to_breakpoint_tag 000000018004b740 f   sfc_debug:sfdb_breakpoints.obj
 0001:0004a820       sf_debug_bm_is_a_eml_breakpoint_impl 000000018004b820 f   sfc_debug:sfdb_breakpoints.obj
 0001:0004c2a0       sf_debug_sc_push_on_error_stack 000000018004d2a0 f   sfc_debug:sfdb_state_consistency.obj
 0001:0004c3d0       sf_debug_sc_reset_error_stack 000000018004d3d0 f   sfc_debug:sfdb_state_consistency.obj
 0001:0004c560       sf_debug_sc_is_state_inconsistent 000000018004d560 f   sfc_debug:sfdb_state_consistency.obj
 0001:0004c860       sf_debug_sc_fill_consistency_info 000000018004d860 f   sfc_debug:sfdb_state_consistency.obj
 0001:0004ce40       void_assertion_fcn         000000018004de40 f   sfc_debug:sfdb_call_stack.obj
 0001:0004d3c0       sf_debug_tm_fill_local_trace 000000018004e3c0 f   sfc_debug:sfdb_call_stack.obj
 0001:0004d990       sf_debug_cd_terminate_instance 000000018004e990 f   sfc_debug:sfdb_cycle_detection.obj
 0001:0004d9f0       sf_debug_cd_free_checksum_stack 000000018004e9f0 f   sfc_debug:sfdb_cycle_detection.obj
 0001:0004da40       sf_debug_cd_reset_pack_strings 000000018004ea40 f   sfc_debug:sfdb_cycle_detection.obj
 0001:0004e100       md5file_clear              000000018004f100 f   sfc_debug:ckmd5.obj
 0001:0004e130       Encode                     000000018004f130 f   sfc_debug:ckmd5.obj
 0001:0004e180       Decode                     000000018004f180 f   sfc_debug:ckmd5.obj
 0001:0004e220       MD5Transform               000000018004f220 f   sfc_debug:ckmd5.obj
 0001:0004ea70       md5file_addn               000000018004fa70 f   sfc_debug:ckmd5.obj
 0001:0004eb40       md5file_hash               000000018004fb40 f   sfc_debug:ckmd5.obj
 0001:0004f068       pre_c_init                 0000000180050068 f   MSVCRT:crtdll.obj
 0001:0004f324       __DllMainCRTStartup        0000000180050324 f   MSVCRT:crtdll.obj
 0001:0004f9c0       __DllMainCRTStartup$filt$0 00000001800509c0 f   MSVCRT:crtdll.obj
 0001:0004f9f0       __DllMainCRTStartup$fin$1  00000001800509f0 f   MSVCRT:crtdll.obj
 0001:0004fa0a       _onexit$fin$0              0000000180050a0a f   MSVCRT:atonexit.obj
 0001:0004fa30       _IsNonwritableInCurrentImage$filt$0 0000000180050a30 f   MSVCRT:pesect.obj
