 hyd_hyb_2_opt_cont_test_new_sfun

 Timestamp is 4fe3ec3a (Fri Jun 22 08:23:30 2012)

 Preferred load address is 0000000180000000

 Start         Length     Name                   Class
 0001:00000000 000cdea4H .text                   CODE
 0001:000cdeb0 00000092H .text$x                 CODE
 0002:00000000 00000470H .idata$5                DATA
 0002:00000470 00000008H .CRT$XCA                DATA
 0002:00000478 00000008H .CRT$XCZ                DATA
 0002:00000480 00000008H .CRT$XIA                DATA
 0002:00000488 00000008H .CRT$XIAA               DATA
 0002:00000490 00000008H .CRT$XIZ                DATA
 0002:000004a0 00004d9cH .rdata                  DATA
 0002:00005240 00000008H .rtc$IAA                DATA
 0002:00005248 00000008H .rtc$IZZ                DATA
 0002:00005250 00000008H .rtc$TAA                DATA
 0002:00005258 00000008H .rtc$TZZ                DATA
 0002:00005260 00006f04H .xdata                  DATA
 0002:0000c164 000000a0H .idata$2                DATA
 0002:0000c204 00000014H .idata$3                DATA
 0002:0000c218 00000470H .idata$4                DATA
 0002:0000c688 00000a26H .idata$6                DATA
 0002:0000d0b0 00000066H .edata                  DATA
 0003:00000000 00019ec8H .data                   DATA
 0003:00019ee0 00002698H .bss                    DATA
 0004:00000000 00007314H .pdata                  DATA

  Address         Publics by Value              Rva+Base               Lib:Object

 0000:00000000       ___safe_se_handler_table   0000000000000000     <absolute>
 0000:00000000       ___safe_se_handler_count   0000000000000000     <absolute>
 0000:00000000       __ImageBase                0000000180000000     <linker-defined>
 0001:00000000       sf_c1_hyd_hyb_2_opt_cont_test_new_get_eml_resolved_functions_info 0000000180001000 f   c1_hyd_hyb_2_opt_cont_test_new.obj
 0001:00000080       sf_c1_hyd_hyb_2_opt_cont_test_new_get_check_sum 0000000180001080 f   c1_hyd_hyb_2_opt_cont_test_new.obj
 0001:00000100       sf_c1_hyd_hyb_2_opt_cont_test_new_get_autoinheritance_info 0000000180001100 f   c1_hyd_hyb_2_opt_cont_test_new.obj
 0001:000006d0       sf_internal_get_sim_state_c1_hyd_hyb_2_opt_cont_test_new 00000001800016d0 f   c1_hyd_hyb_2_opt_cont_test_new.obj
 0001:00000be0       sf_internal_set_sim_state_c1_hyd_hyb_2_opt_cont_test_new 0000000180001be0 f   c1_hyd_hyb_2_opt_cont_test_new.obj
 0001:00001540       c1_hyd_hyb_2_opt_cont_test_new_method_dispatcher 0000000180002540 f   c1_hyd_hyb_2_opt_cont_test_new.obj
 0001:00003f10       sf_c2_hyd_hyb_2_opt_cont_test_new_get_eml_resolved_functions_info 0000000180004f10 f   c2_hyd_hyb_2_opt_cont_test_new.obj
 0001:00003f90       sf_c2_hyd_hyb_2_opt_cont_test_new_get_check_sum 0000000180004f90 f   c2_hyd_hyb_2_opt_cont_test_new.obj
 0001:00004010       sf_c2_hyd_hyb_2_opt_cont_test_new_get_autoinheritance_info 0000000180005010 f   c2_hyd_hyb_2_opt_cont_test_new.obj
 0001:000051e0       sf_internal_get_sim_state_c2_hyd_hyb_2_opt_cont_test_new 00000001800061e0 f   c2_hyd_hyb_2_opt_cont_test_new.obj
 0001:00005710       sf_internal_set_sim_state_c2_hyd_hyb_2_opt_cont_test_new 0000000180006710 f   c2_hyd_hyb_2_opt_cont_test_new.obj
 0001:00006390       c2_hyd_hyb_2_opt_cont_test_new_method_dispatcher 0000000180007390 f   c2_hyd_hyb_2_opt_cont_test_new.obj
 0001:0000d970       sf_c3_hyd_hyb_2_opt_cont_test_new_get_eml_resolved_functions_info 000000018000e970 f   c3_hyd_hyb_2_opt_cont_test_new.obj
 0001:0000d9f0       sf_c3_hyd_hyb_2_opt_cont_test_new_get_check_sum 000000018000e9f0 f   c3_hyd_hyb_2_opt_cont_test_new.obj
 0001:0000da70       sf_c3_hyd_hyb_2_opt_cont_test_new_get_autoinheritance_info 000000018000ea70 f   c3_hyd_hyb_2_opt_cont_test_new.obj
 0001:0000e040       sf_internal_get_sim_state_c3_hyd_hyb_2_opt_cont_test_new 000000018000f040 f   c3_hyd_hyb_2_opt_cont_test_new.obj
 0001:0000e380       sf_internal_set_sim_state_c3_hyd_hyb_2_opt_cont_test_new 000000018000f380 f   c3_hyd_hyb_2_opt_cont_test_new.obj
 0001:0000e770       c3_hyd_hyb_2_opt_cont_test_new_method_dispatcher 000000018000f770 f   c3_hyd_hyb_2_opt_cont_test_new.obj
 0001:000109c0       sf_c4_hyd_hyb_2_opt_cont_test_new_get_eml_resolved_functions_info 00000001800119c0 f   c4_hyd_hyb_2_opt_cont_test_new.obj
 0001:00010a40       sf_c4_hyd_hyb_2_opt_cont_test_new_get_check_sum 0000000180011a40 f   c4_hyd_hyb_2_opt_cont_test_new.obj
 0001:00010ac0       sf_c4_hyd_hyb_2_opt_cont_test_new_get_autoinheritance_info 0000000180011ac0 f   c4_hyd_hyb_2_opt_cont_test_new.obj
 0001:00011090       sf_internal_get_sim_state_c4_hyd_hyb_2_opt_cont_test_new 0000000180012090 f   c4_hyd_hyb_2_opt_cont_test_new.obj
 0001:00011460       sf_internal_set_sim_state_c4_hyd_hyb_2_opt_cont_test_new 0000000180012460 f   c4_hyd_hyb_2_opt_cont_test_new.obj
 0001:00011c70       c4_hyd_hyb_2_opt_cont_test_new_method_dispatcher 0000000180012c70 f   c4_hyd_hyb_2_opt_cont_test_new.obj
 0001:00014290       sf_c5_hyd_hyb_2_opt_cont_test_new_get_eml_resolved_functions_info 0000000180015290 f   c5_hyd_hyb_2_opt_cont_test_new.obj
 0001:00014310       sf_c5_hyd_hyb_2_opt_cont_test_new_get_check_sum 0000000180015310 f   c5_hyd_hyb_2_opt_cont_test_new.obj
 0001:00014390       sf_c5_hyd_hyb_2_opt_cont_test_new_get_autoinheritance_info 0000000180015390 f   c5_hyd_hyb_2_opt_cont_test_new.obj
 0001:00014960       sf_internal_get_sim_state_c5_hyd_hyb_2_opt_cont_test_new 0000000180015960 f   c5_hyd_hyb_2_opt_cont_test_new.obj
 0001:00014ca0       sf_internal_set_sim_state_c5_hyd_hyb_2_opt_cont_test_new 0000000180015ca0 f   c5_hyd_hyb_2_opt_cont_test_new.obj
 0001:00015090       c5_hyd_hyb_2_opt_cont_test_new_method_dispatcher 0000000180016090 f   c5_hyd_hyb_2_opt_cont_test_new.obj
 0001:00017310       sf_c6_hyd_hyb_2_opt_cont_test_new_get_eml_resolved_functions_info 0000000180018310 f   c6_hyd_hyb_2_opt_cont_test_new.obj
 0001:00017390       sf_c6_hyd_hyb_2_opt_cont_test_new_get_check_sum 0000000180018390 f   c6_hyd_hyb_2_opt_cont_test_new.obj
 0001:00017410       sf_c6_hyd_hyb_2_opt_cont_test_new_get_autoinheritance_info 0000000180018410 f   c6_hyd_hyb_2_opt_cont_test_new.obj
 0001:000179e0       sf_internal_get_sim_state_c6_hyd_hyb_2_opt_cont_test_new 00000001800189e0 f   c6_hyd_hyb_2_opt_cont_test_new.obj
 0001:00017d20       sf_internal_set_sim_state_c6_hyd_hyb_2_opt_cont_test_new 0000000180018d20 f   c6_hyd_hyb_2_opt_cont_test_new.obj
 0001:00018110       c6_hyd_hyb_2_opt_cont_test_new_method_dispatcher 0000000180019110 f   c6_hyd_hyb_2_opt_cont_test_new.obj
 0001:0001a370       sf_c7_hyd_hyb_2_opt_cont_test_new_get_eml_resolved_functions_info 000000018001b370 f   c7_hyd_hyb_2_opt_cont_test_new.obj
 0001:0001a3f0       sf_c7_hyd_hyb_2_opt_cont_test_new_get_check_sum 000000018001b3f0 f   c7_hyd_hyb_2_opt_cont_test_new.obj
 0001:0001a470       sf_c7_hyd_hyb_2_opt_cont_test_new_get_autoinheritance_info 000000018001b470 f   c7_hyd_hyb_2_opt_cont_test_new.obj
 0001:0001aa40       sf_internal_get_sim_state_c7_hyd_hyb_2_opt_cont_test_new 000000018001ba40 f   c7_hyd_hyb_2_opt_cont_test_new.obj
 0001:0001ad80       sf_internal_set_sim_state_c7_hyd_hyb_2_opt_cont_test_new 000000018001bd80 f   c7_hyd_hyb_2_opt_cont_test_new.obj
 0001:0001b170       c7_hyd_hyb_2_opt_cont_test_new_method_dispatcher 000000018001c170 f   c7_hyd_hyb_2_opt_cont_test_new.obj
 0001:0001d3f0       sf_c8_hyd_hyb_2_opt_cont_test_new_get_eml_resolved_functions_info 000000018001e3f0 f   c8_hyd_hyb_2_opt_cont_test_new.obj
 0001:0001d470       sf_c8_hyd_hyb_2_opt_cont_test_new_get_check_sum 000000018001e470 f   c8_hyd_hyb_2_opt_cont_test_new.obj
 0001:0001d4f0       sf_c8_hyd_hyb_2_opt_cont_test_new_get_autoinheritance_info 000000018001e4f0 f   c8_hyd_hyb_2_opt_cont_test_new.obj
 0001:0001dac0       sf_internal_get_sim_state_c8_hyd_hyb_2_opt_cont_test_new 000000018001eac0 f   c8_hyd_hyb_2_opt_cont_test_new.obj
 0001:0001de00       sf_internal_set_sim_state_c8_hyd_hyb_2_opt_cont_test_new 000000018001ee00 f   c8_hyd_hyb_2_opt_cont_test_new.obj
 0001:0001e1f0       c8_hyd_hyb_2_opt_cont_test_new_method_dispatcher 000000018001f1f0 f   c8_hyd_hyb_2_opt_cont_test_new.obj
 0001:00020460       sf_c9_hyd_hyb_2_opt_cont_test_new_get_eml_resolved_functions_info 0000000180021460 f   c9_hyd_hyb_2_opt_cont_test_new.obj
 0001:000204e0       sf_c9_hyd_hyb_2_opt_cont_test_new_get_check_sum 00000001800214e0 f   c9_hyd_hyb_2_opt_cont_test_new.obj
 0001:00020560       sf_c9_hyd_hyb_2_opt_cont_test_new_get_autoinheritance_info 0000000180021560 f   c9_hyd_hyb_2_opt_cont_test_new.obj
 0001:00020b30       sf_internal_get_sim_state_c9_hyd_hyb_2_opt_cont_test_new 0000000180021b30 f   c9_hyd_hyb_2_opt_cont_test_new.obj
 0001:00020e80       sf_internal_set_sim_state_c9_hyd_hyb_2_opt_cont_test_new 0000000180021e80 f   c9_hyd_hyb_2_opt_cont_test_new.obj
 0001:00021270       c9_hyd_hyb_2_opt_cont_test_new_method_dispatcher 0000000180022270 f   c9_hyd_hyb_2_opt_cont_test_new.obj
 0001:00023510       sf_c10_hyd_hyb_2_opt_cont_test_new_get_eml_resolved_functions_info 0000000180024510 f   c10_hyd_hyb_2_opt_cont_test_new.obj
 0001:00023590       sf_c10_hyd_hyb_2_opt_cont_test_new_get_check_sum 0000000180024590 f   c10_hyd_hyb_2_opt_cont_test_new.obj
 0001:00023610       sf_c10_hyd_hyb_2_opt_cont_test_new_get_autoinheritance_info 0000000180024610 f   c10_hyd_hyb_2_opt_cont_test_new.obj
 0001:00023be0       sf_internal_get_sim_state_c10_hyd_hyb_2_opt_cont_test_new 0000000180024be0 f   c10_hyd_hyb_2_opt_cont_test_new.obj
 0001:00023f20       sf_internal_set_sim_state_c10_hyd_hyb_2_opt_cont_test_new 0000000180024f20 f   c10_hyd_hyb_2_opt_cont_test_new.obj
 0001:00024310       c10_hyd_hyb_2_opt_cont_test_new_method_dispatcher 0000000180025310 f   c10_hyd_hyb_2_opt_cont_test_new.obj
 0001:000265b0       sf_c11_hyd_hyb_2_opt_cont_test_new_get_eml_resolved_functions_info 00000001800275b0 f   c11_hyd_hyb_2_opt_cont_test_new.obj
 0001:00026630       sf_c11_hyd_hyb_2_opt_cont_test_new_get_check_sum 0000000180027630 f   c11_hyd_hyb_2_opt_cont_test_new.obj
 0001:000266b0       sf_c11_hyd_hyb_2_opt_cont_test_new_get_autoinheritance_info 00000001800276b0 f   c11_hyd_hyb_2_opt_cont_test_new.obj
 0001:00026c80       sf_internal_get_sim_state_c11_hyd_hyb_2_opt_cont_test_new 0000000180027c80 f   c11_hyd_hyb_2_opt_cont_test_new.obj
 0001:00026fc0       sf_internal_set_sim_state_c11_hyd_hyb_2_opt_cont_test_new 0000000180027fc0 f   c11_hyd_hyb_2_opt_cont_test_new.obj
 0001:000273b0       c11_hyd_hyb_2_opt_cont_test_new_method_dispatcher 00000001800283b0 f   c11_hyd_hyb_2_opt_cont_test_new.obj
 0001:00029610       sf_c12_hyd_hyb_2_opt_cont_test_new_get_eml_resolved_functions_info 000000018002a610 f   c12_hyd_hyb_2_opt_cont_test_new.obj
 0001:00029690       sf_c12_hyd_hyb_2_opt_cont_test_new_get_check_sum 000000018002a690 f   c12_hyd_hyb_2_opt_cont_test_new.obj
 0001:00029710       sf_c12_hyd_hyb_2_opt_cont_test_new_get_autoinheritance_info 000000018002a710 f   c12_hyd_hyb_2_opt_cont_test_new.obj
 0001:00029ce0       sf_internal_get_sim_state_c12_hyd_hyb_2_opt_cont_test_new 000000018002ace0 f   c12_hyd_hyb_2_opt_cont_test_new.obj
 0001:0002a020       sf_internal_set_sim_state_c12_hyd_hyb_2_opt_cont_test_new 000000018002b020 f   c12_hyd_hyb_2_opt_cont_test_new.obj
 0001:0002a410       c12_hyd_hyb_2_opt_cont_test_new_method_dispatcher 000000018002b410 f   c12_hyd_hyb_2_opt_cont_test_new.obj
 0001:0002c690       sf_c13_hyd_hyb_2_opt_cont_test_new_get_eml_resolved_functions_info 000000018002d690 f   c13_hyd_hyb_2_opt_cont_test_new.obj
 0001:0002c710       sf_c13_hyd_hyb_2_opt_cont_test_new_get_check_sum 000000018002d710 f   c13_hyd_hyb_2_opt_cont_test_new.obj
 0001:0002c790       sf_c13_hyd_hyb_2_opt_cont_test_new_get_autoinheritance_info 000000018002d790 f   c13_hyd_hyb_2_opt_cont_test_new.obj
 0001:0002cd60       sf_internal_get_sim_state_c13_hyd_hyb_2_opt_cont_test_new 000000018002dd60 f   c13_hyd_hyb_2_opt_cont_test_new.obj
 0001:0002d0a0       sf_internal_set_sim_state_c13_hyd_hyb_2_opt_cont_test_new 000000018002e0a0 f   c13_hyd_hyb_2_opt_cont_test_new.obj
 0001:0002d490       c13_hyd_hyb_2_opt_cont_test_new_method_dispatcher 000000018002e490 f   c13_hyd_hyb_2_opt_cont_test_new.obj
 0001:0002f710       sf_c14_hyd_hyb_2_opt_cont_test_new_get_eml_resolved_functions_info 0000000180030710 f   c14_hyd_hyb_2_opt_cont_test_new.obj
 0001:0002f790       sf_c14_hyd_hyb_2_opt_cont_test_new_get_check_sum 0000000180030790 f   c14_hyd_hyb_2_opt_cont_test_new.obj
 0001:0002f810       sf_c14_hyd_hyb_2_opt_cont_test_new_get_autoinheritance_info 0000000180030810 f   c14_hyd_hyb_2_opt_cont_test_new.obj
 0001:0002fde0       sf_internal_get_sim_state_c14_hyd_hyb_2_opt_cont_test_new 0000000180030de0 f   c14_hyd_hyb_2_opt_cont_test_new.obj
 0001:00030120       sf_internal_set_sim_state_c14_hyd_hyb_2_opt_cont_test_new 0000000180031120 f   c14_hyd_hyb_2_opt_cont_test_new.obj
 0001:00030510       c14_hyd_hyb_2_opt_cont_test_new_method_dispatcher 0000000180031510 f   c14_hyd_hyb_2_opt_cont_test_new.obj
 0001:00032770       sf_c15_hyd_hyb_2_opt_cont_test_new_get_eml_resolved_functions_info 0000000180033770 f   c15_hyd_hyb_2_opt_cont_test_new.obj
 0001:000327f0       sf_c15_hyd_hyb_2_opt_cont_test_new_get_check_sum 00000001800337f0 f   c15_hyd_hyb_2_opt_cont_test_new.obj
 0001:00032870       sf_c15_hyd_hyb_2_opt_cont_test_new_get_autoinheritance_info 0000000180033870 f   c15_hyd_hyb_2_opt_cont_test_new.obj
 0001:00032e40       sf_internal_get_sim_state_c15_hyd_hyb_2_opt_cont_test_new 0000000180033e40 f   c15_hyd_hyb_2_opt_cont_test_new.obj
 0001:00033180       sf_internal_set_sim_state_c15_hyd_hyb_2_opt_cont_test_new 0000000180034180 f   c15_hyd_hyb_2_opt_cont_test_new.obj
 0001:00033570       c15_hyd_hyb_2_opt_cont_test_new_method_dispatcher 0000000180034570 f   c15_hyd_hyb_2_opt_cont_test_new.obj
 0001:000357a0       sf_c16_hyd_hyb_2_opt_cont_test_new_get_eml_resolved_functions_info 00000001800367a0 f   c16_hyd_hyb_2_opt_cont_test_new.obj
 0001:00035820       sf_c16_hyd_hyb_2_opt_cont_test_new_get_check_sum 0000000180036820 f   c16_hyd_hyb_2_opt_cont_test_new.obj
 0001:000358a0       sf_c16_hyd_hyb_2_opt_cont_test_new_get_autoinheritance_info 00000001800368a0 f   c16_hyd_hyb_2_opt_cont_test_new.obj
 0001:00035e70       sf_internal_get_sim_state_c16_hyd_hyb_2_opt_cont_test_new 0000000180036e70 f   c16_hyd_hyb_2_opt_cont_test_new.obj
 0001:000361b0       sf_internal_set_sim_state_c16_hyd_hyb_2_opt_cont_test_new 00000001800371b0 f   c16_hyd_hyb_2_opt_cont_test_new.obj
 0001:000365a0       c16_hyd_hyb_2_opt_cont_test_new_method_dispatcher 00000001800375a0 f   c16_hyd_hyb_2_opt_cont_test_new.obj
 0001:00038820       sf_c17_hyd_hyb_2_opt_cont_test_new_get_eml_resolved_functions_info 0000000180039820 f   c17_hyd_hyb_2_opt_cont_test_new.obj
 0001:000388a0       sf_c17_hyd_hyb_2_opt_cont_test_new_get_check_sum 00000001800398a0 f   c17_hyd_hyb_2_opt_cont_test_new.obj
 0001:00038920       sf_c17_hyd_hyb_2_opt_cont_test_new_get_autoinheritance_info 0000000180039920 f   c17_hyd_hyb_2_opt_cont_test_new.obj
 0001:00038ef0       sf_internal_get_sim_state_c17_hyd_hyb_2_opt_cont_test_new 0000000180039ef0 f   c17_hyd_hyb_2_opt_cont_test_new.obj
 0001:00039230       sf_internal_set_sim_state_c17_hyd_hyb_2_opt_cont_test_new 000000018003a230 f   c17_hyd_hyb_2_opt_cont_test_new.obj
 0001:00039620       c17_hyd_hyb_2_opt_cont_test_new_method_dispatcher 000000018003a620 f   c17_hyd_hyb_2_opt_cont_test_new.obj
 0001:0003b850       sf_c18_hyd_hyb_2_opt_cont_test_new_get_eml_resolved_functions_info 000000018003c850 f   c18_hyd_hyb_2_opt_cont_test_new.obj
 0001:0003b8d0       sf_c18_hyd_hyb_2_opt_cont_test_new_get_check_sum 000000018003c8d0 f   c18_hyd_hyb_2_opt_cont_test_new.obj
 0001:0003b950       sf_c18_hyd_hyb_2_opt_cont_test_new_get_autoinheritance_info 000000018003c950 f   c18_hyd_hyb_2_opt_cont_test_new.obj
 0001:0003bf20       sf_internal_get_sim_state_c18_hyd_hyb_2_opt_cont_test_new 000000018003cf20 f   c18_hyd_hyb_2_opt_cont_test_new.obj
 0001:0003c260       sf_internal_set_sim_state_c18_hyd_hyb_2_opt_cont_test_new 000000018003d260 f   c18_hyd_hyb_2_opt_cont_test_new.obj
 0001:0003c650       c18_hyd_hyb_2_opt_cont_test_new_method_dispatcher 000000018003d650 f   c18_hyd_hyb_2_opt_cont_test_new.obj
 0001:0003e8b0       sf_c19_hyd_hyb_2_opt_cont_test_new_get_eml_resolved_functions_info 000000018003f8b0 f   c19_hyd_hyb_2_opt_cont_test_new.obj
 0001:0003e930       sf_c19_hyd_hyb_2_opt_cont_test_new_get_check_sum 000000018003f930 f   c19_hyd_hyb_2_opt_cont_test_new.obj
 0001:0003e9b0       sf_c19_hyd_hyb_2_opt_cont_test_new_get_autoinheritance_info 000000018003f9b0 f   c19_hyd_hyb_2_opt_cont_test_new.obj
 0001:0003ef80       sf_internal_get_sim_state_c19_hyd_hyb_2_opt_cont_test_new 000000018003ff80 f   c19_hyd_hyb_2_opt_cont_test_new.obj
 0001:0003f2c0       sf_internal_set_sim_state_c19_hyd_hyb_2_opt_cont_test_new 00000001800402c0 f   c19_hyd_hyb_2_opt_cont_test_new.obj
 0001:0003f6b0       c19_hyd_hyb_2_opt_cont_test_new_method_dispatcher 00000001800406b0 f   c19_hyd_hyb_2_opt_cont_test_new.obj
 0001:00041900       sf_c20_hyd_hyb_2_opt_cont_test_new_get_eml_resolved_functions_info 0000000180042900 f   c20_hyd_hyb_2_opt_cont_test_new.obj
 0001:00041980       sf_c20_hyd_hyb_2_opt_cont_test_new_get_check_sum 0000000180042980 f   c20_hyd_hyb_2_opt_cont_test_new.obj
 0001:00041a00       sf_c20_hyd_hyb_2_opt_cont_test_new_get_autoinheritance_info 0000000180042a00 f   c20_hyd_hyb_2_opt_cont_test_new.obj
 0001:00041fd0       sf_internal_get_sim_state_c20_hyd_hyb_2_opt_cont_test_new 0000000180042fd0 f   c20_hyd_hyb_2_opt_cont_test_new.obj
 0001:00042310       sf_internal_set_sim_state_c20_hyd_hyb_2_opt_cont_test_new 0000000180043310 f   c20_hyd_hyb_2_opt_cont_test_new.obj
 0001:00042700       c20_hyd_hyb_2_opt_cont_test_new_method_dispatcher 0000000180043700 f   c20_hyd_hyb_2_opt_cont_test_new.obj
 0001:00044980       sf_c21_hyd_hyb_2_opt_cont_test_new_get_eml_resolved_functions_info 0000000180045980 f   c21_hyd_hyb_2_opt_cont_test_new.obj
 0001:00044a00       sf_c21_hyd_hyb_2_opt_cont_test_new_get_check_sum 0000000180045a00 f   c21_hyd_hyb_2_opt_cont_test_new.obj
 0001:00044a80       sf_c21_hyd_hyb_2_opt_cont_test_new_get_autoinheritance_info 0000000180045a80 f   c21_hyd_hyb_2_opt_cont_test_new.obj
 0001:00045050       sf_internal_get_sim_state_c21_hyd_hyb_2_opt_cont_test_new 0000000180046050 f   c21_hyd_hyb_2_opt_cont_test_new.obj
 0001:00045390       sf_internal_set_sim_state_c21_hyd_hyb_2_opt_cont_test_new 0000000180046390 f   c21_hyd_hyb_2_opt_cont_test_new.obj
 0001:00045780       c21_hyd_hyb_2_opt_cont_test_new_method_dispatcher 0000000180046780 f   c21_hyd_hyb_2_opt_cont_test_new.obj
 0001:000479f0       sf_c22_hyd_hyb_2_opt_cont_test_new_get_eml_resolved_functions_info 00000001800489f0 f   c22_hyd_hyb_2_opt_cont_test_new.obj
 0001:00047a70       sf_c22_hyd_hyb_2_opt_cont_test_new_get_check_sum 0000000180048a70 f   c22_hyd_hyb_2_opt_cont_test_new.obj
 0001:00047af0       sf_c22_hyd_hyb_2_opt_cont_test_new_get_autoinheritance_info 0000000180048af0 f   c22_hyd_hyb_2_opt_cont_test_new.obj
 0001:000480c0       sf_internal_get_sim_state_c22_hyd_hyb_2_opt_cont_test_new 00000001800490c0 f   c22_hyd_hyb_2_opt_cont_test_new.obj
 0001:00048400       sf_internal_set_sim_state_c22_hyd_hyb_2_opt_cont_test_new 0000000180049400 f   c22_hyd_hyb_2_opt_cont_test_new.obj
 0001:000487f0       c22_hyd_hyb_2_opt_cont_test_new_method_dispatcher 00000001800497f0 f   c22_hyd_hyb_2_opt_cont_test_new.obj
 0001:0004aa90       sf_c23_hyd_hyb_2_opt_cont_test_new_get_eml_resolved_functions_info 000000018004ba90 f   c23_hyd_hyb_2_opt_cont_test_new.obj
 0001:0004ab10       sf_c23_hyd_hyb_2_opt_cont_test_new_get_check_sum 000000018004bb10 f   c23_hyd_hyb_2_opt_cont_test_new.obj
 0001:0004ab90       sf_c23_hyd_hyb_2_opt_cont_test_new_get_autoinheritance_info 000000018004bb90 f   c23_hyd_hyb_2_opt_cont_test_new.obj
 0001:0004b160       sf_internal_get_sim_state_c23_hyd_hyb_2_opt_cont_test_new 000000018004c160 f   c23_hyd_hyb_2_opt_cont_test_new.obj
 0001:0004b4a0       sf_internal_set_sim_state_c23_hyd_hyb_2_opt_cont_test_new 000000018004c4a0 f   c23_hyd_hyb_2_opt_cont_test_new.obj
 0001:0004b890       c23_hyd_hyb_2_opt_cont_test_new_method_dispatcher 000000018004c890 f   c23_hyd_hyb_2_opt_cont_test_new.obj
 0001:0004db00       sf_c24_hyd_hyb_2_opt_cont_test_new_get_eml_resolved_functions_info 000000018004eb00 f   c24_hyd_hyb_2_opt_cont_test_new.obj
 0001:0004e360       sf_c24_hyd_hyb_2_opt_cont_test_new_get_check_sum 000000018004f360 f   c24_hyd_hyb_2_opt_cont_test_new.obj
 0001:0004e3e0       sf_c24_hyd_hyb_2_opt_cont_test_new_get_autoinheritance_info 000000018004f3e0 f   c24_hyd_hyb_2_opt_cont_test_new.obj
 0001:0004ec40       sf_internal_get_sim_state_c24_hyd_hyb_2_opt_cont_test_new 000000018004fc40 f   c24_hyd_hyb_2_opt_cont_test_new.obj
 0001:0004f040       sf_internal_set_sim_state_c24_hyd_hyb_2_opt_cont_test_new 0000000180050040 f   c24_hyd_hyb_2_opt_cont_test_new.obj
 0001:0004f480       c24_hyd_hyb_2_opt_cont_test_new_method_dispatcher 0000000180050480 f   c24_hyd_hyb_2_opt_cont_test_new.obj
 0001:000513b0       sf_c25_hyd_hyb_2_opt_cont_test_new_get_eml_resolved_functions_info 00000001800523b0 f   c25_hyd_hyb_2_opt_cont_test_new.obj
 0001:00051a90       sf_c25_hyd_hyb_2_opt_cont_test_new_get_check_sum 0000000180052a90 f   c25_hyd_hyb_2_opt_cont_test_new.obj
 0001:00051b10       sf_c25_hyd_hyb_2_opt_cont_test_new_get_autoinheritance_info 0000000180052b10 f   c25_hyd_hyb_2_opt_cont_test_new.obj
 0001:000520f0       sf_internal_get_sim_state_c25_hyd_hyb_2_opt_cont_test_new 00000001800530f0 f   c25_hyd_hyb_2_opt_cont_test_new.obj
 0001:00052500       sf_internal_set_sim_state_c25_hyd_hyb_2_opt_cont_test_new 0000000180053500 f   c25_hyd_hyb_2_opt_cont_test_new.obj
 0001:00052940       c25_hyd_hyb_2_opt_cont_test_new_method_dispatcher 0000000180053940 f   c25_hyd_hyb_2_opt_cont_test_new.obj
 0001:00054580       sf_c26_hyd_hyb_2_opt_cont_test_new_get_eml_resolved_functions_info 0000000180055580 f   c26_hyd_hyb_2_opt_cont_test_new.obj
 0001:00054be0       sf_c26_hyd_hyb_2_opt_cont_test_new_get_check_sum 0000000180055be0 f   c26_hyd_hyb_2_opt_cont_test_new.obj
 0001:00054c60       sf_c26_hyd_hyb_2_opt_cont_test_new_get_autoinheritance_info 0000000180055c60 f   c26_hyd_hyb_2_opt_cont_test_new.obj
 0001:00055240       sf_internal_get_sim_state_c26_hyd_hyb_2_opt_cont_test_new 0000000180056240 f   c26_hyd_hyb_2_opt_cont_test_new.obj
 0001:00055640       sf_internal_set_sim_state_c26_hyd_hyb_2_opt_cont_test_new 0000000180056640 f   c26_hyd_hyb_2_opt_cont_test_new.obj
 0001:00055a80       c26_hyd_hyb_2_opt_cont_test_new_method_dispatcher 0000000180056a80 f   c26_hyd_hyb_2_opt_cont_test_new.obj
 0001:000576b0       sf_c27_hyd_hyb_2_opt_cont_test_new_get_eml_resolved_functions_info 00000001800586b0 f   c27_hyd_hyb_2_opt_cont_test_new.obj
 0001:00057d70       sf_c27_hyd_hyb_2_opt_cont_test_new_get_check_sum 0000000180058d70 f   c27_hyd_hyb_2_opt_cont_test_new.obj
 0001:00057df0       sf_c27_hyd_hyb_2_opt_cont_test_new_get_autoinheritance_info 0000000180058df0 f   c27_hyd_hyb_2_opt_cont_test_new.obj
 0001:000583d0       sf_internal_get_sim_state_c27_hyd_hyb_2_opt_cont_test_new 00000001800593d0 f   c27_hyd_hyb_2_opt_cont_test_new.obj
 0001:000587d0       sf_internal_set_sim_state_c27_hyd_hyb_2_opt_cont_test_new 00000001800597d0 f   c27_hyd_hyb_2_opt_cont_test_new.obj
 0001:00058c10       c27_hyd_hyb_2_opt_cont_test_new_method_dispatcher 0000000180059c10 f   c27_hyd_hyb_2_opt_cont_test_new.obj
 0001:0005a840       sf_c28_hyd_hyb_2_opt_cont_test_new_get_eml_resolved_functions_info 000000018005b840 f   c28_hyd_hyb_2_opt_cont_test_new.obj
 0001:0005a8c0       sf_c28_hyd_hyb_2_opt_cont_test_new_get_check_sum 000000018005b8c0 f   c28_hyd_hyb_2_opt_cont_test_new.obj
 0001:0005a940       sf_c28_hyd_hyb_2_opt_cont_test_new_get_autoinheritance_info 000000018005b940 f   c28_hyd_hyb_2_opt_cont_test_new.obj
 0001:0005af10       sf_internal_get_sim_state_c28_hyd_hyb_2_opt_cont_test_new 000000018005bf10 f   c28_hyd_hyb_2_opt_cont_test_new.obj
 0001:0005b250       sf_internal_set_sim_state_c28_hyd_hyb_2_opt_cont_test_new 000000018005c250 f   c28_hyd_hyb_2_opt_cont_test_new.obj
 0001:0005b640       c28_hyd_hyb_2_opt_cont_test_new_method_dispatcher 000000018005c640 f   c28_hyd_hyb_2_opt_cont_test_new.obj
 0001:0005d890       sf_c29_hyd_hyb_2_opt_cont_test_new_get_eml_resolved_functions_info 000000018005e890 f   c29_hyd_hyb_2_opt_cont_test_new.obj
 0001:0005d910       sf_c29_hyd_hyb_2_opt_cont_test_new_get_check_sum 000000018005e910 f   c29_hyd_hyb_2_opt_cont_test_new.obj
 0001:0005d990       sf_c29_hyd_hyb_2_opt_cont_test_new_get_autoinheritance_info 000000018005e990 f   c29_hyd_hyb_2_opt_cont_test_new.obj
 0001:0005df60       sf_internal_get_sim_state_c29_hyd_hyb_2_opt_cont_test_new 000000018005ef60 f   c29_hyd_hyb_2_opt_cont_test_new.obj
 0001:0005e2a0       sf_internal_set_sim_state_c29_hyd_hyb_2_opt_cont_test_new 000000018005f2a0 f   c29_hyd_hyb_2_opt_cont_test_new.obj
 0001:0005e690       c29_hyd_hyb_2_opt_cont_test_new_method_dispatcher 000000018005f690 f   c29_hyd_hyb_2_opt_cont_test_new.obj
 0001:00060920       sf_c30_hyd_hyb_2_opt_cont_test_new_get_eml_resolved_functions_info 0000000180061920 f   c30_hyd_hyb_2_opt_cont_test_new.obj
 0001:000609a0       sf_c30_hyd_hyb_2_opt_cont_test_new_get_check_sum 00000001800619a0 f   c30_hyd_hyb_2_opt_cont_test_new.obj
 0001:00060a20       sf_c30_hyd_hyb_2_opt_cont_test_new_get_autoinheritance_info 0000000180061a20 f   c30_hyd_hyb_2_opt_cont_test_new.obj
 0001:00060ff0       sf_internal_get_sim_state_c30_hyd_hyb_2_opt_cont_test_new 0000000180061ff0 f   c30_hyd_hyb_2_opt_cont_test_new.obj
 0001:00061330       sf_internal_set_sim_state_c30_hyd_hyb_2_opt_cont_test_new 0000000180062330 f   c30_hyd_hyb_2_opt_cont_test_new.obj
 0001:00061720       c30_hyd_hyb_2_opt_cont_test_new_method_dispatcher 0000000180062720 f   c30_hyd_hyb_2_opt_cont_test_new.obj
 0001:00063990       sf_c31_hyd_hyb_2_opt_cont_test_new_get_eml_resolved_functions_info 0000000180064990 f   c31_hyd_hyb_2_opt_cont_test_new.obj
 0001:00063a10       sf_c31_hyd_hyb_2_opt_cont_test_new_get_check_sum 0000000180064a10 f   c31_hyd_hyb_2_opt_cont_test_new.obj
 0001:00063a90       sf_c31_hyd_hyb_2_opt_cont_test_new_get_autoinheritance_info 0000000180064a90 f   c31_hyd_hyb_2_opt_cont_test_new.obj
 0001:00064060       sf_internal_get_sim_state_c31_hyd_hyb_2_opt_cont_test_new 0000000180065060 f   c31_hyd_hyb_2_opt_cont_test_new.obj
 0001:000643a0       sf_internal_set_sim_state_c31_hyd_hyb_2_opt_cont_test_new 00000001800653a0 f   c31_hyd_hyb_2_opt_cont_test_new.obj
 0001:00064790       c31_hyd_hyb_2_opt_cont_test_new_method_dispatcher 0000000180065790 f   c31_hyd_hyb_2_opt_cont_test_new.obj
 0001:000669d0       sf_c32_hyd_hyb_2_opt_cont_test_new_get_eml_resolved_functions_info 00000001800679d0 f   c32_hyd_hyb_2_opt_cont_test_new.obj
 0001:00067010       sf_c32_hyd_hyb_2_opt_cont_test_new_get_check_sum 0000000180068010 f   c32_hyd_hyb_2_opt_cont_test_new.obj
 0001:00067090       sf_c32_hyd_hyb_2_opt_cont_test_new_get_autoinheritance_info 0000000180068090 f   c32_hyd_hyb_2_opt_cont_test_new.obj
 0001:00067670       sf_internal_get_sim_state_c32_hyd_hyb_2_opt_cont_test_new 0000000180068670 f   c32_hyd_hyb_2_opt_cont_test_new.obj
 0001:00067a70       sf_internal_set_sim_state_c32_hyd_hyb_2_opt_cont_test_new 0000000180068a70 f   c32_hyd_hyb_2_opt_cont_test_new.obj
 0001:00067eb0       c32_hyd_hyb_2_opt_cont_test_new_method_dispatcher 0000000180068eb0 f   c32_hyd_hyb_2_opt_cont_test_new.obj
 0001:00069ae0       sf_c33_hyd_hyb_2_opt_cont_test_new_get_eml_resolved_functions_info 000000018006aae0 f   c33_hyd_hyb_2_opt_cont_test_new.obj
 0001:00069b60       sf_c33_hyd_hyb_2_opt_cont_test_new_get_check_sum 000000018006ab60 f   c33_hyd_hyb_2_opt_cont_test_new.obj
 0001:00069be0       sf_c33_hyd_hyb_2_opt_cont_test_new_get_autoinheritance_info 000000018006abe0 f   c33_hyd_hyb_2_opt_cont_test_new.obj
 0001:0006a1b0       sf_internal_get_sim_state_c33_hyd_hyb_2_opt_cont_test_new 000000018006b1b0 f   c33_hyd_hyb_2_opt_cont_test_new.obj
 0001:0006a4f0       sf_internal_set_sim_state_c33_hyd_hyb_2_opt_cont_test_new 000000018006b4f0 f   c33_hyd_hyb_2_opt_cont_test_new.obj
 0001:0006a8e0       c33_hyd_hyb_2_opt_cont_test_new_method_dispatcher 000000018006b8e0 f   c33_hyd_hyb_2_opt_cont_test_new.obj
 0001:0006cb40       sf_c34_hyd_hyb_2_opt_cont_test_new_get_eml_resolved_functions_info 000000018006db40 f   c34_hyd_hyb_2_opt_cont_test_new.obj
 0001:0006cbc0       sf_c34_hyd_hyb_2_opt_cont_test_new_get_check_sum 000000018006dbc0 f   c34_hyd_hyb_2_opt_cont_test_new.obj
 0001:0006cc40       sf_c34_hyd_hyb_2_opt_cont_test_new_get_autoinheritance_info 000000018006dc40 f   c34_hyd_hyb_2_opt_cont_test_new.obj
 0001:0006d210       sf_internal_get_sim_state_c34_hyd_hyb_2_opt_cont_test_new 000000018006e210 f   c34_hyd_hyb_2_opt_cont_test_new.obj
 0001:0006d550       sf_internal_set_sim_state_c34_hyd_hyb_2_opt_cont_test_new 000000018006e550 f   c34_hyd_hyb_2_opt_cont_test_new.obj
 0001:0006d940       c34_hyd_hyb_2_opt_cont_test_new_method_dispatcher 000000018006e940 f   c34_hyd_hyb_2_opt_cont_test_new.obj
 0001:0006fb80       sf_c35_hyd_hyb_2_opt_cont_test_new_get_eml_resolved_functions_info 0000000180070b80 f   c35_hyd_hyb_2_opt_cont_test_new.obj
 0001:0006fc00       sf_c35_hyd_hyb_2_opt_cont_test_new_get_check_sum 0000000180070c00 f   c35_hyd_hyb_2_opt_cont_test_new.obj
 0001:0006fc80       sf_c35_hyd_hyb_2_opt_cont_test_new_get_autoinheritance_info 0000000180070c80 f   c35_hyd_hyb_2_opt_cont_test_new.obj
 0001:00070250       sf_internal_get_sim_state_c35_hyd_hyb_2_opt_cont_test_new 0000000180071250 f   c35_hyd_hyb_2_opt_cont_test_new.obj
 0001:00070590       sf_internal_set_sim_state_c35_hyd_hyb_2_opt_cont_test_new 0000000180071590 f   c35_hyd_hyb_2_opt_cont_test_new.obj
 0001:00070980       c35_hyd_hyb_2_opt_cont_test_new_method_dispatcher 0000000180071980 f   c35_hyd_hyb_2_opt_cont_test_new.obj
 0001:00072be0       sf_c36_hyd_hyb_2_opt_cont_test_new_get_eml_resolved_functions_info 0000000180073be0 f   c36_hyd_hyb_2_opt_cont_test_new.obj
 0001:00072c60       sf_c36_hyd_hyb_2_opt_cont_test_new_get_check_sum 0000000180073c60 f   c36_hyd_hyb_2_opt_cont_test_new.obj
 0001:00072ce0       sf_c36_hyd_hyb_2_opt_cont_test_new_get_autoinheritance_info 0000000180073ce0 f   c36_hyd_hyb_2_opt_cont_test_new.obj
 0001:000732b0       sf_internal_get_sim_state_c36_hyd_hyb_2_opt_cont_test_new 00000001800742b0 f   c36_hyd_hyb_2_opt_cont_test_new.obj
 0001:000735f0       sf_internal_set_sim_state_c36_hyd_hyb_2_opt_cont_test_new 00000001800745f0 f   c36_hyd_hyb_2_opt_cont_test_new.obj
 0001:000739e0       c36_hyd_hyb_2_opt_cont_test_new_method_dispatcher 00000001800749e0 f   c36_hyd_hyb_2_opt_cont_test_new.obj
 0001:00075c60       sf_c37_hyd_hyb_2_opt_cont_test_new_get_eml_resolved_functions_info 0000000180076c60 f   c37_hyd_hyb_2_opt_cont_test_new.obj
 0001:00075ce0       sf_c37_hyd_hyb_2_opt_cont_test_new_get_check_sum 0000000180076ce0 f   c37_hyd_hyb_2_opt_cont_test_new.obj
 0001:00075d60       sf_c37_hyd_hyb_2_opt_cont_test_new_get_autoinheritance_info 0000000180076d60 f   c37_hyd_hyb_2_opt_cont_test_new.obj
 0001:00076330       sf_internal_get_sim_state_c37_hyd_hyb_2_opt_cont_test_new 0000000180077330 f   c37_hyd_hyb_2_opt_cont_test_new.obj
 0001:00076670       sf_internal_set_sim_state_c37_hyd_hyb_2_opt_cont_test_new 0000000180077670 f   c37_hyd_hyb_2_opt_cont_test_new.obj
 0001:00076a60       c37_hyd_hyb_2_opt_cont_test_new_method_dispatcher 0000000180077a60 f   c37_hyd_hyb_2_opt_cont_test_new.obj
 0001:00078cd0       sf_c38_hyd_hyb_2_opt_cont_test_new_get_eml_resolved_functions_info 0000000180079cd0 f   c38_hyd_hyb_2_opt_cont_test_new.obj
 0001:00078d50       sf_c38_hyd_hyb_2_opt_cont_test_new_get_check_sum 0000000180079d50 f   c38_hyd_hyb_2_opt_cont_test_new.obj
 0001:00078dd0       sf_c38_hyd_hyb_2_opt_cont_test_new_get_autoinheritance_info 0000000180079dd0 f   c38_hyd_hyb_2_opt_cont_test_new.obj
 0001:000793a0       sf_internal_get_sim_state_c38_hyd_hyb_2_opt_cont_test_new 000000018007a3a0 f   c38_hyd_hyb_2_opt_cont_test_new.obj
 0001:000796e0       sf_internal_set_sim_state_c38_hyd_hyb_2_opt_cont_test_new 000000018007a6e0 f   c38_hyd_hyb_2_opt_cont_test_new.obj
 0001:00079ad0       c38_hyd_hyb_2_opt_cont_test_new_method_dispatcher 000000018007aad0 f   c38_hyd_hyb_2_opt_cont_test_new.obj
 0001:0007bd30       sf_c39_hyd_hyb_2_opt_cont_test_new_get_eml_resolved_functions_info 000000018007cd30 f   c39_hyd_hyb_2_opt_cont_test_new.obj
 0001:0007bdb0       sf_c39_hyd_hyb_2_opt_cont_test_new_get_check_sum 000000018007cdb0 f   c39_hyd_hyb_2_opt_cont_test_new.obj
 0001:0007be30       sf_c39_hyd_hyb_2_opt_cont_test_new_get_autoinheritance_info 000000018007ce30 f   c39_hyd_hyb_2_opt_cont_test_new.obj
 0001:0007c400       sf_internal_get_sim_state_c39_hyd_hyb_2_opt_cont_test_new 000000018007d400 f   c39_hyd_hyb_2_opt_cont_test_new.obj
 0001:0007c740       sf_internal_set_sim_state_c39_hyd_hyb_2_opt_cont_test_new 000000018007d740 f   c39_hyd_hyb_2_opt_cont_test_new.obj
 0001:0007cb30       c39_hyd_hyb_2_opt_cont_test_new_method_dispatcher 000000018007db30 f   c39_hyd_hyb_2_opt_cont_test_new.obj
 0001:0007edc0       sf_c40_hyd_hyb_2_opt_cont_test_new_get_eml_resolved_functions_info 000000018007fdc0 f   c40_hyd_hyb_2_opt_cont_test_new.obj
 0001:0007ee40       sf_c40_hyd_hyb_2_opt_cont_test_new_get_check_sum 000000018007fe40 f   c40_hyd_hyb_2_opt_cont_test_new.obj
 0001:0007eec0       sf_c40_hyd_hyb_2_opt_cont_test_new_get_autoinheritance_info 000000018007fec0 f   c40_hyd_hyb_2_opt_cont_test_new.obj
 0001:0007f490       sf_internal_get_sim_state_c40_hyd_hyb_2_opt_cont_test_new 0000000180080490 f   c40_hyd_hyb_2_opt_cont_test_new.obj
 0001:0007f7d0       sf_internal_set_sim_state_c40_hyd_hyb_2_opt_cont_test_new 00000001800807d0 f   c40_hyd_hyb_2_opt_cont_test_new.obj
 0001:0007fbc0       c40_hyd_hyb_2_opt_cont_test_new_method_dispatcher 0000000180080bc0 f   c40_hyd_hyb_2_opt_cont_test_new.obj
 0001:00081e20       sf_c41_hyd_hyb_2_opt_cont_test_new_get_eml_resolved_functions_info 0000000180082e20 f   c41_hyd_hyb_2_opt_cont_test_new.obj
 0001:00081ea0       sf_c41_hyd_hyb_2_opt_cont_test_new_get_check_sum 0000000180082ea0 f   c41_hyd_hyb_2_opt_cont_test_new.obj
 0001:00081f20       sf_c41_hyd_hyb_2_opt_cont_test_new_get_autoinheritance_info 0000000180082f20 f   c41_hyd_hyb_2_opt_cont_test_new.obj
 0001:000824f0       sf_internal_get_sim_state_c41_hyd_hyb_2_opt_cont_test_new 00000001800834f0 f   c41_hyd_hyb_2_opt_cont_test_new.obj
 0001:00082830       sf_internal_set_sim_state_c41_hyd_hyb_2_opt_cont_test_new 0000000180083830 f   c41_hyd_hyb_2_opt_cont_test_new.obj
 0001:00082c20       c41_hyd_hyb_2_opt_cont_test_new_method_dispatcher 0000000180083c20 f   c41_hyd_hyb_2_opt_cont_test_new.obj
 0001:00084e80       sf_c42_hyd_hyb_2_opt_cont_test_new_get_eml_resolved_functions_info 0000000180085e80 f   c42_hyd_hyb_2_opt_cont_test_new.obj
 0001:00084f00       sf_c42_hyd_hyb_2_opt_cont_test_new_get_check_sum 0000000180085f00 f   c42_hyd_hyb_2_opt_cont_test_new.obj
 0001:00084f80       sf_c42_hyd_hyb_2_opt_cont_test_new_get_autoinheritance_info 0000000180085f80 f   c42_hyd_hyb_2_opt_cont_test_new.obj
 0001:00085550       sf_internal_get_sim_state_c42_hyd_hyb_2_opt_cont_test_new 0000000180086550 f   c42_hyd_hyb_2_opt_cont_test_new.obj
 0001:00085890       sf_internal_set_sim_state_c42_hyd_hyb_2_opt_cont_test_new 0000000180086890 f   c42_hyd_hyb_2_opt_cont_test_new.obj
 0001:00085c80       c42_hyd_hyb_2_opt_cont_test_new_method_dispatcher 0000000180086c80 f   c42_hyd_hyb_2_opt_cont_test_new.obj
 0001:00087ec0       sf_c43_hyd_hyb_2_opt_cont_test_new_get_eml_resolved_functions_info 0000000180088ec0 f   c43_hyd_hyb_2_opt_cont_test_new.obj
 0001:00087f40       sf_c43_hyd_hyb_2_opt_cont_test_new_get_check_sum 0000000180088f40 f   c43_hyd_hyb_2_opt_cont_test_new.obj
 0001:00087fc0       sf_c43_hyd_hyb_2_opt_cont_test_new_get_autoinheritance_info 0000000180088fc0 f   c43_hyd_hyb_2_opt_cont_test_new.obj
 0001:00088590       sf_internal_get_sim_state_c43_hyd_hyb_2_opt_cont_test_new 0000000180089590 f   c43_hyd_hyb_2_opt_cont_test_new.obj
 0001:000888d0       sf_internal_set_sim_state_c43_hyd_hyb_2_opt_cont_test_new 00000001800898d0 f   c43_hyd_hyb_2_opt_cont_test_new.obj
 0001:00088cc0       c43_hyd_hyb_2_opt_cont_test_new_method_dispatcher 0000000180089cc0 f   c43_hyd_hyb_2_opt_cont_test_new.obj
 0001:0008af60       sf_c44_hyd_hyb_2_opt_cont_test_new_get_eml_resolved_functions_info 000000018008bf60 f   c44_hyd_hyb_2_opt_cont_test_new.obj
 0001:0008afe0       sf_c44_hyd_hyb_2_opt_cont_test_new_get_check_sum 000000018008bfe0 f   c44_hyd_hyb_2_opt_cont_test_new.obj
 0001:0008b060       sf_c44_hyd_hyb_2_opt_cont_test_new_get_autoinheritance_info 000000018008c060 f   c44_hyd_hyb_2_opt_cont_test_new.obj
 0001:0008b630       sf_internal_get_sim_state_c44_hyd_hyb_2_opt_cont_test_new 000000018008c630 f   c44_hyd_hyb_2_opt_cont_test_new.obj
 0001:0008b970       sf_internal_set_sim_state_c44_hyd_hyb_2_opt_cont_test_new 000000018008c970 f   c44_hyd_hyb_2_opt_cont_test_new.obj
 0001:0008bd60       c44_hyd_hyb_2_opt_cont_test_new_method_dispatcher 000000018008cd60 f   c44_hyd_hyb_2_opt_cont_test_new.obj
 0001:0008dfe0       sf_c45_hyd_hyb_2_opt_cont_test_new_get_eml_resolved_functions_info 000000018008efe0 f   c45_hyd_hyb_2_opt_cont_test_new.obj
 0001:0008e060       sf_c45_hyd_hyb_2_opt_cont_test_new_get_check_sum 000000018008f060 f   c45_hyd_hyb_2_opt_cont_test_new.obj
 0001:0008e0e0       sf_c45_hyd_hyb_2_opt_cont_test_new_get_autoinheritance_info 000000018008f0e0 f   c45_hyd_hyb_2_opt_cont_test_new.obj
 0001:0008e6b0       sf_internal_get_sim_state_c45_hyd_hyb_2_opt_cont_test_new 000000018008f6b0 f   c45_hyd_hyb_2_opt_cont_test_new.obj
 0001:0008e9f0       sf_internal_set_sim_state_c45_hyd_hyb_2_opt_cont_test_new 000000018008f9f0 f   c45_hyd_hyb_2_opt_cont_test_new.obj
 0001:0008ede0       c45_hyd_hyb_2_opt_cont_test_new_method_dispatcher 000000018008fde0 f   c45_hyd_hyb_2_opt_cont_test_new.obj
 0001:00091020       sf_c46_hyd_hyb_2_opt_cont_test_new_get_eml_resolved_functions_info 0000000180092020 f   c46_hyd_hyb_2_opt_cont_test_new.obj
 0001:000910a0       sf_c46_hyd_hyb_2_opt_cont_test_new_get_check_sum 00000001800920a0 f   c46_hyd_hyb_2_opt_cont_test_new.obj
 0001:00091120       sf_c46_hyd_hyb_2_opt_cont_test_new_get_autoinheritance_info 0000000180092120 f   c46_hyd_hyb_2_opt_cont_test_new.obj
 0001:000916f0       sf_internal_get_sim_state_c46_hyd_hyb_2_opt_cont_test_new 00000001800926f0 f   c46_hyd_hyb_2_opt_cont_test_new.obj
 0001:00091a30       sf_internal_set_sim_state_c46_hyd_hyb_2_opt_cont_test_new 0000000180092a30 f   c46_hyd_hyb_2_opt_cont_test_new.obj
 0001:00091e20       c46_hyd_hyb_2_opt_cont_test_new_method_dispatcher 0000000180092e20 f   c46_hyd_hyb_2_opt_cont_test_new.obj
 0001:000940b0       sf_c47_hyd_hyb_2_opt_cont_test_new_get_eml_resolved_functions_info 00000001800950b0 f   c47_hyd_hyb_2_opt_cont_test_new.obj
 0001:00094130       sf_c47_hyd_hyb_2_opt_cont_test_new_get_check_sum 0000000180095130 f   c47_hyd_hyb_2_opt_cont_test_new.obj
 0001:000941b0       sf_c47_hyd_hyb_2_opt_cont_test_new_get_autoinheritance_info 00000001800951b0 f   c47_hyd_hyb_2_opt_cont_test_new.obj
 0001:00094780       sf_internal_get_sim_state_c47_hyd_hyb_2_opt_cont_test_new 0000000180095780 f   c47_hyd_hyb_2_opt_cont_test_new.obj
 0001:00094ac0       sf_internal_set_sim_state_c47_hyd_hyb_2_opt_cont_test_new 0000000180095ac0 f   c47_hyd_hyb_2_opt_cont_test_new.obj
 0001:00094eb0       c47_hyd_hyb_2_opt_cont_test_new_method_dispatcher 0000000180095eb0 f   c47_hyd_hyb_2_opt_cont_test_new.obj
 0001:00097100       sf_c48_hyd_hyb_2_opt_cont_test_new_get_eml_resolved_functions_info 0000000180098100 f   c48_hyd_hyb_2_opt_cont_test_new.obj
 0001:00097180       sf_c48_hyd_hyb_2_opt_cont_test_new_get_check_sum 0000000180098180 f   c48_hyd_hyb_2_opt_cont_test_new.obj
 0001:00097200       sf_c48_hyd_hyb_2_opt_cont_test_new_get_autoinheritance_info 0000000180098200 f   c48_hyd_hyb_2_opt_cont_test_new.obj
 0001:000977d0       sf_internal_get_sim_state_c48_hyd_hyb_2_opt_cont_test_new 00000001800987d0 f   c48_hyd_hyb_2_opt_cont_test_new.obj
 0001:00097b10       sf_internal_set_sim_state_c48_hyd_hyb_2_opt_cont_test_new 0000000180098b10 f   c48_hyd_hyb_2_opt_cont_test_new.obj
 0001:00097f00       c48_hyd_hyb_2_opt_cont_test_new_method_dispatcher 0000000180098f00 f   c48_hyd_hyb_2_opt_cont_test_new.obj
 0001:0009a160       sf_process_check_sum_call  000000018009b160 f   hyd_hyb_2_opt_cont_test_new_sfun_registry.obj
 0001:0009a1b0       sf_process_autoinheritance_call 000000018009b1b0 f   hyd_hyb_2_opt_cont_test_new_sfun_registry.obj
 0001:0009a330       sf_process_get_eml_resolved_functions_info_call 000000018009b330 f   hyd_hyb_2_opt_cont_test_new_sfun_registry.obj
 0001:0009a4b0       sf_mex_unlock_call         000000018009b4b0 f   hyd_hyb_2_opt_cont_test_new_sfun_registry.obj
 0001:0009a560       sf_machine_global_initializer_called 000000018009b560 f   hyd_hyb_2_opt_cont_test_new_sfun_registry.obj
 0001:0009a590       sf_machine_global_method_dispatcher 000000018009b590 f   hyd_hyb_2_opt_cont_test_new_sfun_registry.obj
 0001:0009a5f0       sf_machine_global_terminator 000000018009b5f0 f   hyd_hyb_2_opt_cont_test_new_sfun_registry.obj
 0001:0009a630       sf_register_machine_exported_symbols 000000018009b630 f   hyd_hyb_2_opt_cont_test_new_sfun_registry.obj
 0001:0009a650       callCustomFcn              000000018009b650 f   hyd_hyb_2_opt_cont_test_new_sfun_registry.obj
 0001:0009a660       sf_machine_global_initializer 000000018009b660 f   hyd_hyb_2_opt_cont_test_new_sfun_registry.obj
 0001:0009a6d0       _ssSetStateAbsTol          000000018009b6d0 f   hyd_hyb_2_opt_cont_test_new_sfun_registry.obj
 0001:0009a7b0       _ssGetAbsTol               000000018009b7b0 f   hyd_hyb_2_opt_cont_test_new_sfun_registry.obj
 0001:0009a820       _ssSetInputPortMatrixDimensions 000000018009b820 f   hyd_hyb_2_opt_cont_test_new_sfun_registry.obj
 0001:0009a930       _ssSetOutputPortMatrixDimensions 000000018009b930 f   hyd_hyb_2_opt_cont_test_new_sfun_registry.obj
 0001:0009aa40       _ssSetInputPortVectorDimension 000000018009ba40 f   hyd_hyb_2_opt_cont_test_new_sfun_registry.obj
 0001:0009ab10       _ssSetOutputPortVectorDimension 000000018009bb10 f   hyd_hyb_2_opt_cont_test_new_sfun_registry.obj
 0001:0009abe0       ssIsRunTimeParamTunable    000000018009bbe0 f   hyd_hyb_2_opt_cont_test_new_sfun_registry.obj
 0001:0009ac50       ssGetSFuncBlockHandle      000000018009bc50 f   hyd_hyb_2_opt_cont_test_new_sfun_registry.obj
 0001:0009acc0       _ssGetCurrentInputPortWidth 000000018009bcc0 f   hyd_hyb_2_opt_cont_test_new_sfun_registry.obj
 0001:0009ade0       _ssGetCurrentOutputPortWidth 000000018009bde0 f   hyd_hyb_2_opt_cont_test_new_sfun_registry.obj
 0001:0009af00       _ssGetCallSystemNumFcnCallDestinations 000000018009bf00 f   hyd_hyb_2_opt_cont_test_new_sfun_registry.obj
 0001:0009af70       ssWarning                  000000018009bf70 f   hyd_hyb_2_opt_cont_test_new_sfun_registry.obj
 0001:0009b080       ssGetIsZeroCrossControlDisabled 000000018009c080 f   hyd_hyb_2_opt_cont_test_new_sfun_registry.obj
 0001:0009b0f0       ssSetIsInputPortUsedForContZcSignal 000000018009c0f0 f   hyd_hyb_2_opt_cont_test_new_sfun_registry.obj
 0001:0009b160       ssSetZcSignalIsZcElementDisc 000000018009c160 f   hyd_hyb_2_opt_cont_test_new_sfun_registry.obj
 0001:0009b210       ssSetZcSignalName          000000018009c210 f   hyd_hyb_2_opt_cont_test_new_sfun_registry.obj
 0001:0009b280       ssSetZcSignalWidth         000000018009c280 f   hyd_hyb_2_opt_cont_test_new_sfun_registry.obj
 0001:0009b2f0       ssSetZcSignalZcEventType   000000018009c2f0 f   hyd_hyb_2_opt_cont_test_new_sfun_registry.obj
 0001:0009b360       ssSetZcSignalType          000000018009c360 f   hyd_hyb_2_opt_cont_test_new_sfun_registry.obj
 0001:0009b3d0       ssSetZcSignalZcTol         000000018009c3d0 f   hyd_hyb_2_opt_cont_test_new_sfun_registry.obj
 0001:0009b440       ssSetZcSignalNeedsEventNotification 000000018009c440 f   hyd_hyb_2_opt_cont_test_new_sfun_registry.obj
 0001:0009b4b0       ssCreateAndAddZcSignalInfo 000000018009c4b0 f   hyd_hyb_2_opt_cont_test_new_sfun_registry.obj
 0001:0009b520       ssCloneAndAddZcSignalInfo  000000018009c520 f   hyd_hyb_2_opt_cont_test_new_sfun_registry.obj
 0001:0009b590       ssGetNumZcSignals          000000018009c590 f   hyd_hyb_2_opt_cont_test_new_sfun_registry.obj
 0001:0009b600       ssGetZcSignalVector        000000018009c600 f   hyd_hyb_2_opt_cont_test_new_sfun_registry.obj
 0001:0009b670       ssGetZcSignalZcEvents      000000018009c670 f   hyd_hyb_2_opt_cont_test_new_sfun_registry.obj
 0001:0009b6e0       ssGetZcSignalName          000000018009c6e0 f   hyd_hyb_2_opt_cont_test_new_sfun_registry.obj
 0001:0009b750       ssGetZcSignalWidth         000000018009c750 f   hyd_hyb_2_opt_cont_test_new_sfun_registry.obj
 0001:0009b7c0       ssGetZcSignalZcEventType   000000018009c7c0 f   hyd_hyb_2_opt_cont_test_new_sfun_registry.obj
 0001:0009b830       ssGetZcSignalType          000000018009c830 f   hyd_hyb_2_opt_cont_test_new_sfun_registry.obj
 0001:0009b8a0       ssGetZcSignalZcTol         000000018009c8a0 f   hyd_hyb_2_opt_cont_test_new_sfun_registry.obj
 0001:0009b920       ssGetZcSignalNeedsEventNotification 000000018009c920 f   hyd_hyb_2_opt_cont_test_new_sfun_registry.obj
 0001:0009b990       ssGetZcSignalIsZcElementDisc 000000018009c990 f   hyd_hyb_2_opt_cont_test_new_sfun_registry.obj
 0001:0009ba30       ssGetIsInputPortElementContinuous 000000018009ca30 f   hyd_hyb_2_opt_cont_test_new_sfun_registry.obj
 0001:0009bad0       _ssGetInputPortSignalPtrsFcn 000000018009cad0 f   hyd_hyb_2_opt_cont_test_new_sfun_registry.obj
 0001:0009bd90       _ssGetInputPortSignalFcn   000000018009cd90 f   hyd_hyb_2_opt_cont_test_new_sfun_registry.obj
 0001:0009bfb0       _ssSetInputPortDirectFeedThroughFcn 000000018009cfb0 f   hyd_hyb_2_opt_cont_test_new_sfun_registry.obj
 0001:0009c110       _ssSetInputPortReusableFcn 000000018009d110 f   hyd_hyb_2_opt_cont_test_new_sfun_registry.obj
 0001:0009c200       _ssSetOutputPortReusableFcn 000000018009d200 f   hyd_hyb_2_opt_cont_test_new_sfun_registry.obj
 0001:0009c2e0       ssGetDTypeIdFromMxArray    000000018009d2e0 f   hyd_hyb_2_opt_cont_test_new_sfun_registry.obj
 0001:0009c400       ssWriteRTWStr              000000018009d400 f   hyd_hyb_2_opt_cont_test_new_sfun_registry.obj
 0001:0009c460       ssWriteRTWMxVectParam      000000018009d460 f   hyd_hyb_2_opt_cont_test_new_sfun_registry.obj
 0001:0009c4c0       ssWriteRTWMx2dMatParam     000000018009d4c0 f   hyd_hyb_2_opt_cont_test_new_sfun_registry.obj
 0001:0009c540       ssWriteRTWNameValuePair    000000018009d540 f   hyd_hyb_2_opt_cont_test_new_sfun_registry.obj
 0001:0009ca30       ssWriteRTWParameters       000000018009da30 f   hyd_hyb_2_opt_cont_test_new_sfun_registry.obj
 0001:0009d030       ssWriteRTWParamSettings    000000018009e030 f   hyd_hyb_2_opt_cont_test_new_sfun_registry.obj
 0001:0009d700       ssWriteRTWWorkVect         000000018009e700 f   hyd_hyb_2_opt_cont_test_new_sfun_registry.obj
 0001:0009dc00       mexFunction                000000018009ec00 f   hyd_hyb_2_opt_cont_test_new_sfun_registry.obj
 0001:0009f840       ProcessMexSfunctionEveryCall 00000001800a0840 f   hyd_hyb_2_opt_cont_test_new_sfun_registry.obj
 0001:0009f9b0       hyd_hyb_2_opt_cont_test_new_initializer 00000001800a09b0 f   hyd_hyb_2_opt_cont_test_new_sfun.obj
 0001:0009f9c0       hyd_hyb_2_opt_cont_test_new_terminator 00000001800a09c0 f   hyd_hyb_2_opt_cont_test_new_sfun.obj
 0001:0009f9d0       sf_hyd_hyb_2_opt_cont_test_new_method_dispatcher 00000001800a09d0 f   hyd_hyb_2_opt_cont_test_new_sfun.obj
 0001:000a00b0       sf_hyd_hyb_2_opt_cont_test_new_process_check_sum_call 00000001800a10b0 f   hyd_hyb_2_opt_cont_test_new_sfun.obj
 0001:000a0860       sf_hyd_hyb_2_opt_cont_test_new_autoinheritance_info 00000001800a1860 f   hyd_hyb_2_opt_cont_test_new_sfun.obj
 0001:000a0d80       sf_hyd_hyb_2_opt_cont_test_new_get_eml_resolved_functions_info 00000001800a1d80 f   hyd_hyb_2_opt_cont_test_new_sfun.obj
 0001:000a19b0       hyd_hyb_2_opt_cont_test_new_debug_initialize 00000001800a29b0 f   hyd_hyb_2_opt_cont_test_new_sfun.obj
 0001:000a1a20       hyd_hyb_2_opt_cont_test_new_register_exported_symbols 00000001800a2a20 f   hyd_hyb_2_opt_cont_test_new_sfun.obj
 0001:000a1ad0       sf_mex_mx_is_numeric       00000001800a2ad0 f   sfc_mex:sfc_mex.obj
 0001:000a1b10       strcmp_ignore_ws           00000001800a2b10 f   sfc_mex:sfc_mex.obj
 0001:000a1c50       sf_mex_duplicatearraysafe  00000001800a2c50 f   sfc_mex:sfc_mex.obj
 0001:000a1db0       sf_set_error_debugger_context_message_fcn 00000001800a2db0 f   sfc_mex:sfc_mex.obj
 0001:000a1dc0       sf_set_debugger_matlab_error_fcn 00000001800a2dc0 f   sfc_mex:sfc_mex.obj
 0001:000a1df0       sf_set_error_prefix_string 00000001800a2df0 f   sfc_mex:sfc_mex.obj
 0001:000a1e20       sf_get_error_prefix_string 00000001800a2e20 f   sfc_mex:sfc_mex.obj
 0001:000a1e30       sf_get_current_jmp_buf_ptr 00000001800a2e30 f   sfc_mex:sfc_mex.obj
 0001:000a1e40       sf_set_current_jmp_buf_ptr 00000001800a2e40 f   sfc_mex:sfc_mex.obj
 0001:000a1e50       sf_mex_set_halt_simulation 00000001800a2e50 f   sfc_mex:sfc_mex.obj
 0001:000a1e60       sf_mex_get_halt_simulation 00000001800a2e60 f   sfc_mex:sfc_mex.obj
 0001:000a1e70       sf_mex_clear_error_message 00000001800a2e70 f   sfc_mex:sfc_mex.obj
 0001:000a1e90       sf_mex_get_error_message_for_read 00000001800a2e90 f   sfc_mex:sfc_mex.obj
 0001:000a1ea0       sf_mex_get_error_message_buffer_length 00000001800a2ea0 f   sfc_mex:sfc_mex.obj
 0001:000a1f80       sf_mex_warning_message     00000001800a2f80 f   sfc_mex:sfc_mex.obj
 0001:000a1ff0       sf_mex_v_errbuf_createf    00000001800a2ff0 f   sfc_mex:sfc_mex.obj
 0001:000a2000       sf_mex_errbuf_createf      00000001800a3000 f   sfc_mex:sfc_mex.obj
 0001:000a2030       sf_mex_v_errbuf_catf       00000001800a3030 f   sfc_mex:sfc_mex.obj
 0001:000a2070       sf_mex_errbuf_catf         00000001800a3070 f   sfc_mex:sfc_mex.obj
 0001:000a20c0       sf_mex_errbuf_copy         00000001800a30c0 f   sfc_mex:sfc_mex.obj
 0001:000a20d0       sf_mex_errbuf_clear        00000001800a30d0 f   sfc_mex:sfc_mex.obj
 0001:000a20e0       sf_mex_errbuf_isempty      00000001800a30e0 f   sfc_mex:sfc_mex.obj
 0001:000a21f0       sf_mex_set_error_status    00000001800a31f0 f   sfc_mex:sfc_mex.obj
 0001:000a2240       sf_mex_error_direct_call   00000001800a3240 f   sfc_mex:sfc_mex.obj
 0001:000a2260       sf_mex_error_message_no_long_jump 00000001800a3260 f   sfc_mex:sfc_mex.obj
 0001:000a2280       sf_mex_long_jump_on_error  00000001800a3280 f   sfc_mex:sfc_mex.obj
 0001:000a22b0       sf_mex_call_matlab         00000001800a32b0 f   sfc_mex:sfc_mex.obj
 0001:000a23d0       sf_mex_check_builtin       00000001800a33d0 f   sfc_mex:sfc_mex.obj
 0001:000a2410       sf_mex_check_builtin_vs    00000001800a3410 f   sfc_mex:sfc_mex.obj
 0001:000a2470       sf_mex_check_enum          00000001800a3470 f   sfc_mex:sfc_mex.obj
 0001:000a24a0       sf_mex_create_enum         00000001800a34a0 f   sfc_mex:sfc_mex.obj
 0001:000a24c0       sf_mex_get_enum_element    00000001800a34c0 f   sfc_mex:sfc_mex.obj
 0001:000a24d0       sf_mex_createcellarray     00000001800a34d0 f   sfc_mex:sfc_mex.obj
 0001:000a24e0       sf_mex_setcell             00000001800a34e0 f   sfc_mex:sfc_mex.obj
 0001:000a24f0       sf_mex_getcell             00000001800a34f0 f   sfc_mex:sfc_mex.obj
 0001:000a2500       sf_mex_dup                 00000001800a3500 f   sfc_mex:sfc_mex.obj
 0001:000a2520       sf_mex_assign              00000001800a3520 f   sfc_mex:sfc_mex.obj
 0001:000a2580       sf_mex_destroy             00000001800a3580 f   sfc_mex:sfc_mex.obj
 0001:000a25b0       mx_array_has_fi_type       00000001800a35b0 f   sfc_mex:sfc_mex.obj
 0001:000a25e0       sf_mex_convert_from_fi     00000001800a35e0 f   sfc_mex:sfc_mex.obj
 0001:000a2690       sf_mex_convert_to_double   00000001800a3690 f   sfc_mex:sfc_mex.obj
 0001:000a27b0       sf_mex_import_fi_vs        00000001800a37b0 f   sfc_mex:sfc_mex.obj
 0001:000a2970       sf_matrix_matrix_index_ok  00000001800a3970 f   sfc_mex:sfc_mex.obj
 0001:000a2a00       sf_vector_vector_index_ok  00000001800a3a00 f   sfc_mex:sfc_mex.obj
 0001:000a2a30       ssGetCurrentInputPortDimensions_wrapper 00000001800a3a30 f   sfc_mex:sfc_mex.obj
 0001:000a2a50       ssGetCurrentOutputPortDimensions_wrapper 00000001800a3a50 f   sfc_mex:sfc_mex.obj
 0001:000a2a70       sf_mex_emlrt_context_is_debug_mode 00000001800a3a70 f   sfc_mex:sfc_mex.obj
 0001:000a2a80       sf_mex_emlrt_context_set_debug_mode 00000001800a3a80 f   sfc_mex:sfc_mex.obj
 0001:000a2af0       sf_clear_error_manager_info 00000001800a3af0 f   sfc_mex:sfc_mex.obj
 0001:000a2b40       sf_mex_stop_simulation_abruptly_wo_error 00000001800a3b40 f   sfc_mex:sfc_mex.obj
 0001:000a2b80       sf_mex_error_message       00000001800a3b80 f   sfc_mex:sfc_mex.obj
 0001:000a2be0       sf_react_to_error_in_matlab_call 00000001800a3be0 f   sfc_mex:sfc_mex.obj
 0001:000a2c10       sf_mex_addfield            00000001800a3c10 f   sfc_mex:sfc_mex.obj
 0001:000a2cb0       sf_mex_getfield            00000001800a3cb0 f   sfc_mex:sfc_mex.obj
 0001:000a2fb0       sf_mex_check_class         00000001800a3fb0 f   sfc_mex:sfc_mex.obj
 0001:000a30a0       sf_mex_is_real             00000001800a40a0 f   sfc_mex:sfc_mex.obj
 0001:000a3510       sf_mex_decode_encoded_mx_struct_array 00000001800a4510 f   sfc_mex:sfc_mex.obj
 0001:000a37f0       sf_mex_lw_bounds_check     00000001800a47f0 f   sfc_mex:sfc_mex.obj
 0001:000a3820       sf_mex_lw_size_eq_check_1d 00000001800a4820 f   sfc_mex:sfc_mex.obj
 0001:000a3840       sf_mex_lw_size_eq_check_nd 00000001800a4840 f   sfc_mex:sfc_mex.obj
 0001:000a3a20       sf_mex_lw_dim_size_eq_check 00000001800a4a20 f   sfc_mex:sfc_mex.obj
 0001:000a3a50       sf_mex_lw_dim_size_geq_check 00000001800a4a50 f   sfc_mex:sfc_mex.obj
 0001:000a3a80       sf_mex_lw_sub_assign_size_check_nd 00000001800a4a80 f   sfc_mex:sfc_mex.obj
 0001:000a3cb0       sf_mex_lw_runtime_error_msgid 00000001800a4cb0 f   sfc_mex:sfc_mex.obj
 0001:000a3da0       sf_mex_lw_matrix_matrix_index_check 00000001800a4da0 f   sfc_mex:sfc_mex.obj
 0001:000a3dc0       sf_mex_lw_vector_vector_index_check 00000001800a4dc0 f   sfc_mex:sfc_mex.obj
 0001:000a3e00       sf_mex_lw_non_negative_check 00000001800a4e00 f   sfc_mex:sfc_mex.obj
 0001:000a3e40       sf_mex_overflow_error      00000001800a4e40 f   sfc_mex:sfc_mex.obj
 0001:000a3e50       sf_mex_dividebyzero_error  00000001800a4e50 f   sfc_mex:sfc_mex.obj
 0001:000a3e60       sf_mex_unsafe_enum_error   00000001800a4e60 f   sfc_mex:sfc_mex.obj
 0001:000a3e70       sf_emlrtErrHandler         00000001800a4e70 f   sfc_mex:sfc_mex.obj
 0001:000a3f30       sf_mex_printf              00000001800a4f30 f   sfc_mex:sfc_mex.obj
 0001:000a40c0       sf_mex_check_size          00000001800a50c0 f   sfc_mex:sfc_mex.obj
 0001:000a4390       sf_mex_check_struct        00000001800a5390 f   sfc_mex:sfc_mex.obj
 0001:000a45f0       sf_mex_check_struct_vs     00000001800a55f0 f   sfc_mex:sfc_mex.obj
 0001:000a4680       sf_mex_check_fi            00000001800a5680 f   sfc_mex:sfc_mex.obj
 0001:000a4780       sf_mex_check_fi_vs         00000001800a5780 f   sfc_mex:sfc_mex.obj
 0001:000a4820       sf_echo_expression         00000001800a5820 f   sfc_mex:sfc_mex.obj
 0001:000a4880       sf_assertion_failed        00000001800a5880 f   sfc_mex:sfc_mex.obj
 0001:000a4b60       sf_mex_evalin              00000001800a5b60 f   sfc_mex:sfc_mex.obj
 0001:000a4dd0       sf_mex_export              00000001800a5dd0 f   sfc_mex:sfc_mex.obj
 0001:000a4e90       sf_mex_get_ml_var_no_error 00000001800a5e90 f   sfc_mex:sfc_mex.obj
 0001:000a5030       sf_mex_get_ml_var          00000001800a6030 f   sfc_mex:sfc_mex.obj
 0001:000a54d0       ml_set_element_value_in_array 00000001800a64d0 f   sfc_mex:sfc_mex.obj
 0001:000a6ba0       sf_mex_call_impl           00000001800a7ba0 f   sfc_mex:sfc_mex.obj
 0001:000a70d0       sf_mex_call_debug          00000001800a80d0 f   sfc_mex:sfc_mex.obj
 0001:000a7100       sf_mex_call                00000001800a8100 f   sfc_mex:sfc_mex.obj
 0001:000a7750       sf_mex_createstruct        00000001800a8750 f   sfc_mex:sfc_mex.obj
 0001:000a7840       sf_mex_createstructarray   00000001800a8840 f   sfc_mex:sfc_mex.obj
 0001:000a78c0       sf_mex_get_mx_datatype_from_sf_datatype 00000001800a88c0 f   sfc_mex:sfc_mex.obj
 0001:000a7bd0       sf_mex_ml_var_sub          00000001800a8bd0 f   sfc_mex:sfc_mex.obj
 0001:000a7da0       sf_mex_ml_var_subsasgn     00000001800a8da0 f   sfc_mex:sfc_mex.obj
 0001:000a8190       sf_mex_sub                 00000001800a9190 f   sfc_mex:sfc_mex.obj
 0001:000a8390       sf_mex_subsasgn            00000001800a9390 f   sfc_mex:sfc_mex.obj
 0001:000a8870       sf_mex_create              00000001800a9870 f   sfc_mex:sfc_mex.obj
 0001:000a92c0       sf_mex_import_named        00000001800aa2c0 f   sfc_mex:sfc_mex.obj
 0001:000a9320       sf_mex_import              00000001800aa320 f   sfc_mex:sfc_mex.obj
 0001:000a9370       sf_mex_import_vs           00000001800aa370 f   sfc_mex:sfc_mex.obj
 0001:000a9480       sf_mex_lower_fixpt_mx_array 00000001800aa480 f   sfc_mex:sfc_mex.obj
 0001:000a9a70       sim_mode_is_rtw_gen        00000001800aaa70 f   sfc_mex:sfc_sf.obj
 0001:000a9aa0       sim_mode_is_external       00000001800aaaa0 f   sfc_mex:sfc_sf.obj
 0001:000a9ab0       sim_mode_is_modelref_sim   00000001800aaab0 f   sfc_mex:sfc_sf.obj
 0001:000a9ad0       mdlInitializeSizes         00000001800aaad0 f   sfc_mex:sfc_sf.obj
 0001:000a9af0       mdlInitializeSampleTimes   00000001800aaaf0 f   sfc_mex:sfc_sf.obj
 0001:000a9b30       mdlZeroCrossings           00000001800aab30 f   sfc_mex:sfc_sf.obj
 0001:000a9c10       mdlDerivatives             00000001800aac10 f   sfc_mex:sfc_sf.obj
 0001:000a9cc0       mdl_initialize_conditions_processing 00000001800aacc0 f   sfc_mex:sfc_sf.obj
 0001:000a9cf0       mdlInitializeConditions    00000001800aacf0 f   sfc_mex:sfc_sf.obj
 0001:000a9db0       mdlGetSimState             00000001800aadb0 f   sfc_mex:sfc_sf.obj
 0001:000a9dc0       mdlSetSimState             00000001800aadc0 f   sfc_mex:sfc_sf.obj
 0001:000a9dd0       mdl_ext_mode_exec_processing 00000001800aadd0 f   sfc_mex:sfc_sf.obj
 0001:000a9df0       mdlExtModeExec             00000001800aadf0 f   sfc_mex:sfc_sf.obj
 0001:000a9f80       mdlTerminate               00000001800aaf80 f   sfc_mex:sfc_sf.obj
 0001:000a9ff0       mdlRTW                     00000001800aaff0 f   sfc_mex:sfc_sf.obj
 0001:000aa020       mdlSetWorkWidths           00000001800ab020 f   sfc_mex:sfc_sf.obj
 0001:000aa030       mdlProcessParameters       00000001800ab030 f   sfc_mex:sfc_sf.obj
 0001:000aa040       mdl_start_processing       00000001800ab040 f   sfc_mex:sfc_sf.obj
 0001:000aa080       mdlStart                   00000001800ab080 f   sfc_mex:sfc_sf.obj
 0001:000aa170       mdlEnable                  00000001800ab170 f   sfc_mex:sfc_sf.obj
 0001:000aa240       mdlDisable                 00000001800ab240 f   sfc_mex:sfc_sf.obj
 0001:000aa2f0       sf_get_chart_instance_ptr  00000001800ab2f0 f   sfc_mex:sfc_sf.obj
 0001:000aa310       sf_rtw_info_uint_prop      00000001800ab310 f   sfc_mex:sfc_sf.obj
 0001:000aa480       sf_is_chart_inlinable      00000001800ab480 f   sfc_mex:sfc_sf.obj
 0001:000aa4a0       sf_mark_output_events_with_multiple_callers 00000001800ab4a0 f   sfc_mex:sfc_sf.obj
 0001:000aa660       sf_mark_chart_reusable_outputs 00000001800ab660 f   sfc_mex:sfc_sf.obj
 0001:000aa8e0       sf_mark_chart_expressionable_inputs 00000001800ab8e0 f   sfc_mex:sfc_sf.obj
 0001:000aac40       sf_get_subchart_simstruct  00000001800abc40 f   sfc_mex:sfc_sf.obj
 0001:000aac90       sf_write_symbol_mapping    00000001800abc90 f   sfc_mex:sfc_sf.obj
 0001:000aaee0       sf_get_fixpt_data_type_id  00000001800abee0 f   sfc_mex:sfc_sf.obj
 0001:000aaf20       sf_get_enum_data_type_id   00000001800abf20 f   sfc_mex:sfc_sf.obj
 0001:000aaf60       sf_get_param_data_type_id  00000001800abf60 f   sfc_mex:sfc_sf.obj
 0001:000aaf90       sf_mex_listen_for_ctrl_c_force 00000001800abf90 f   sfc_mex:sfc_sf.obj
 0001:000ab0a0       sf_mex_draw_now            00000001800ac0a0 f   sfc_mex:sfc_sf.obj
 0001:000ab0e0       sf_mex_set_debugger_sim_status_listener_fcn 00000001800ac0e0 f   sfc_mex:sfc_sf.obj
 0001:000ab0f0       sf_mex_listen_for_ctrl_c   00000001800ac0f0 f   sfc_mex:sfc_sf.obj
 0001:000ab180       sf_mex_get_sfun_param      00000001800ac180 f   sfc_mex:sfc_sf.obj
 0001:000ab1d0       sf_get_runtime_param_data  00000001800ac1d0 f   sfc_mex:sfc_sf.obj
 0001:000ab210       sf_call_output_fcn_call    00000001800ac210 f   sfc_mex:sfc_sf.obj
 0001:000ab350       sf_call_output_fcn_enable  00000001800ac350 f   sfc_mex:sfc_sf.obj
 0001:000ab3e0       sf_call_output_fcn_disable 00000001800ac3e0 f   sfc_mex:sfc_sf.obj
 0001:000ab470       sf_clear_rtw_identifier    00000001800ac470 f   sfc_mex:sfc_sf.obj
 0001:000abc60       sf_set_encoded_dwork_info  00000001800acc60 f   sfc_mex:sfc_sf.obj
 0001:000abcb0       sf_get_dwork_info_from_mat_file 00000001800accb0 f   sfc_mex:sfc_sf.obj
 0001:000abea0       sf_set_rtw_dwork_info      00000001800acea0 f   sfc_mex:sfc_sf.obj
 0001:000ac010       mdlOutputs                 00000001800ad010 f   sfc_mex:sfc_sf.obj
 0001:000ac1b0       sf_debug_disp              00000001800ad1b0 f   sfc_debug:sfcdebug.obj
 0001:000ac410       sf_debug_data_runtime_size_mismatch_error_check 00000001800ad410 f   sfc_debug:sfcdebug.obj
 0001:000ac4b0       sf_debug_try_loading_machine 00000001800ad4b0 f   sfc_debug:sfcdebug.obj
 0001:000ac5b0       sf_debug_reset_current_state_configuration 00000001800ad5b0 f   sfc_debug:sfcdebug.obj
 0001:000ac640       sf_debug_store_current_state_configuration 00000001800ad640 f   sfc_debug:sfcdebug.obj
 0001:000ac6d0       sf_debug_restore_previous_state_configuration 00000001800ad6d0 f   sfc_debug:sfcdebug.obj
 0001:000ac760       sf_debug_restore_previous_state_configuration2 00000001800ad760 f   sfc_debug:sfcdebug.obj
 0001:000ac7f0       sf_debug_get_event_scope   00000001800ad7f0 f   sfc_debug:sfcdebug.obj
 0001:000ac960       use_debugger_step_animation 00000001800ad960 f   sfc_debug:sfcdebug.obj
 0001:000ac980       sf_debug_get_script_id     00000001800ad980 f   sfc_debug:sfcdebug.obj
 0001:000aca10       sf_debug_set_script_translation 00000001800ada10 f   sfc_debug:sfcdebug.obj
 0001:000acad0       sf_debug_get_current_machine_id 00000001800adad0 f   sfc_debug:sfcdebug.obj
 0001:000acaf0       sf_debug_get_current_optional_integer 00000001800adaf0 f   sfc_debug:sfcdebug.obj
 0001:000acb00       sf_debug_get_current_machine_number 00000001800adb00 f   sfc_debug:sfcdebug.obj
 0001:000acb20       sf_debug_get_current_machine_name 00000001800adb20 f   sfc_debug:sfcdebug.obj
 0001:000acb40       sf_debug_get_current_chart_id 00000001800adb40 f   sfc_debug:sfcdebug.obj
 0001:000acb90       sf_debug_get_current_chart_number 00000001800adb90 f   sfc_debug:sfcdebug.obj
 0001:000acba0       sf_debug_get_current_instance_number 00000001800adba0 f   sfc_debug:sfcdebug.obj
 0001:000acbb0       sf_debug_get_current_is_minor_time_step 00000001800adbb0 f   sfc_debug:sfcdebug.obj
 0001:000acc30       sf_debug_get_current_object_type 00000001800adc30 f   sfc_debug:sfcdebug.obj
 0001:000acc40       sf_debug_get_current_instance_handle 00000001800adc40 f   sfc_debug:sfcdebug.obj
 0001:000acca0       sf_debug_get_current_event_type 00000001800adca0 f   sfc_debug:sfcdebug.obj
 0001:000accb0       sf_debug_get_current_object_id 00000001800adcb0 f   sfc_debug:sfcdebug.obj
 0001:000accf0       sf_debug_get_current_active_event_type 00000001800adcf0 f   sfc_debug:sfcdebug.obj
 0001:000acd00       sf_debug_get_current_active_event_id 00000001800add00 f   sfc_debug:sfcdebug.obj
 0001:000acd40       sf_debug_get_current_tag_type 00000001800add40 f   sfc_debug:sfcdebug.obj
 0001:000acd50       sf_debug_get_current_simulation_time 00000001800add50 f   sfc_debug:sfcdebug.obj
 0001:000acd60       sf_debug_get_current_coverage_percentage 00000001800add60 f   sfc_debug:sfcdebug.obj
 0001:000acd70       sf_debug_current_statement_context 00000001800add70 f   sfc_debug:sfcdebug.obj
 0001:000ace00       sf_debug_get_current_statement_info 00000001800ade00 f   sfc_debug:sfcdebug.obj
 0001:000acf80       sf_debug_terminate_instance 00000001800adf80 f   sfc_debug:sfcdebug.obj
 0001:000ad290       sf_debug_assertion_failed  00000001800ae290 f   sfc_debug:sfcdebug.obj
 0001:000ad440       sf_debug_set_number_of_data_with_change_event_for_machine 00000001800ae440 f   sfc_debug:sfcdebug.obj
 0001:000ad480       sf_debug_set_machine_event_thresholds 00000001800ae480 f   sfc_debug:sfcdebug.obj
 0001:000ad4a0       sf_debug_set_machine_event_scope 00000001800ae4a0 f   sfc_debug:sfcdebug.obj
 0001:000ad4e0       sf_debug_set_machine_data_thresholds 00000001800ae4e0 f   sfc_debug:sfcdebug.obj
 0001:000ad520       sf_debug_set_machine_data_scope 00000001800ae520 f   sfc_debug:sfcdebug.obj
 0001:000ad5b0       sf_debug_set_machine_data_name 00000001800ae5b0 f   sfc_debug:sfcdebug.obj
 0001:000ad650       sf_debug_set_machine_data_size 00000001800ae650 f   sfc_debug:sfcdebug.obj
 0001:000ad790       sf_debug_set_machine_data_type 00000001800ae790 f   sfc_debug:sfcdebug.obj
 0001:000ad900       sf_debug_get_chart_data_number 00000001800ae900 f   sfc_debug:sfcdebug.obj
 0001:000ad920       sf_debug_get_chart_event_number 00000001800ae920 f   sfc_debug:sfcdebug.obj
 0001:000ad940       sf_debug_set_chart_state_info 00000001800ae940 f   sfc_debug:sfcdebug.obj
 0001:000ad9c0       sf_debug_set_chart_decomposition 00000001800ae9c0 f   sfc_debug:sfcdebug.obj
 0001:000ada30       sf_debug_set_chart_substate_count 00000001800aea30 f   sfc_debug:sfcdebug.obj
 0001:000adb10       sf_debug_set_chart_substate_index 00000001800aeb10 f   sfc_debug:sfcdebug.obj
 0001:000adb80       sf_debug_set_chart_state_substate_count 00000001800aeb80 f   sfc_debug:sfcdebug.obj
 0001:000adc90       sf_debug_set_chart_state_substate_index 00000001800aec90 f   sfc_debug:sfcdebug.obj
 0001:000add10       sf_debug_set_number_of_data_with_change_event_for_chart 00000001800aed10 f   sfc_debug:sfcdebug.obj
 0001:000add90       sf_debug_set_number_of_states_with_entry_event_for_chart 00000001800aed90 f   sfc_debug:sfcdebug.obj
 0001:000ade00       sf_debug_set_number_of_states_with_exit_event_for_chart 00000001800aee00 f   sfc_debug:sfcdebug.obj
 0001:000ade70       sf_debug_set_chart_disable_implicit_casting 00000001800aee70 f   sfc_debug:sfcdebug.obj
 0001:000adee0       sf_debug_set_chart_event_thresholds 00000001800aeee0 f   sfc_debug:sfcdebug.obj
 0001:000adf50       sf_debug_set_chart_data_compiled_props 00000001800aef50 f   sfc_debug:sfcdebug.obj
 0001:000ae2a0       sf_debug_set_chart_data_props 00000001800af2a0 f   sfc_debug:sfcdebug.obj
 0001:000ae5c0       sf_debug_check_fi_license  00000001800af5c0 f   sfc_debug:sfcdebug.obj
 0001:000ae7b0       sf_debug_symbol_scope_push 00000001800af7b0 f   sfc_debug:sfcdebug.obj
 0001:000ae7f0       sf_debug_symbol_scope_push_eml 00000001800af7f0 f   sfc_debug:sfcdebug.obj
 0001:000ae840       sf_debug_symbol_scope_pop  00000001800af840 f   sfc_debug:sfcdebug.obj
 0001:000ae880       sf_debug_symbol_scope_add_importable 00000001800af880 f   sfc_debug:sfcdebug.obj
 0001:000ae900       sf_debug_symbol_scope_add  00000001800af900 f   sfc_debug:sfcdebug.obj
 0001:000ae980       sf_debug_symbol_scope_add_dyn_importable 00000001800af980 f   sfc_debug:sfcdebug.obj
 0001:000aea40       sf_debug_symbol_scope_add_dyn 00000001800afa40 f   sfc_debug:sfcdebug.obj
 0001:000aea70       sf_debug_symbol_scope_add_eml_importable 00000001800afa70 f   sfc_debug:sfcdebug.obj
 0001:000aeab0       sf_debug_symbol_scope_add_eml 00000001800afab0 f   sfc_debug:sfcdebug.obj
 0001:000aeaf0       sf_debug_symbol_scope_add_eml_dyn_importable 00000001800afaf0 f   sfc_debug:sfcdebug.obj
 0001:000aeb60       sf_debug_symbol_scope_add_eml_dyn 00000001800afb60 f   sfc_debug:sfcdebug.obj
 0001:000aebc0       sf_debug_symbol_switch     00000001800afbc0 f   sfc_debug:sfcdebug.obj
 0001:000aebe0       sf_debug_symbol_scope_add_verbose 00000001800afbe0 f   sfc_debug:sfcdebug.obj
 0001:000aecb0       sf_debug_set_machine_data_value_ptr 00000001800afcb0 f   sfc_debug:sfcdebug.obj
 0001:000aecf0       sf_debug_set_instance_data_value_ptr 00000001800afcf0 f   sfc_debug:sfcdebug.obj
 0001:000aedb0       sf_debug_unset_instance_data_value_ptr 00000001800afdb0 f   sfc_debug:sfcdebug.obj
 0001:000aee60       sf_debug_set_chart_event_scope 00000001800afe60 f   sfc_debug:sfcdebug.obj
 0001:000aeee0       sf_debug_set_chart_transition_coverage_maps 00000001800afee0 f   sfc_debug:sfcdebug.obj
 0001:000aeff0       sf_debug_set_chart_state_coverage_maps 00000001800afff0 f   sfc_debug:sfcdebug.obj
 0001:000af0d0       sf_debug_set_instance_transition_coverage_weights 00000001800b00d0 f   sfc_debug:sfcdebug.obj
 0001:000af170       sf_debug_set_instance_state_coverage_weights 00000001800b0170 f   sfc_debug:sfcdebug.obj
 0001:000af3c0       sf_debug_unload_machine    00000001800b03c0 f   sfc_debug:sfcdebug.obj
 0001:000af410       sf_debug_load_machine      00000001800b0410 f   sfc_debug:sfcdebug.obj
 0001:000af510       sf_debug_set_active_instance_in_data_dictionary 00000001800b0510 f   sfc_debug:sfcdebug.obj
 0001:000af6f0       sf_debug_set_active_instance 00000001800b06f0 f   sfc_debug:sfcdebug.obj
 0001:000af830       sf_debug_chart_visiblity_change 00000001800b0830 f   sfc_debug:sfcdebug.obj
 0001:000af910       sf_debug_select_chart      00000001800b0910 f   sfc_debug:sfcdebug.obj
 0001:000af9e0       sf_debug_set_instance_cv_ids 00000001800b09e0 f   sfc_debug:sfcdebug.obj
 0001:000afcf0       sf_debug_select_charts     00000001800b0cf0 f   sfc_debug:sfcdebug.obj
 0001:000afe30       sf_debug_initialized       00000001800b0e30 f   sfc_debug:sfcdebug.obj
 0001:000afe40       sf_debug_is_uninterruptible 00000001800b0e40 f   sfc_debug:sfcdebug.obj
 0001:000afe70       sf_debug_initialize_debugger_gui 00000001800b0e70 f   sfc_debug:sfcdebug.obj
 0001:000b0260       sf_debug_resume            00000001800b1260 f   sfc_debug:sfcdebug.obj
 0001:000b0280       sf_debug_go                00000001800b1280 f   sfc_debug:sfcdebug.obj
 0001:000b0290       sf_debug_break             00000001800b1290 f   sfc_debug:sfcdebug.obj
 0001:000b02a0       sf_debug_step_over         00000001800b12a0 f   sfc_debug:sfcdebug.obj
 0001:000b02b0       sf_debug_step_out          00000001800b12b0 f   sfc_debug:sfcdebug.obj
 0001:000b02c0       sf_debug_set_disable_all_breakpoints 00000001800b12c0 f   sfc_debug:sfcdebug.obj
 0001:000b02d0       sf_debug_disable_all_breakpoints_and_go 00000001800b12d0 f   sfc_debug:sfcdebug.obj
 0001:000b02e0       sf_debug_break_on_chart_entry 00000001800b12e0 f   sfc_debug:sfcdebug.obj
 0001:000b02f0       sf_debug_break_on_event_broadcast 00000001800b12f0 f   sfc_debug:sfcdebug.obj
 0001:000b0300       sf_debug_break_on_state_entry 00000001800b1300 f   sfc_debug:sfcdebug.obj
 0001:000b0310       sf_debug_break_between_times 00000001800b1310 f   sfc_debug:sfcdebug.obj
 0001:000b0330       sf_debug_browse_data       00000001800b1330 f   sfc_debug:sfcdebug.obj
 0001:000b0350       sf_debug_watch_data        00000001800b1350 f   sfc_debug:sfcdebug.obj
 0001:000b0370       sf_debug_assign_data       00000001800b1370 f   sfc_debug:sfcdebug.obj
 0001:000b0390       sf_debug_whos              00000001800b1390 f   sfc_debug:sfcdebug.obj
 0001:000b03b0       sf_debug_get_consistency_info 00000001800b13b0 f   sfc_debug:sfcdebug.obj
 0001:000b03c0       sf_debug_browse_trace      00000001800b13c0 f   sfc_debug:sfcdebug.obj
 0001:000b03d0       sf_debug_set_breakpoints   00000001800b13d0 f   sfc_debug:sfcdebug.obj
 0001:000b0530       sf_debug_set_eml_breakpoints 00000001800b1530 f   sfc_debug:sfcdebug.obj
 0001:000b0690       sf_debug_set_script_breakpoints 00000001800b1690 f   sfc_debug:sfcdebug.obj
 0001:000b0710       sf_debug_add_script_breakpoints 00000001800b1710 f   sfc_debug:sfcdebug.obj
 0001:000b0780       sf_debug_clear_script_breakpoints 00000001800b1780 f   sfc_debug:sfcdebug.obj
 0001:000b07f0       sf_debug_query_script_breakpoints 00000001800b17f0 f   sfc_debug:sfcdebug.obj
 0001:000b08b0       sf_debug_get_eml_script_id 00000001800b18b0 f   sfc_debug:sfcdebug.obj
 0001:000b0900       sf_debug_set_watch         00000001800b1900 f   sfc_debug:sfcdebug.obj
 0001:000b0b30       sf_debug_get_coverage      00000001800b1b30 f   sfc_debug:sfcdebug.obj
 0001:000b0b40       sf_debug_get_instance_handle 00000001800b1b40 f   sfc_debug:sfcdebug.obj
 0001:000b0bd0       sf_debug_get_active_states 00000001800b1bd0 f   sfc_debug:sfcdebug.obj
 0001:000b0be0       sf_debug_get_animation     00000001800b1be0 f   sfc_debug:sfcdebug.obj
 0001:000b0bf0       sf_debug_set_animation     00000001800b1bf0 f   sfc_debug:sfcdebug.obj
 0001:000b0c00       sf_debug_animate           00000001800b1c00 f   sfc_debug:sfcdebug.obj
 0001:000b0c30       sf_debug_cycle_detection_check 00000001800b1c30 f   sfc_debug:sfcdebug.obj
 0001:000b0c40       sf_debug_data_range_check  00000001800b1c40 f   sfc_debug:sfcdebug.obj
 0001:000b0c50       sf_debug_transition_conflict_check 00000001800b1c50 f   sfc_debug:sfcdebug.obj
 0001:000b0c60       sf_debug_state_consistency_check 00000001800b1c60 f   sfc_debug:sfcdebug.obj
 0001:000b0c70       sf_debug_data_range_check_enabled 00000001800b1c70 f   sfc_debug:sfcdebug.obj
 0001:000b0c90       sf_debug_transition_conflict_check_enabled 00000001800b1c90 f   sfc_debug:sfcdebug.obj
 0001:000b0cb0       sf_debug_transition_conflict_check_begin 00000001800b1cb0 f   sfc_debug:sfcdebug.obj
 0001:000b0cd0       sf_debug_transition_conflict_check_end 00000001800b1cd0 f   sfc_debug:sfcdebug.obj
 0001:000b0cf0       sf_debug_stop_debugging    00000001800b1cf0 f   sfc_debug:sfcdebug.obj
 0001:000b0d20       sf_debug_is_cycle_detected 00000001800b1d20 f   sfc_debug:sfcdebug.obj
 0001:000b0d30       sf_debug_is_array_bounds_detected 00000001800b1d30 f   sfc_debug:sfcdebug.obj
 0001:000b0d40       sf_debug_get_state_vectors_data_size 00000001800b1d40 f   sfc_debug:sfcdebug.obj
 0001:000b0d80       sf_debug_get_state_vectors_data 00000001800b1d80 f   sfc_debug:sfcdebug.obj
 0001:000b0e80       sf_debug_set_state_vectors_data 00000001800b1e80 f   sfc_debug:sfcdebug.obj
 0001:000b1140       sf_debug_get_script_index  00000001800b2140 f   sfc_debug:sfcdebug.obj
 0001:000b12d0       sf_debug_add_script        00000001800b22d0 f   sfc_debug:sfcdebug.obj
 0001:000b1460       cv_eval_point              00000001800b2460 f   sfc_debug:sfcdebug.obj
 0001:000b15d0       sf_debug_cv_init_state     00000001800b25d0 f   sfc_debug:sfcdebug.obj
 0001:000b16f0       sf_debug_cv_init_chart     00000001800b26f0 f   sfc_debug:sfcdebug.obj
 0001:000b17d0       sf_debug_cv_init_trans     00000001800b27d0 f   sfc_debug:sfcdebug.obj
 0001:000b1940       cv_eml_init_script         00000001800b2940 f   sfc_debug:sfcdebug.obj
 0001:000b1a20       cv_eml_init_fcn            00000001800b2a20 f   sfc_debug:sfcdebug.obj
 0001:000b1ad0       cv_eml_init_testobjective  00000001800b2ad0 f   sfc_debug:sfcdebug.obj
 0001:000b1b80       cv_eml_init_if             00000001800b2b80 f   sfc_debug:sfcdebug.obj
 0001:000b1c30       cv_eml_init_for            00000001800b2c30 f   sfc_debug:sfcdebug.obj
 0001:000b1ce0       cv_eml_init_while          00000001800b2ce0 f   sfc_debug:sfcdebug.obj
 0001:000b1d90       cv_eml_init_mcdc           00000001800b2d90 f   sfc_debug:sfcdebug.obj
 0001:000b1e90       cv_eml_init_switch         00000001800b2e90 f   sfc_debug:sfcdebug.obj
 0001:000b1f70       cv_eml_eval                00000001800b2f70 f   sfc_debug:sfcdebug.obj
 0001:000b2050       sf_debug_bm_is_a_eml_breakpoint 00000001800b3050 f   sfc_debug:sfcdebug.obj
 0001:000b21a0       sf_debug_temporal_threshold 00000001800b31a0 f   sfc_debug:sfcdebug.obj
 0001:000b2500       sf_debug_transition_conflict_error 00000001800b3500 f   sfc_debug:sfcdebug.obj
 0001:000b2880       sf_debug_state_inconsistency_error 00000001800b3880 f   sfc_debug:sfcdebug.obj
 0001:000b29a0       sf_debug_check_for_state_inconsistency 00000001800b39a0 f   sfc_debug:sfcdebug.obj
 0001:000b29d0       sf_debug_cycle_detecton_error 00000001800b39d0 f   sfc_debug:sfcdebug.obj
 0001:000b31c0       sf_debug_size_eq_check_1d  00000001800b41c0 f   sfc_debug:sfcdebug.obj
 0001:000b31e0       sf_debug_size_eq_check_nd  00000001800b41e0 f   sfc_debug:sfcdebug.obj
 0001:000b33c0       sf_debug_dim_size_eq_check 00000001800b43c0 f   sfc_debug:sfcdebug.obj
 0001:000b33f0       sf_debug_dim_size_geq_check 00000001800b43f0 f   sfc_debug:sfcdebug.obj
 0001:000b3420       sf_debug_sub_assign_size_check_nd 00000001800b4420 f   sfc_debug:sfcdebug.obj
 0001:000b3660       sf_debug_matrix_matrix_index_check 00000001800b4660 f   sfc_debug:sfcdebug.obj
 0001:000b3690       sf_debug_vector_vector_index_check 00000001800b4690 f   sfc_debug:sfcdebug.obj
 0001:000b36c0       sf_debug_runtime_error_msgid 00000001800b46c0 f   sfc_debug:sfcdebug.obj
 0001:000b3750       sf_debug_data_array_bounds_error_check 00000001800b4750 f   sfc_debug:sfcdebug.obj
 0001:000b3860       sf_debug_eml_data_array_bounds_error_check 00000001800b4860 f   sfc_debug:sfcdebug.obj
 0001:000b3d40       sf_debug_integer_check     00000001800b4d40 f   sfc_debug:sfcdebug.obj
 0001:000b3e20       sf_debug_not_nan_check     00000001800b4e20 f   sfc_debug:sfcdebug.obj
 0001:000b3ee0       sf_debug_non_negative_check 00000001800b4ee0 f   sfc_debug:sfcdebug.obj
 0001:000b3fa0       sf_debug_overflow_detection 00000001800b4fa0 f   sfc_debug:sfcdebug.obj
 0001:000b4690       sf_debug_cast_to_real32_T  00000001800b5690 f   sfc_debug:sfcdebug.obj
 0001:000b4750       sf_debug_cast_to_int8_T    00000001800b5750 f   sfc_debug:sfcdebug.obj
 0001:000b4810       sf_debug_cast_to_uint8_T   00000001800b5810 f   sfc_debug:sfcdebug.obj
 0001:000b48d0       sf_debug_cast_to_int16_T   00000001800b58d0 f   sfc_debug:sfcdebug.obj
 0001:000b4990       sf_debug_cast_to_uint16_T  00000001800b5990 f   sfc_debug:sfcdebug.obj
 0001:000b4a50       sf_debug_cast_to_int32_T   00000001800b5a50 f   sfc_debug:sfcdebug.obj
 0001:000b4b10       sf_debug_cast_to_uint32_T  00000001800b5b10 f   sfc_debug:sfcdebug.obj
 0001:000b4bd0       sf_debug_data_range_error  00000001800b5bd0 f   sfc_debug:sfcdebug.obj
 0001:000b5050       sf_debug_data_range_error_wrapper_min_max 00000001800b6050 f   sfc_debug:sfcdebug.obj
 0001:000b5140       sf_debug_data_range_error_wrapper_min 00000001800b6140 f   sfc_debug:sfcdebug.obj
 0001:000b5220       sf_debug_data_range_error_wrapper_max 00000001800b6220 f   sfc_debug:sfcdebug.obj
 0001:000b5300       sf_debug_data_range_wrapper 00000001800b6300 f   sfc_debug:sfcdebug.obj
 0001:000b53b0       sf_debug_set_current_status_info 00000001800b63b0 f   sfc_debug:sfcdebug.obj
 0001:000b5760       sf_debug_call              00000001800b6760 f   sfc_debug:sfcdebug.obj
 0001:000b6620       sf_debug_initialize_machine 00000001800b7620 f   sfc_debug:sfcdebug.obj
 0001:000b6930       sf_debug_initialize_chart  00000001800b7930 f   sfc_debug:sfcdebug.obj
 0001:000b6e10       sf_debug_ensure_script     00000001800b7e10 f   sfc_debug:sfcdebug.obj
 0001:000b6ed0       cv_script_init_script      00000001800b7ed0 f   sfc_debug:sfcdebug.obj
 0001:000b6fb0       cv_script_init_fcn         00000001800b7fb0 f   sfc_debug:sfcdebug.obj
 0001:000b7060       cv_script_init_testobjective 00000001800b8060 f   sfc_debug:sfcdebug.obj
 0001:000b7110       cv_script_init_if          00000001800b8110 f   sfc_debug:sfcdebug.obj
 0001:000b71c0       cv_script_init_for         00000001800b81c0 f   sfc_debug:sfcdebug.obj
 0001:000b7270       cv_script_init_while       00000001800b8270 f   sfc_debug:sfcdebug.obj
 0001:000b7320       cv_script_init_mcdc        00000001800b8320 f   sfc_debug:sfcdebug.obj
 0001:000b7420       cv_script_init_switch      00000001800b8420 f   sfc_debug:sfcdebug.obj
 0001:000b7500       cv_script_eval             00000001800b8500 f   sfc_debug:sfcdebug.obj
 0001:000b75e0       eml_debug_line_call        00000001800b85e0 f   sfc_debug:sfcdebug.obj
 0001:000b7790       sf_debug_terminate         00000001800b8790 f   sfc_debug:sfcdebug.obj
 0001:000b7900       sf_debug_set_script_cv_ids 00000001800b8900 f   sfc_debug:sfcdebug.obj
 0001:000b7ad0       sf_debug_api               00000001800b8ad0 f   sfc_debug:sfc_api.obj
 0001:000b9300       sf_debug_sm_terminate      00000001800ba300 f   sfc_debug:sfdb_animation.obj
 0001:000b94c0       sf_debug_reset_path_objects 00000001800ba4c0 f   sfc_debug:sfdb_animation.obj
 0001:000b9540       sf_debug_sm_reset_object_selection_status 00000001800ba540 f   sfc_debug:sfdb_animation.obj
 0001:000b95e0       sf_debug_sm_reset_state_buffer 00000001800ba5e0 f   sfc_debug:sfdb_animation.obj
 0001:000b96b0       sf_debug_sm_store_state_buffer 00000001800ba6b0 f   sfc_debug:sfdb_animation.obj
 0001:000b9730       sf_debug_sm_restore_state_buffer1 00000001800ba730 f   sfc_debug:sfdb_animation.obj
 0001:000b97a0       sf_debug_sm_restore_state_buffer2 00000001800ba7a0 f   sfc_debug:sfdb_animation.obj
 0001:000b9810       sf_debug_sm_chart_active   00000001800ba810 f   sfc_debug:sfdb_animation.obj
 0001:000b9860       sf_debug_sm_select_active_objects 00000001800ba860 f   sfc_debug:sfdb_animation.obj
 0001:000b9d10       sf_debug_sm_is_chart_active 00000001800bad10 f   sfc_debug:sfdb_animation.obj
 0001:000b9d50       sf_debug_sm_is_state_active 00000001800bad50 f   sfc_debug:sfdb_animation.obj
 0001:000b9f90       sf_debug_sm_get_active_states 00000001800baf90 f   sfc_debug:sfdb_animation.obj
 0001:000ba550       sf_debug_sm_initialize_instance 00000001800bb550 f   sfc_debug:sfdb_animation.obj
 0001:000ba7a0       sf_debug_sm_change_object_selection_status 00000001800bb7a0 f   sfc_debug:sfdb_animation.obj
 0001:000baa90       cv_create_interface        00000001800bba90 f   sfc_debug:cv_sfinterface.obj
 0001:000badf0       cv_init_trans              00000001800bbdf0 f   sfc_debug:cv_sfinterface.obj
 0001:000bae40       cv_init_state              00000001800bbe40 f   sfc_debug:cv_sfinterface.obj
 0001:000baeb0       cv_init_chart              00000001800bbeb0 f   sfc_debug:cv_sfinterface.obj
 0001:000baf00       cv_dec_update_call         00000001800bbf00 f   sfc_debug:cv_sfinterface.obj
 0001:000baf40       cv_cond_update_call        00000001800bbf40 f   sfc_debug:cv_sfinterface.obj
 0001:000baf80       cv_sigrange_update         00000001800bbf80 f   sfc_debug:cv_sfinterface.obj
 0001:000bafc0       cvsf_eml_eval              00000001800bbfc0 f   sfc_debug:cv_sfinterface.obj
 0001:000bb0a0       cvsf_eml_init_script       00000001800bc0a0 f   sfc_debug:cv_sfinterface.obj
 0001:000bb120       cvsf_eml_init_fcn          00000001800bc120 f   sfc_debug:cv_sfinterface.obj
 0001:000bb180       cvsf_eml_init_testobjective 00000001800bc180 f   sfc_debug:cv_sfinterface.obj
 0001:000bb1e0       cvsf_eml_init_if           00000001800bc1e0 f   sfc_debug:cv_sfinterface.obj
 0001:000bb240       cvsf_eml_init_for          00000001800bc240 f   sfc_debug:cv_sfinterface.obj
 0001:000bb290       cvsf_eml_init_while        00000001800bc290 f   sfc_debug:cv_sfinterface.obj
 0001:000bb2e0       cvsf_eml_init_mcdc         00000001800bc2e0 f   sfc_debug:cv_sfinterface.obj
 0001:000bb370       cvsf_eml_init_switch       00000001800bc370 f   sfc_debug:cv_sfinterface.obj
 0001:000bb3e0       cvsf_script_eval           00000001800bc3e0 f   sfc_debug:cv_sfinterface.obj
 0001:000bb4c0       cvsf_script_init_script    00000001800bc4c0 f   sfc_debug:cv_sfinterface.obj
 0001:000bb540       cvsf_script_init_fcn       00000001800bc540 f   sfc_debug:cv_sfinterface.obj
 0001:000bb5a0       cvsf_script_init_testobjective 00000001800bc5a0 f   sfc_debug:cv_sfinterface.obj
 0001:000bb600       cvsf_script_init_if        00000001800bc600 f   sfc_debug:cv_sfinterface.obj
 0001:000bb660       cvsf_script_init_for       00000001800bc660 f   sfc_debug:cv_sfinterface.obj
 0001:000bb6b0       cvsf_script_init_while     00000001800bc6b0 f   sfc_debug:cv_sfinterface.obj
 0001:000bb700       cvsf_script_init_mcdc      00000001800bc700 f   sfc_debug:cv_sfinterface.obj
 0001:000bb790       cvsf_script_init_switch    00000001800bc790 f   sfc_debug:cv_sfinterface.obj
 0001:000bb800       cv_destroy_interface       00000001800bc800 f   sfc_debug:cv_sfinterface.obj
 0001:000bb820       cv_create_instance_objects 00000001800bc820 f   sfc_debug:cv_sfinterface.obj
 0001:000bbcd0       cv_is_enabled              00000001800bccd0 f   sfc_debug:cv_sfinterface.obj
 0001:000bbce0       sf_debug_cv_initialize_script 00000001800bcce0 f   sfc_debug:cv_sfinterface.obj
 0001:000bbe90       sf_debug_cv_initialize_instance 00000001800bce90 f   sfc_debug:cv_sfinterface.obj
 0001:000bc230       sf_debug_cv_terminate_chart 00000001800bd230 f   sfc_debug:cv_sfinterface.obj
 0001:000bc370       cv_call_trans_test         00000001800bd370 f   sfc_debug:cv_sfinterface.obj
 0001:000bc380       cv_call_sub_cond_test      00000001800bd380 f   sfc_debug:cv_sfinterface.obj
 0001:000bc4b0       sf_debug_hm_initialize_instance 00000001800bd4b0 f   sfc_debug:sfdb_handle_management.obj
 0001:000bca30       sf_debug_hm_get_object_id  00000001800bda30 f   sfc_debug:sfdb_handle_management.obj
 0001:000be9a0       sf_debug_object_is_eml_function 00000001800bf9a0 f   sfc_debug:sfdb_handle_management.obj
 0001:000bea10       sf_debug_hm_initialize_ids_in_machine 00000001800bfa10 f   sfc_debug:sfdb_handle_management.obj
 0001:000beb80       sf_debug_hm_initialize_ids_in_chart 00000001800bfb80 f   sfc_debug:sfdb_handle_management.obj
 0001:000becc0       sf_debug_hm_initialize_chart 00000001800bfcc0 f   sfc_debug:sfdb_handle_management.obj
 0001:000bf470       sf_debug_hm_terminate      00000001800c0470 f   sfc_debug:sfdb_handle_management.obj
 0001:000bf4d0       sf_debug_hm_initialize_machine 00000001800c04d0 f   sfc_debug:sfdb_handle_management.obj
 0001:000bfc80       sf_debug_st_initialize_machine 00000001800c0c80 f   sfc_debug:sfdb_data_browse.obj
 0001:000bfd40       sf_debug_st_initialize_instance 00000001800c0d40 f   sfc_debug:sfdb_data_browse.obj
 0001:000bff70       sf_debug_st_terminate      00000001800c0f70 f   sfc_debug:sfdb_data_browse.obj
 0001:000c0310       sf_debug_st_set_data_value_ptr_in_machine 00000001800c1310 f   sfc_debug:sfdb_data_browse.obj
 0001:000c03a0       sf_debug_st_set_data_value_ptr_in_instance 00000001800c13a0 f   sfc_debug:sfdb_data_browse.obj
 0001:000c0480       sf_debug_st_unset_data_value_ptr_in_machine 00000001800c1480 f   sfc_debug:sfdb_data_browse.obj
 0001:000c04f0       sf_debug_st_unset_data_value_ptr_in_instance 00000001800c14f0 f   sfc_debug:sfdb_data_browse.obj
 0001:000c0800       sf_debug_mx_value          00000001800c1800 f   sfc_debug:sfdb_data_browse.obj
 0001:000c0860       sf_debug_mx_packed_vector  00000001800c1860 f   sfc_debug:sfdb_data_browse.obj
 0001:000c0940       sf_debug_mx_uint_vector    00000001800c1940 f   sfc_debug:sfdb_data_browse.obj
 0001:000c0a00       sf_debug_st_get_double_value_from_void_ptr_vector 00000001800c1a00 f   sfc_debug:sfdb_data_browse.obj
 0001:000c14f0       sf_debug_st_browse_data    00000001800c24f0 f   sfc_debug:sfdb_data_browse.obj
 0001:000c1c90       sf_debug_ss_initialize     00000001800c2c90 f   sfc_debug:sfdb_symbol_scope.obj
 0001:000c1cb0       sf_debug_ss_terminate      00000001800c2cb0 f   sfc_debug:sfdb_symbol_scope.obj
 0001:000c1d40       sf_debug_ss_push_symbol_scope 00000001800c2d40 f   sfc_debug:sfdb_symbol_scope.obj
 0001:000c1e40       sf_debug_ss_push_symbol_scope_eml 00000001800c2e40 f   sfc_debug:sfdb_symbol_scope.obj
 0001:000c1ea0       sf_debug_ss_pop_symbol_scope 00000001800c2ea0 f   sfc_debug:sfdb_symbol_scope.obj
 0001:000c1f50       sf_debug_ss_add_symbol     00000001800c2f50 f   sfc_debug:sfdb_symbol_scope.obj
 0001:000c20b0       sf_debug_ss_add_symbol_eml 00000001800c30b0 f   sfc_debug:sfdb_symbol_scope.obj
 0001:000c2d90       sf_debug_ss_set_data_value 00000001800c3d90 f   sfc_debug:sfdb_symbol_scope.obj
 0001:000c3230       sf_debug_ss_watch_data     00000001800c4230 f   sfc_debug:sfdb_symbol_scope.obj
 0001:000c32d0       sf_debug_ss_assign_data    00000001800c42d0 f   sfc_debug:sfdb_symbol_scope.obj
 0001:000c3cd0       get_data_entry_name        00000001800c4cd0 f   sfc_debug:sfdb_symbol_scope.obj
 0001:000c3d20       sf_debug_ss_whos           00000001800c4d20 f   sfc_debug:sfdb_symbol_scope.obj
 0001:000c4430       sf_debug_cc_initialize_chart 00000001800c5430 f   sfc_debug:sfdb_coverage.obj
 0001:000c4e20       sf_debug_cc_initialize_instance 00000001800c5e20 f   sfc_debug:sfdb_coverage.obj
 0001:000c5c20       sf_debug_cc_terminate      00000001800c6c20 f   sfc_debug:sfdb_coverage.obj
 0001:000c5d10       sf_debug_cc_set_transition_maps 00000001800c6d10 f   sfc_debug:sfdb_coverage.obj
 0001:000c5e40       sf_debug_cc_set_state_maps 00000001800c6e40 f   sfc_debug:sfdb_coverage.obj
 0001:000c5f20       sf_debug_cc_set_transition_weights 00000001800c6f20 f   sfc_debug:sfdb_coverage.obj
 0001:000c61f0       sf_debug_cc_set_state_weights 00000001800c71f0 f   sfc_debug:sfdb_coverage.obj
 0001:000c64c0       sf_debug_cc_mark_transition_guard 00000001800c74c0 f   sfc_debug:sfdb_coverage.obj
 0001:000c6550       sf_debug_cc_mark_transition_trigger 00000001800c7550 f   sfc_debug:sfdb_coverage.obj
 0001:000c65e0       sf_debug_cc_mark_transition_decision 00000001800c75e0 f   sfc_debug:sfdb_coverage.obj
 0001:000c6650       sf_debug_cc_mark_transition_condition_action 00000001800c7650 f   sfc_debug:sfdb_coverage.obj
 0001:000c66a0       sf_debug_cc_mark_transition_transition_action 00000001800c76a0 f   sfc_debug:sfdb_coverage.obj
 0001:000c66f0       sf_debug_cc_mark_state_entry 00000001800c76f0 f   sfc_debug:sfdb_coverage.obj
 0001:000c6740       sf_debug_cc_mark_state_during 00000001800c7740 f   sfc_debug:sfdb_coverage.obj
 0001:000c6790       sf_debug_cc_mark_state_exit 00000001800c7790 f   sfc_debug:sfdb_coverage.obj
 0001:000c6fd0       sf_debug_cc_get_coverage   00000001800c7fd0 f   sfc_debug:sfdb_coverage.obj
 0001:000c7570       sf_debug_bm_clear_script_breakpoints 00000001800c8570 f   sfc_debug:sfdb_breakpoints.obj
 0001:000c75a0       sf_debug_bm_set_script_breakpoint 00000001800c85a0 f   sfc_debug:sfdb_breakpoints.obj
 0001:000c7620       sf_debug_bm_clear_single_script_breakpoint 00000001800c8620 f   sfc_debug:sfdb_breakpoints.obj
 0001:000c76a0       sf_debug_bm_query_script_breakpoint 00000001800c86a0 f   sfc_debug:sfdb_breakpoints.obj
 0001:000c76f0       sf_debug_bm_initialize_scripts 00000001800c86f0 f   sfc_debug:sfdb_breakpoints.obj
 0001:000c7e10       sf_debug_bm_terminate      00000001800c8e10 f   sfc_debug:sfdb_breakpoints.obj
 0001:000c8100       sf_debug_bm_remove_all_breakpoints_in_machine 00000001800c9100 f   sfc_debug:sfdb_breakpoints.obj
 0001:000c8170       sf_debug_bm_remove_all_breakpoints_in_chart 00000001800c9170 f   sfc_debug:sfdb_breakpoints.obj
 0001:000c82c0       sf_debug_bm_initialize_global_breakpoints 00000001800c92c0 f   sfc_debug:sfdb_breakpoints.obj
 0001:000c8440       sf_debug_bm_set_breakpoint 00000001800c9440 f   sfc_debug:sfdb_breakpoints.obj
 0001:000c8a70       sf_debug_bm_set_eml_breakpoint 00000001800c9a70 f   sfc_debug:sfdb_breakpoints.obj
 0001:000c8b10       sf_debug_bm_initialize_machine_breakpoint_map 00000001800c9b10 f   sfc_debug:sfdb_breakpoints.obj
 0001:000c8f30       sf_debug_bm_is_a_breakpoint 00000001800c9f30 f   sfc_debug:sfdb_breakpoints.obj
 0001:000c9450       sf_debug_bm_get_all_breakpoints_in_machine 00000001800ca450 f   sfc_debug:sfdb_breakpoints.obj
 0001:000c9750       sf_debug_bm_get_all_breakpoints_in_chart 00000001800ca750 f   sfc_debug:sfdb_breakpoints.obj
 0001:000ca410       sf_debug_bm_initialize_machine 00000001800cb410 f   sfc_debug:sfdb_breakpoints.obj
 0001:000ca4e0       sf_debug_bm_initialize_chart 00000001800cb4e0 f   sfc_debug:sfdb_breakpoints.obj
 0001:000ca900       sf_debug_sc_terminate      00000001800cb900 f   sfc_debug:sfdb_state_consistency.obj
 0001:000cac30       sf_debug_sc_is_chart_consistent 00000001800cbc30 f   sfc_debug:sfdb_state_consistency.obj
 0001:000caee0       sf_debug_sc_get_consistency_error_info 00000001800cbee0 f   sfc_debug:sfdb_state_consistency.obj
 0001:000cb330       sf_debug_tm_terminate      00000001800cc330 f   sfc_debug:sfdb_call_stack.obj
 0001:000cb3f0       sf_debug_tm_push_chart_instance 00000001800cc3f0 f   sfc_debug:sfdb_call_stack.obj
 0001:000cb540       sf_debug_tm_pop_chart_instance 00000001800cc540 f   sfc_debug:sfdb_call_stack.obj
 0001:000cb5a0       sf_debug_tm_push_trace_node 00000001800cc5a0 f   sfc_debug:sfdb_call_stack.obj
 0001:000cb730       sf_debug_tm_pop_trace_node 00000001800cc730 f   sfc_debug:sfdb_call_stack.obj
 0001:000cb7b0       sf_debug_tm_get_current_global_trace_index 00000001800cc7b0 f   sfc_debug:sfdb_call_stack.obj
 0001:000cb7c0       sf_debug_tm_get_current_local_trace_index 00000001800cc7c0 f   sfc_debug:sfdb_call_stack.obj
 0001:000cb7f0       sf_debug_tm_set_cycle_detected_flag 00000001800cc7f0 f   sfc_debug:sfdb_call_stack.obj
 0001:000cb830       sf_debug_tm_set_cycle_started_flag 00000001800cc830 f   sfc_debug:sfdb_call_stack.obj
 0001:000cb870       sf_debug_tm_get_chart_number_from_stack 00000001800cc870 f   sfc_debug:sfdb_call_stack.obj
 0001:000cba70       sf_debug_tm_browse_trace   00000001800cca70 f   sfc_debug:sfdb_call_stack.obj
 0001:000cbdb0       sf_debug_cd_initialize_instance 00000001800ccdb0 f   sfc_debug:sfdb_cycle_detection.obj
 0001:000cc060       sf_debug_cd_mark_processed_transition_in_instance 00000001800cd060 f   sfc_debug:sfdb_cycle_detection.obj
 0001:000cc100       sf_debug_cd_checksum_push  00000001800cd100 f   sfc_debug:sfdb_cycle_detection.obj
 0001:000cc3c0       sf_debug_cd_checksum_pop   00000001800cd3c0 f   sfc_debug:sfdb_cycle_detection.obj
 0001:000cc430       sf_debug_cd_turn_off_cycle_detection 00000001800cd430 f   sfc_debug:sfdb_cycle_detection.obj
 0001:000cc480       sf_debug_cd_terminate      00000001800cd480 f   sfc_debug:sfdb_cycle_detection.obj
 0001:000cc6c0       md5_initialize_state       00000001800cd6c0 f   sfc_debug:ckmd5.obj
 0001:000cd130       md5_update_state           00000001800ce130 f   sfc_debug:ckmd5.obj
 0001:000cd150       md5_get_hash               00000001800ce150 f   sfc_debug:ckmd5.obj
 0001:000cd180       md5_get_hash_for_a_single_string 00000001800ce180 f   sfc_debug:ckmd5.obj
 0001:000cd1e4       mxGetPr                    00000001800ce1e4 f   libmx:libmx.dll
 0001:000cd1ea       mxCreateDoubleScalar       00000001800ce1ea f   libmx:libmx.dll
 0001:000cd1f0       mxSetField_730             00000001800ce1f0 f   libmx:libmx.dll
 0001:000cd1f6       mxCreateDoubleMatrix_730   00000001800ce1f6 f   libmx:libmx.dll
 0001:000cd1fc       mxCreateStructMatrix_730   00000001800ce1fc f   libmx:libmx.dll
 0001:000cd202       mxDestroyArray             00000001800ce202 f   libmx:libmx.dll
 0001:000cd208       mxCreateString             00000001800ce208 f   libmx:libmx.dll
 0001:000cd20e       mxDuplicateArray           00000001800ce20e f   libmx:libmx.dll
 0001:000cd214       mxGetString_730            00000001800ce214 f   libmx:libmx.dll
 0001:000cd21a       mxIsChar                   00000001800ce21a f   libmx:libmx.dll
 0001:000cd220       mxGetClassID               00000001800ce220 f   libmx:libmx.dll
 0001:000cd226       mxIsNumeric                00000001800ce226 f   libmx:libmx.dll
 0001:000cd22c       mxIsComplex                00000001800ce22c f   libmx:libmx.dll
 0001:000cd232       mxGetN                     00000001800ce232 f   libmx:libmx.dll
 0001:000cd238       mxGetM                     00000001800ce238 f   libmx:libmx.dll
 0001:000cd23e       mxCalloc                   00000001800ce23e f   libmx:libmx.dll
 0001:000cd244       mxGetScalar                00000001800ce244 f   libmx:libmx.dll
 0001:000cd24a       mxIsLogical                00000001800ce24a f   libmx:libmx.dll
 0001:000cd250       mxCreateDoubleMatrix_700   00000001800ce250 f   libmx:libmx.dll
 0001:000cd256       mxFree                     00000001800ce256 f   libmx:libmx.dll
 0001:000cd25c       mxArrayToString            00000001800ce25c f   libmx:libmx.dll
 0001:000cd262       mxCreateCellMatrix_700     00000001800ce262 f   libmx:libmx.dll
 0001:000cd268       mxSetCell_700              00000001800ce268 f   libmx:libmx.dll
 0001:000cd26e       mxGetCell_700              00000001800ce26e f   libmx:libmx.dll
 0001:000cd274       mxGetClassName             00000001800ce274 f   libmx:libmx.dll
 0001:000cd27a       mxSetField_700             00000001800ce27a f   libmx:libmx.dll
 0001:000cd280       mxAddField                 00000001800ce280 f   libmx:libmx.dll
 0001:000cd286       mxGetField_700             00000001800ce286 f   libmx:libmx.dll
 0001:000cd28c       mxGetNumberOfElements      00000001800ce28c f   libmx:libmx.dll
 0001:000cd292       mxIsStruct                 00000001800ce292 f   libmx:libmx.dll
 0001:000cd298       mxIsClass                  00000001800ce298 f   libmx:libmx.dll
 0001:000cd29e       mxGetLogicals              00000001800ce29e f   libmx:libmx.dll
 0001:000cd2a4       mxIsSparse                 00000001800ce2a4 f   libmx:libmx.dll
 0001:000cd2aa       mxSetFieldByNumber_700     00000001800ce2aa f   libmx:libmx.dll
 0001:000cd2b0       mxGetFieldByNumber_700     00000001800ce2b0 f   libmx:libmx.dll
 0001:000cd2b6       mxGetFieldNameByNumber     00000001800ce2b6 f   libmx:libmx.dll
 0001:000cd2bc       mxGetNumberOfFields        00000001800ce2bc f   libmx:libmx.dll
 0001:000cd2c2       mxCreateStructMatrix_700   00000001800ce2c2 f   libmx:libmx.dll
 0001:000cd2c8       mxGetFieldNumber           00000001800ce2c8 f   libmx:libmx.dll
 0001:000cd2ce       mxIsNaN                    00000001800ce2ce f   libmx:libmx.dll
 0001:000cd2d4       mxIsEmpty                  00000001800ce2d4 f   libmx:libmx.dll
 0001:000cd2da       mxGetData                  00000001800ce2da f   libmx:libmx.dll
 0001:000cd2e0       mxGetImagData              00000001800ce2e0 f   libmx:libmx.dll
 0001:000cd2e6       mxArrayClassIDName         00000001800ce2e6 f   libmx:libmx.dll
 0001:000cd2ec       mxCreateNumericMatrix_700  00000001800ce2ec f   libmx:libmx.dll
 0001:000cd2f2       mxCreateStructArray_700    00000001800ce2f2 f   libmx:libmx.dll
 0001:000cd2f8       mxCalcSingleSubscript_700  00000001800ce2f8 f   libmx:libmx.dll
 0001:000cd2fe       mxGetDimensions_700        00000001800ce2fe f   libmx:libmx.dll
 0001:000cd304       mxGetNumberOfDimensions_700 00000001800ce304 f   libmx:libmx.dll
 0001:000cd30a       mxCreateNumericArray_700   00000001800ce30a f   libmx:libmx.dll
 0001:000cd310       mxGetElementSize           00000001800ce310 f   libmx:libmx.dll
 0001:000cd316       mxCreateStringFromNChars_700 00000001800ce316 f   libmx:libmx.dll
 0001:000cd31c       mxGetString_700            00000001800ce31c f   libmx:libmx.dll
 0001:000cd322       mxIsLogicalScalarTrue      00000001800ce322 f   libmx:libmx.dll
 0001:000cd328       mxCreateLogicalScalar      00000001800ce328 f   libmx:libmx.dll
 0001:000cd32e       mexUnlock                  00000001800ce32e f   libmex:libmex.dll
 0001:000cd334       mexIsLocked                00000001800ce334 f   libmex:libmex.dll
 0001:000cd33a       mexWarnMsgTxt              00000001800ce33a f   libmex:libmex.dll
 0001:000cd340       mexCallMATLAB              00000001800ce340 f   libmex:libmex.dll
 0001:000cd346       mexErrMsgTxt               00000001800ce346 f   libmex:libmex.dll
 0001:000cd34c       mexSetTrapFlag             00000001800ce34c f   libmex:libmex.dll
 0001:000cd352       mexMakeArrayPersistent     00000001800ce352 f   libmex:libmex.dll
 0001:000cd358       mexPutVariable             00000001800ce358 f   libmex:libmex.dll
 0001:000cd35e       mexGetVariable             00000001800ce35e f   libmex:libmex.dll
 0001:000cd364       mexLock                    00000001800ce364 f   libmex:libmex.dll
 0001:000cd36a       mexMakeMemoryPersistent    00000001800ce36a f   libmex:libmex.dll
 0001:000cd370       mexFunctionName            00000001800ce370 f   libmex:libmex.dll
 0001:000cd376       ssRegisterDataTypeFxpFSlopeFixExpBias 00000001800ce376 f   libfixedpoint:libfixedpoint.dll
 0001:000cd37c       utVSNprintf                00000001800ce37c f   libut:libut.dll
 0001:000cd382       utCPUtime                  00000001800ce382 f   libut:libut.dll
 0001:000cd388       utFree                     00000001800ce388 f   libut:libut.dll
 0001:000cd38e       utMalloc                   00000001800ce38e f   libut:libut.dll
 0001:000cd394       muDoubleScalarFloor        00000001800ce394 f   libmwmathutil:libmwmathutil.dll
 0001:000cd39a       muDoubleScalarMax          00000001800ce39a f   libmwmathutil:libmwmathutil.dll
 0001:000cd3a0       muDoubleScalarMin          00000001800ce3a0 f   libmwmathutil:libmwmathutil.dll
 0001:000cd3a6       muDoubleScalarAbs          00000001800ce3a6 f   libmwmathutil:libmwmathutil.dll
 0001:000cd3ac       emlrtCheckBuiltInCtxR2011a 00000001800ce3ac f   libemlrt:libemlrt.dll
 0001:000cd3b2       emlrtCheckVsBuiltInCtxR2011a 00000001800ce3b2 f   libemlrt:libemlrt.dll
 0001:000cd3b8       emlrtCheckEnumR2009a       00000001800ce3b8 f   libemlrt:libemlrt.dll
 0001:000cd3be       emlrtCreateEnumR2010a      00000001800ce3be f   libemlrt:libemlrt.dll
 0001:000cd3c4       emlrtGetEnumElementR2009a  00000001800ce3c4 f   libemlrt:libemlrt.dll
 0001:000cd3ca       emlrtCreateReference       00000001800ce3ca f   libemlrt:libemlrt.dll
 0001:000cd3d0       emlrtImportVsFiArrayR2009b 00000001800ce3d0 f   libemlrt:libemlrt.dll
 0001:000cd3d6       emlrtExtractMessageId      00000001800ce3d6 f   libemlrt:libemlrt.dll
 0001:000cd3dc       emlrtTranslateMessageIDtoLCPstring 00000001800ce3dc f   libemlrt:libemlrt.dll
 0001:000cd3e2       emlrtGetEnumUnderlyingArrayR2009a 00000001800ce3e2 f   libemlrt:libemlrt.dll
 0001:000cd3e8       emlrtIsEnumR2009a          00000001800ce3e8 f   libemlrt:libemlrt.dll
 0001:000cd3ee       memset                     00000001800ce3ee f   MSVCRT:MSVCR100.dll
 0001:000cd3f4       malloc                     00000001800ce3f4 f   MSVCRT:MSVCR100.dll
 0001:000cd3fa       free                       00000001800ce3fa f   MSVCRT:MSVCR100.dll
 0001:000cd400       __GSHandlerCheckCommon     00000001800ce400 f   MSVCRT:gshandler.obj
 0001:000cd464       __GSHandlerCheck           00000001800ce464 f   MSVCRT:gshandler.obj
 0001:000cd4a0       __security_check_cookie    00000001800ce4a0 f   MSVCRT:amdsecgs.obj
 0001:000cd4c0       strlen                     00000001800ce4c0 f   MSVCRT:MSVCR100.dll
 0001:000cd4c6       strcmp                     00000001800ce4c6 f   MSVCRT:MSVCR100.dll
 0001:000cd4cc       sprintf                    00000001800ce4cc f   MSVCRT:MSVCR100.dll
 0001:000cd4d2       strcat                     00000001800ce4d2 f   MSVCRT:MSVCR100.dll
 0001:000cd4d8       memcpy                     00000001800ce4d8 f   MSVCRT:MSVCR100.dll
 0001:000cd4e0       NtCurrentTeb               00000001800ce4e0 f i MSVCRT:crtdll.obj
 0001:000cd54c       _CRT_INIT                  00000001800ce54c f   MSVCRT:crtdll.obj
 0001:000cd8e4       _DllMainCRTStartup         00000001800ce8e4 f   MSVCRT:crtdll.obj
 0001:000cd922       strncpy                    00000001800ce922 f   MSVCRT:MSVCR100.dll
 0001:000cd940       _alloca_probe              00000001800ce940     MSVCRT:chkstk.obj
 0001:000cd940       __chkstk                   00000001800ce940 f   MSVCRT:chkstk.obj
 0001:000cd98e       longjmp                    00000001800ce98e f   MSVCRT:MSVCR100.dll
 0001:000cd994       strncmp                    00000001800ce994 f   MSVCRT:MSVCR100.dll
 0001:000cd99a       ceil                       00000001800ce99a f   MSVCRT:MSVCR100.dll
 0001:000cd9a0       strrchr                    00000001800ce9a0 f   MSVCRT:MSVCR100.dll
 0001:000cd9a6       _setjmp                    00000001800ce9a6 f   MSVCRT:MSVCR100.dll
 0001:000cd9ac       calloc                     00000001800ce9ac f   MSVCRT:MSVCR100.dll
 0001:000cd9b2       realloc                    00000001800ce9b2 f   MSVCRT:MSVCR100.dll
 0001:000cd9b8       ldexp                      00000001800ce9b8 f   MSVCRT:MSVCR100.dll
 0001:000cd9c0       __report_gsfailure         00000001800ce9c0 f   MSVCRT:gs_report.obj
 0001:000cdb0c       __clean_type_info_names    00000001800ceb0c f   MSVCRT:tncleanup.obj
 0001:000cdb18       _onexit                    00000001800ceb18 f   MSVCRT:atonexit.obj
 0001:000cdbc8       atexit                     00000001800cebc8 f   MSVCRT:atonexit.obj
 0001:000cdbe0       _RTC_Initialize            00000001800cebe0 f   MSVCRT:_initsect_.obj
 0001:000cdc18       _RTC_Terminate             00000001800cec18 f   MSVCRT:_initsect_.obj
 0001:000cdc50       _malloc_crt                00000001800cec50 f   MSVCRT:MSVCR100.dll
 0001:000cdc60       _ValidateImageBase         00000001800cec60 f   MSVCRT:pesect.obj
 0001:000cdc90       _FindPESection             00000001800cec90 f   MSVCRT:pesect.obj
 0001:000cdce0       _IsNonwritableInCurrentImage 00000001800cece0 f   MSVCRT:pesect.obj
 0001:000cdd22       _initterm                  00000001800ced22 f   MSVCRT:MSVCR100.dll
 0001:000cdd28       _initterm_e                00000001800ced28 f   MSVCRT:MSVCR100.dll
 0001:000cdd2e       _encoded_null              00000001800ced2e f   MSVCRT:MSVCR100.dll
 0001:000cdd34       _amsg_exit                 00000001800ced34 f   MSVCRT:MSVCR100.dll
 0001:000cdd3a       __C_specific_handler       00000001800ced3a f   MSVCRT:MSVCR100.dll
 0001:000cdd40       __CppXcptFilter            00000001800ced40 f   MSVCRT:MSVCR100.dll
 0001:000cdd48       DllMain                    00000001800ced48 f   MSVCRT:dllmain.obj
 0001:000cdd6c       __security_init_cookie     00000001800ced6c f   MSVCRT:gs_support.obj
 0001:000cde20       __crt_debugger_hook        00000001800cee20 f   MSVCRT:MSVCR100.dll
 0001:000cde26       __clean_type_info_names_internal 00000001800cee26 f   MSVCRT:MSVCR100.dll
 0001:000cde2c       _unlock                    00000001800cee2c f   MSVCRT:MSVCR100.dll
 0001:000cde32       __dllonexit                00000001800cee32 f   MSVCRT:MSVCR100.dll
 0001:000cde38       _lock                      00000001800cee38 f   MSVCRT:MSVCR100.dll
 0001:000cde3e       EncodePointer              00000001800cee3e f   kernel32:KERNEL32.dll
 0001:000cde44       DecodePointer              00000001800cee44 f   kernel32:KERNEL32.dll
 0001:000cde4a       Sleep                      00000001800cee4a f   kernel32:KERNEL32.dll
 0001:000cde50       TerminateProcess           00000001800cee50 f   kernel32:KERNEL32.dll
 0001:000cde56       GetCurrentProcess          00000001800cee56 f   kernel32:KERNEL32.dll
 0001:000cde5c       UnhandledExceptionFilter   00000001800cee5c f   kernel32:KERNEL32.dll
 0001:000cde62       SetUnhandledExceptionFilter 00000001800cee62 f   kernel32:KERNEL32.dll
 0001:000cde68       IsDebuggerPresent          00000001800cee68 f   kernel32:KERNEL32.dll
 0001:000cde6e       RtlVirtualUnwind           00000001800cee6e f   kernel32:KERNEL32.dll
 0001:000cde74       RtlLookupFunctionEntry     00000001800cee74 f   kernel32:KERNEL32.dll
 0001:000cde7a       RtlCaptureContext          00000001800cee7a f   kernel32:KERNEL32.dll
 0001:000cde80       DisableThreadLibraryCalls  00000001800cee80 f   kernel32:KERNEL32.dll
 0001:000cde86       QueryPerformanceCounter    00000001800cee86 f   kernel32:KERNEL32.dll
 0001:000cde8c       GetTickCount               00000001800cee8c f   kernel32:KERNEL32.dll
 0001:000cde92       GetCurrentThreadId         00000001800cee92 f   kernel32:KERNEL32.dll
 0001:000cde98       GetCurrentProcessId        00000001800cee98 f   kernel32:KERNEL32.dll
 0001:000cde9e       GetSystemTimeAsFileTime    00000001800cee9e f   kernel32:KERNEL32.dll
 0002:00000000       __imp_DisableThreadLibraryCalls 00000001800cf000     kernel32:KERNEL32.dll
 0002:00000008       __imp_RtlCaptureContext    00000001800cf008     kernel32:KERNEL32.dll
 0002:00000010       __imp_RtlLookupFunctionEntry 00000001800cf010     kernel32:KERNEL32.dll
 0002:00000018       __imp_RtlVirtualUnwind     00000001800cf018     kernel32:KERNEL32.dll
 0002:00000020       __imp_IsDebuggerPresent    00000001800cf020     kernel32:KERNEL32.dll
 0002:00000028       __imp_SetUnhandledExceptionFilter 00000001800cf028     kernel32:KERNEL32.dll
 0002:00000030       __imp_UnhandledExceptionFilter 00000001800cf030     kernel32:KERNEL32.dll
 0002:00000038       __imp_GetCurrentProcess    00000001800cf038     kernel32:KERNEL32.dll
 0002:00000040       __imp_TerminateProcess     00000001800cf040     kernel32:KERNEL32.dll
 0002:00000048       __imp_Sleep                00000001800cf048     kernel32:KERNEL32.dll
 0002:00000050       __imp_DecodePointer        00000001800cf050     kernel32:KERNEL32.dll
 0002:00000058       __imp_EncodePointer        00000001800cf058     kernel32:KERNEL32.dll
 0002:00000060       __imp_GetTickCount         00000001800cf060     kernel32:KERNEL32.dll
 0002:00000068       __imp_GetCurrentThreadId   00000001800cf068     kernel32:KERNEL32.dll
 0002:00000070       __imp_GetCurrentProcessId  00000001800cf070     kernel32:KERNEL32.dll
 0002:00000078       __imp_GetSystemTimeAsFileTime 00000001800cf078     kernel32:KERNEL32.dll
 0002:00000080       __imp_QueryPerformanceCounter 00000001800cf080     kernel32:KERNEL32.dll
 0002:00000088       \177KERNEL32_NULL_THUNK_DATA 00000001800cf088     kernel32:KERNEL32.dll
 0002:00000090       __imp_free                 00000001800cf090     MSVCRT:MSVCR100.dll
 0002:00000098       __imp__onexit              00000001800cf098     MSVCRT:MSVCR100.dll
 0002:000000a0       __imp__lock                00000001800cf0a0     MSVCRT:MSVCR100.dll
 0002:000000a8       __imp___dllonexit          00000001800cf0a8     MSVCRT:MSVCR100.dll
 0002:000000b0       __imp__unlock              00000001800cf0b0     MSVCRT:MSVCR100.dll
 0002:000000b8       __imp___clean_type_info_names_internal 00000001800cf0b8     MSVCRT:MSVCR100.dll
 0002:000000c0       __imp___crt_debugger_hook  00000001800cf0c0     MSVCRT:MSVCR100.dll
 0002:000000c8       __imp___CppXcptFilter      00000001800cf0c8     MSVCRT:MSVCR100.dll
 0002:000000d0       __imp___C_specific_handler 00000001800cf0d0     MSVCRT:MSVCR100.dll
 0002:000000d8       __imp__amsg_exit           00000001800cf0d8     MSVCRT:MSVCR100.dll
 0002:000000e0       __imp__encoded_null        00000001800cf0e0     MSVCRT:MSVCR100.dll
 0002:000000e8       __imp__initterm_e          00000001800cf0e8     MSVCRT:MSVCR100.dll
 0002:000000f0       __imp__initterm            00000001800cf0f0     MSVCRT:MSVCR100.dll
 0002:000000f8       __imp__malloc_crt          00000001800cf0f8     MSVCRT:MSVCR100.dll
 0002:00000100       __imp_ldexp                00000001800cf100     MSVCRT:MSVCR100.dll
 0002:00000108       __imp_realloc              00000001800cf108     MSVCRT:MSVCR100.dll
 0002:00000110       __imp_calloc               00000001800cf110     MSVCRT:MSVCR100.dll
 0002:00000118       __imp__setjmp              00000001800cf118     MSVCRT:MSVCR100.dll
 0002:00000120       __imp_strrchr              00000001800cf120     MSVCRT:MSVCR100.dll
 0002:00000128       __imp_ceil                 00000001800cf128     MSVCRT:MSVCR100.dll
 0002:00000130       __imp_strncmp              00000001800cf130     MSVCRT:MSVCR100.dll
 0002:00000138       __imp_longjmp              00000001800cf138     MSVCRT:MSVCR100.dll
 0002:00000140       __imp_strncpy              00000001800cf140     MSVCRT:MSVCR100.dll
 0002:00000148       __imp_memcpy               00000001800cf148     MSVCRT:MSVCR100.dll
 0002:00000150       __imp_strcat               00000001800cf150     MSVCRT:MSVCR100.dll
 0002:00000158       __imp_sprintf              00000001800cf158     MSVCRT:MSVCR100.dll
 0002:00000160       __imp_strcmp               00000001800cf160     MSVCRT:MSVCR100.dll
 0002:00000168       __imp_strlen               00000001800cf168     MSVCRT:MSVCR100.dll
 0002:00000170       __imp_malloc               00000001800cf170     MSVCRT:MSVCR100.dll
 0002:00000178       __imp_memset               00000001800cf178     MSVCRT:MSVCR100.dll
 0002:00000180       \177MSVCR100_NULL_THUNK_DATA 00000001800cf180     MSVCRT:MSVCR100.dll
 0002:00000188       __imp_emlrtCheckBuiltInCtxR2011a 00000001800cf188     libemlrt:libemlrt.dll
 0002:00000190       __imp_emlrtIsEnumR2009a    00000001800cf190     libemlrt:libemlrt.dll
 0002:00000198       __imp_emlrtGetEnumUnderlyingArrayR2009a 00000001800cf198     libemlrt:libemlrt.dll
 0002:000001a0       __imp_emlrtTranslateMessageIDtoLCPstring 00000001800cf1a0     libemlrt:libemlrt.dll
 0002:000001a8       __imp_emlrtExtractMessageId 00000001800cf1a8     libemlrt:libemlrt.dll
 0002:000001b0       __imp_emlrtImportVsFiArrayR2009b 00000001800cf1b0     libemlrt:libemlrt.dll
 0002:000001b8       __imp_emlrtCheckVsBuiltInCtxR2011a 00000001800cf1b8     libemlrt:libemlrt.dll
 0002:000001c0       __imp_emlrtCheckEnumR2009a 00000001800cf1c0     libemlrt:libemlrt.dll
 0002:000001c8       __imp_emlrtCreateEnumR2010a 00000001800cf1c8     libemlrt:libemlrt.dll
 0002:000001d0       __imp_emlrtGetEnumElementR2009a 00000001800cf1d0     libemlrt:libemlrt.dll
 0002:000001d8       __imp_emlrtCreateReference 00000001800cf1d8     libemlrt:libemlrt.dll
 0002:000001e0       \177libemlrt_NULL_THUNK_DATA 00000001800cf1e0     libemlrt:libemlrt.dll
 0002:000001e8       __imp_ssRegisterDataTypeFxpFSlopeFixExpBias 00000001800cf1e8     libfixedpoint:libfixedpoint.dll
 0002:000001f0       \177libfixedpoint_NULL_THUNK_DATA 00000001800cf1f0     libfixedpoint:libfixedpoint.dll
 0002:000001f8       __imp_mexGetVariable       00000001800cf1f8     libmex:libmex.dll
 0002:00000200       __imp_mexMakeArrayPersistent 00000001800cf200     libmex:libmex.dll
 0002:00000208       __imp_mexMakeMemoryPersistent 00000001800cf208     libmex:libmex.dll
 0002:00000210       __imp_mexFunctionName      00000001800cf210     libmex:libmex.dll
 0002:00000218       __imp_mexErrMsgTxt         00000001800cf218     libmex:libmex.dll
 0002:00000220       __imp_mexLock              00000001800cf220     libmex:libmex.dll
 0002:00000228       __imp_mexPutVariable       00000001800cf228     libmex:libmex.dll
 0002:00000230       __imp_mexSetTrapFlag       00000001800cf230     libmex:libmex.dll
 0002:00000238       __imp_mexCallMATLAB        00000001800cf238     libmex:libmex.dll
 0002:00000240       __imp_mexWarnMsgTxt        00000001800cf240     libmex:libmex.dll
 0002:00000248       __imp_mexIsLocked          00000001800cf248     libmex:libmex.dll
 0002:00000250       __imp_mexUnlock            00000001800cf250     libmex:libmex.dll
 0002:00000258       \177libmex_NULL_THUNK_DATA 00000001800cf258     libmex:libmex.dll
 0002:00000260       __imp_muDoubleScalarFloor  00000001800cf260     libmwmathutil:libmwmathutil.dll
 0002:00000268       __imp_muDoubleScalarMax    00000001800cf268     libmwmathutil:libmwmathutil.dll
 0002:00000270       __imp_muDoubleScalarMin    00000001800cf270     libmwmathutil:libmwmathutil.dll
 0002:00000278       __imp_muDoubleScalarAbs    00000001800cf278     libmwmathutil:libmwmathutil.dll
 0002:00000280       \177libmwmathutil_NULL_THUNK_DATA 00000001800cf280     libmwmathutil:libmwmathutil.dll
 0002:00000288       __imp_mxGetN               00000001800cf288     libmx:libmx.dll
 0002:00000290       __imp_mxGetM               00000001800cf290     libmx:libmx.dll
 0002:00000298       __imp_mxCalloc             00000001800cf298     libmx:libmx.dll
 0002:000002a0       __imp_mxGetScalar          00000001800cf2a0     libmx:libmx.dll
 0002:000002a8       __imp_mxGetPr              00000001800cf2a8     libmx:libmx.dll
 0002:000002b0       __imp_mxIsLogical          00000001800cf2b0     libmx:libmx.dll
 0002:000002b8       __imp_mxCreateLogicalScalar 00000001800cf2b8     libmx:libmx.dll
 0002:000002c0       __imp_mxIsLogicalScalarTrue 00000001800cf2c0     libmx:libmx.dll
 0002:000002c8       __imp_mxGetString_700      00000001800cf2c8     libmx:libmx.dll
 0002:000002d0       __imp_mxCreateStringFromNChars_700 00000001800cf2d0     libmx:libmx.dll
 0002:000002d8       __imp_mxGetElementSize     00000001800cf2d8     libmx:libmx.dll
 0002:000002e0       __imp_mxCreateNumericArray_700 00000001800cf2e0     libmx:libmx.dll
 0002:000002e8       __imp_mxGetNumberOfDimensions_700 00000001800cf2e8     libmx:libmx.dll
 0002:000002f0       __imp_mxGetDimensions_700  00000001800cf2f0     libmx:libmx.dll
 0002:000002f8       __imp_mxCalcSingleSubscript_700 00000001800cf2f8     libmx:libmx.dll
 0002:00000300       __imp_mxCreateStructArray_700 00000001800cf300     libmx:libmx.dll
 0002:00000308       __imp_mxCreateNumericMatrix_700 00000001800cf308     libmx:libmx.dll
 0002:00000310       __imp_mxArrayClassIDName   00000001800cf310     libmx:libmx.dll
 0002:00000318       __imp_mxGetImagData        00000001800cf318     libmx:libmx.dll
 0002:00000320       __imp_mxGetData            00000001800cf320     libmx:libmx.dll
 0002:00000328       __imp_mxIsEmpty            00000001800cf328     libmx:libmx.dll
 0002:00000330       __imp_mxIsNaN              00000001800cf330     libmx:libmx.dll
 0002:00000338       __imp_mxGetFieldNumber     00000001800cf338     libmx:libmx.dll
 0002:00000340       __imp_mxCreateStructMatrix_700 00000001800cf340     libmx:libmx.dll
 0002:00000348       __imp_mxGetNumberOfFields  00000001800cf348     libmx:libmx.dll
 0002:00000350       __imp_mxGetFieldNameByNumber 00000001800cf350     libmx:libmx.dll
 0002:00000358       __imp_mxGetFieldByNumber_700 00000001800cf358     libmx:libmx.dll
 0002:00000360       __imp_mxSetFieldByNumber_700 00000001800cf360     libmx:libmx.dll
 0002:00000368       __imp_mxIsSparse           00000001800cf368     libmx:libmx.dll
 0002:00000370       __imp_mxGetLogicals        00000001800cf370     libmx:libmx.dll
 0002:00000378       __imp_mxIsClass            00000001800cf378     libmx:libmx.dll
 0002:00000380       __imp_mxIsStruct           00000001800cf380     libmx:libmx.dll
 0002:00000388       __imp_mxGetNumberOfElements 00000001800cf388     libmx:libmx.dll
 0002:00000390       __imp_mxGetField_700       00000001800cf390     libmx:libmx.dll
 0002:00000398       __imp_mxAddField           00000001800cf398     libmx:libmx.dll
 0002:000003a0       __imp_mxSetField_700       00000001800cf3a0     libmx:libmx.dll
 0002:000003a8       __imp_mxGetClassName       00000001800cf3a8     libmx:libmx.dll
 0002:000003b0       __imp_mxGetCell_700        00000001800cf3b0     libmx:libmx.dll
 0002:000003b8       __imp_mxSetCell_700        00000001800cf3b8     libmx:libmx.dll
 0002:000003c0       __imp_mxCreateCellMatrix_700 00000001800cf3c0     libmx:libmx.dll
 0002:000003c8       __imp_mxArrayToString      00000001800cf3c8     libmx:libmx.dll
 0002:000003d0       __imp_mxFree               00000001800cf3d0     libmx:libmx.dll
 0002:000003d8       __imp_mxIsComplex          00000001800cf3d8     libmx:libmx.dll
 0002:000003e0       __imp_mxIsNumeric          00000001800cf3e0     libmx:libmx.dll
 0002:000003e8       __imp_mxGetClassID         00000001800cf3e8     libmx:libmx.dll
 0002:000003f0       __imp_mxIsChar             00000001800cf3f0     libmx:libmx.dll
 0002:000003f8       __imp_mxGetString_730      00000001800cf3f8     libmx:libmx.dll
 0002:00000400       __imp_mxDuplicateArray     00000001800cf400     libmx:libmx.dll
 0002:00000408       __imp_mxCreateString       00000001800cf408     libmx:libmx.dll
 0002:00000410       __imp_mxDestroyArray       00000001800cf410     libmx:libmx.dll
 0002:00000418       __imp_mxCreateStructMatrix_730 00000001800cf418     libmx:libmx.dll
 0002:00000420       __imp_mxCreateDoubleMatrix_730 00000001800cf420     libmx:libmx.dll
 0002:00000428       __imp_mxSetField_730       00000001800cf428     libmx:libmx.dll
 0002:00000430       __imp_mxCreateDoubleScalar 00000001800cf430     libmx:libmx.dll
 0002:00000438       __imp_mxCreateDoubleMatrix_700 00000001800cf438     libmx:libmx.dll
 0002:00000440       \177libmx_NULL_THUNK_DATA  00000001800cf440     libmx:libmx.dll
 0002:00000448       __imp_utMalloc             00000001800cf448     libut:libut.dll
 0002:00000450       __imp_utFree               00000001800cf450     libut:libut.dll
 0002:00000458       __imp_utCPUtime            00000001800cf458     libut:libut.dll
 0002:00000460       __imp_utVSNprintf          00000001800cf460     libut:libut.dll
 0002:00000468       \177libut_NULL_THUNK_DATA  00000001800cf468     libut:libut.dll
 0002:00000470       __xc_a                     00000001800cf470     MSVCRT:cinitexe.obj
 0002:00000478       __xc_z                     00000001800cf478     MSVCRT:cinitexe.obj
 0002:00000480       __xi_a                     00000001800cf480     MSVCRT:cinitexe.obj
 0002:00000490       __xi_z                     00000001800cf490     MSVCRT:cinitexe.obj
 0002:000004a0       __real@41deb9d256800000    00000001800cf4a0     c1_hyd_hyb_2_opt_cont_test_new.obj
 0002:000004a8       __real@41e90b3f19800000    00000001800cf4a8     c1_hyd_hyb_2_opt_cont_test_new.obj
 0002:000004b0       __real@41cbf2aba0800000    00000001800cf4b0     c1_hyd_hyb_2_opt_cont_test_new.obj
 0002:000004b8       __real@41d55d41c2800000    00000001800cf4b8     c1_hyd_hyb_2_opt_cont_test_new.obj
 0002:000004c0       __real@4024000000000000    00000001800cf4c0     c1_hyd_hyb_2_opt_cont_test_new.obj
 0002:000004c8       __real@3ff0000000000000    00000001800cf4c8     c1_hyd_hyb_2_opt_cont_test_new.obj
 0002:000004d0       __real@41e5c9bb48400000    00000001800cf4d0     c1_hyd_hyb_2_opt_cont_test_new.obj
 0002:000004d8       __real@41dab22fa1000000    00000001800cf4d8     c1_hyd_hyb_2_opt_cont_test_new.obj
 0002:000004e0       __real@41ea8b1661600000    00000001800cf4e0     c1_hyd_hyb_2_opt_cont_test_new.obj
 0002:000004e8       __real@41eb969a5da00000    00000001800cf4e8     c1_hyd_hyb_2_opt_cont_test_new.obj
 0002:000004f0       __real@3fe0000000000000    00000001800cf4f0     c1_hyd_hyb_2_opt_cont_test_new.obj
 0002:000004f8       __real@3f847ae147ae147b    00000001800cf4f8     c1_hyd_hyb_2_opt_cont_test_new.obj
 0002:00000500       __real@0000000000000000    00000001800cf500     c1_hyd_hyb_2_opt_cont_test_new.obj
 0002:00000508       __real@41d1c7741a000000    00000001800cf508     c2_hyd_hyb_2_opt_cont_test_new.obj
 0002:00000510       __real@41e259e8e6000000    00000001800cf510     c2_hyd_hyb_2_opt_cont_test_new.obj
 0002:00000518       __real@41e8afd441600000    00000001800cf518     c2_hyd_hyb_2_opt_cont_test_new.obj
 0002:00000520       __real@41ed7c782fa00000    00000001800cf520     c2_hyd_hyb_2_opt_cont_test_new.obj
 0002:00000528       __real@41db902615c00000    00000001800cf528     c2_hyd_hyb_2_opt_cont_test_new.obj
 0002:00000530       __real@41e1cb3b01200000    00000001800cf530     c2_hyd_hyb_2_opt_cont_test_new.obj
 0002:00000538       __real@41d3f97883c00000    00000001800cf538     c2_hyd_hyb_2_opt_cont_test_new.obj
 0002:00000540       __real@41ebf8e158e00000    00000001800cf540     c2_hyd_hyb_2_opt_cont_test_new.obj
 0002:00000548       __real@4010000000000000    00000001800cf548     c2_hyd_hyb_2_opt_cont_test_new.obj
 0002:00000550       __real@4008000000000000    00000001800cf550     c2_hyd_hyb_2_opt_cont_test_new.obj
 0002:00000558       __real@4000000000000000    00000001800cf558     c2_hyd_hyb_2_opt_cont_test_new.obj
 0002:00000560       __real@41e1a17048400000    00000001800cf560     c3_hyd_hyb_2_opt_cont_test_new.obj
 0002:00000568       __real@41c233bde4000000    00000001800cf568     c3_hyd_hyb_2_opt_cont_test_new.obj
 0002:00000570       __real@41dc34805c400000    00000001800cf570     c3_hyd_hyb_2_opt_cont_test_new.obj
 0002:00000578       __real@41dffa8123800000    00000001800cf578     c3_hyd_hyb_2_opt_cont_test_new.obj
 0002:00000580       __real@4018000000000000    00000001800cf580     c3_hyd_hyb_2_opt_cont_test_new.obj
 0002:00000588       __real@41ef5108f8c00000    00000001800cf588     c3_hyd_hyb_2_opt_cont_test_new.obj
 0002:00000590       __real@41ef4d5dbdc00000    00000001800cf590     c3_hyd_hyb_2_opt_cont_test_new.obj
 0002:00000598       __real@41e6cf8325600000    00000001800cf598     c3_hyd_hyb_2_opt_cont_test_new.obj
 0002:000005a0       __real@41ef6705ffc00000    00000001800cf5a0     c3_hyd_hyb_2_opt_cont_test_new.obj
 0002:000005a8       __real@407f400000000000    00000001800cf5a8     c3_hyd_hyb_2_opt_cont_test_new.obj
 0002:000005b0       __real@4079000000000000    00000001800cf5b0     c3_hyd_hyb_2_opt_cont_test_new.obj
 0002:000005b8       __real@4072c00000000000    00000001800cf5b8     c3_hyd_hyb_2_opt_cont_test_new.obj
 0002:000005c0       __real@4069000000000000    00000001800cf5c0     c3_hyd_hyb_2_opt_cont_test_new.obj
 0002:000005c8       __real@4059000000000000    00000001800cf5c8     c3_hyd_hyb_2_opt_cont_test_new.obj
 0002:000005d0       __real@41bca0a5b7000000    00000001800cf5d0     c4_hyd_hyb_2_opt_cont_test_new.obj
 0002:000005d8       __real@41efdd0b73000000    00000001800cf5d8     c4_hyd_hyb_2_opt_cont_test_new.obj
 0002:000005e0       __real@41ed66a785c00000    00000001800cf5e0     c4_hyd_hyb_2_opt_cont_test_new.obj
 0002:000005e8       __real@41e52160fe200000    00000001800cf5e8     c4_hyd_hyb_2_opt_cont_test_new.obj
 0002:000005f0       __real@4049000000000000    00000001800cf5f0     c4_hyd_hyb_2_opt_cont_test_new.obj
 0002:000005f8       __real@418a169308000000    00000001800cf5f8     c5_hyd_hyb_2_opt_cont_test_new.obj
 0002:00000600       __real@41d487138b800000    00000001800cf600     c5_hyd_hyb_2_opt_cont_test_new.obj
 0002:00000608       __real@41ec7fa214400000    00000001800cf608     c5_hyd_hyb_2_opt_cont_test_new.obj
 0002:00000610       __real@41da785b42c00000    00000001800cf610     c5_hyd_hyb_2_opt_cont_test_new.obj
 0002:00000618       __real@41e2f562f2200000    00000001800cf618     c5_hyd_hyb_2_opt_cont_test_new.obj
 0002:00000620       __real@41e5a4dd21e00000    00000001800cf620     c5_hyd_hyb_2_opt_cont_test_new.obj
 0002:00000628       __real@41e1077cc4800000    00000001800cf628     c5_hyd_hyb_2_opt_cont_test_new.obj
 0002:00000630       __real@41d6080f57000000    00000001800cf630     c5_hyd_hyb_2_opt_cont_test_new.obj
 0002:00000638       __real@41dbb280da800000    00000001800cf638     c6_hyd_hyb_2_opt_cont_test_new.obj
 0002:00000640       __real@41d79476cec00000    00000001800cf640     c6_hyd_hyb_2_opt_cont_test_new.obj
 0002:00000648       __real@41d8a8dac7000000    00000001800cf648     c6_hyd_hyb_2_opt_cont_test_new.obj
 0002:00000650       __real@41e1406856600000    00000001800cf650     c6_hyd_hyb_2_opt_cont_test_new.obj
 0002:00000658       __real@41eaaae73e200000    00000001800cf658     c6_hyd_hyb_2_opt_cont_test_new.obj
 0002:00000660       __real@41ef67c568800000    00000001800cf660     c6_hyd_hyb_2_opt_cont_test_new.obj
 0002:00000668       __real@41eb73c0c0a00000    00000001800cf668     c6_hyd_hyb_2_opt_cont_test_new.obj
 0002:00000670       __real@41cbfbf417000000    00000001800cf670     c6_hyd_hyb_2_opt_cont_test_new.obj
 0002:00000678       __real@41d042ede7c00000    00000001800cf678     c7_hyd_hyb_2_opt_cont_test_new.obj
 0002:00000680       __real@41c754b98d800000    00000001800cf680     c7_hyd_hyb_2_opt_cont_test_new.obj
 0002:00000688       __real@41e152ec4d000000    00000001800cf688     c7_hyd_hyb_2_opt_cont_test_new.obj
 0002:00000690       __real@41e6b4a2bc400000    00000001800cf690     c7_hyd_hyb_2_opt_cont_test_new.obj
 0002:00000698       __real@41e85b8dfa600000    00000001800cf698     c7_hyd_hyb_2_opt_cont_test_new.obj
 0002:000006a0       __real@41cb7539ef000000    00000001800cf6a0     c7_hyd_hyb_2_opt_cont_test_new.obj
 0002:000006a8       __real@41ea2a5b10600000    00000001800cf6a8     c7_hyd_hyb_2_opt_cont_test_new.obj
 0002:000006b0       __real@41c0565ac2800000    00000001800cf6b0     c7_hyd_hyb_2_opt_cont_test_new.obj
 0002:000006b8       __real@41e9c2ffc5c00000    00000001800cf6b8     c8_hyd_hyb_2_opt_cont_test_new.obj
 0002:000006c0       __real@41e7f1b59a600000    00000001800cf6c0     c8_hyd_hyb_2_opt_cont_test_new.obj
 0002:000006c8       __real@41e1d0677a600000    00000001800cf6c8     c8_hyd_hyb_2_opt_cont_test_new.obj
 0002:000006d0       __real@41e61362c6400000    00000001800cf6d0     c8_hyd_hyb_2_opt_cont_test_new.obj
 0002:000006d8       __real@41e56e60eb600000    00000001800cf6d8     c8_hyd_hyb_2_opt_cont_test_new.obj
 0002:000006e0       __real@41efe485b2000000    00000001800cf6e0     c8_hyd_hyb_2_opt_cont_test_new.obj
 0002:000006e8       __real@41e94e7d7dc00000    00000001800cf6e8     c8_hyd_hyb_2_opt_cont_test_new.obj
 0002:000006f0       __real@41d68c811f400000    00000001800cf6f0     c8_hyd_hyb_2_opt_cont_test_new.obj
 0002:000006f8       __real@41c66aa46e800000    00000001800cf6f8     c24_hyd_hyb_2_opt_cont_test_new.obj
 0002:00000700       __real@41b55675b9000000    00000001800cf700     c24_hyd_hyb_2_opt_cont_test_new.obj
 0002:00000708       __real@41ea2dace5400000    00000001800cf708     c24_hyd_hyb_2_opt_cont_test_new.obj
 0002:00000710       __real@41a8b2b4ea000000    00000001800cf710     c24_hyd_hyb_2_opt_cont_test_new.obj
 0002:00000718       __real@41d65c4f71000000    00000001800cf718     c24_hyd_hyb_2_opt_cont_test_new.obj
 0002:00000720       __real@41d26cf7b9800000    00000001800cf720     c24_hyd_hyb_2_opt_cont_test_new.obj
 0002:00000728       __real@41dccd4546000000    00000001800cf728     c24_hyd_hyb_2_opt_cont_test_new.obj
 0002:00000730       __real@41d11ed598400000    00000001800cf730     c24_hyd_hyb_2_opt_cont_test_new.obj
 0002:00000738       __real@3fb999999999999a    00000001800cf738     c24_hyd_hyb_2_opt_cont_test_new.obj
 0002:00000740       __real@41eb2c1079000000    00000001800cf740     c25_hyd_hyb_2_opt_cont_test_new.obj
 0002:00000748       __real@41e360467f400000    00000001800cf748     c25_hyd_hyb_2_opt_cont_test_new.obj
 0002:00000750       __real@41da53e115800000    00000001800cf750     c25_hyd_hyb_2_opt_cont_test_new.obj
 0002:00000758       __real@41ea911173400000    00000001800cf758     c25_hyd_hyb_2_opt_cont_test_new.obj
 0002:00000760       __real@41d43d9937800000    00000001800cf760     c25_hyd_hyb_2_opt_cont_test_new.obj
 0002:00000768       __real@41da49e45c800000    00000001800cf768     c25_hyd_hyb_2_opt_cont_test_new.obj
 0002:00000770       __real@41e578cc5c200000    00000001800cf770     c25_hyd_hyb_2_opt_cont_test_new.obj
 0002:00000778       __real@41ee6c2d87c00000    00000001800cf778     c25_hyd_hyb_2_opt_cont_test_new.obj
 0002:00000780       __real@c024000000000000    00000001800cf780     c25_hyd_hyb_2_opt_cont_test_new.obj
 0002:00000788       __real@3fe199999999999a    00000001800cf788     c25_hyd_hyb_2_opt_cont_test_new.obj
 0002:00000790       __real@3fdccccccccccccd    00000001800cf790     c25_hyd_hyb_2_opt_cont_test_new.obj
 0002:00000798       __real@41e9f0bf9cc00000    00000001800cf798     c26_hyd_hyb_2_opt_cont_test_new.obj
 0002:000007a0       __real@41d561da55400000    00000001800cf7a0     c26_hyd_hyb_2_opt_cont_test_new.obj
 0002:000007a8       __real@41ee59eae2c00000    00000001800cf7a8     c26_hyd_hyb_2_opt_cont_test_new.obj
 0002:000007b0       __real@41d6f9b9e6800000    00000001800cf7b0     c26_hyd_hyb_2_opt_cont_test_new.obj
 0002:000007b8       __real@41ef104e60000000    00000001800cf7b8     c26_hyd_hyb_2_opt_cont_test_new.obj
 0002:000007c0       __real@41df32cc38800000    00000001800cf7c0     c26_hyd_hyb_2_opt_cont_test_new.obj
 0002:000007c8       __real@41edc29187200000    00000001800cf7c8     c26_hyd_hyb_2_opt_cont_test_new.obj
 0002:000007d0       __real@41c6730c30000000    00000001800cf7d0     c26_hyd_hyb_2_opt_cont_test_new.obj
 0002:000007d8       __real@4034000000000000    00000001800cf7d8     c26_hyd_hyb_2_opt_cont_test_new.obj
 0002:000007e0       __real@c034000000000000    00000001800cf7e0     c26_hyd_hyb_2_opt_cont_test_new.obj
 0002:000007e8       __real@3fdae147ae147ae1    00000001800cf7e8     c26_hyd_hyb_2_opt_cont_test_new.obj
 0002:000007f0       __real@3fd7ae147ae147ae    00000001800cf7f0     c26_hyd_hyb_2_opt_cont_test_new.obj
 0002:00000800       DYNAMIC_DIMENSION_DEF      00000001800cf800     hyd_hyb_2_opt_cont_test_new_sfun_registry.obj
 0002:00000820       _ssBadLevel2InputAccessMsg 00000001800cf820     hyd_hyb_2_opt_cont_test_new_sfun_registry.obj
 0002:000009b0       _ssBadLevel2DirectFeedMsg  00000001800cf9b0     hyd_hyb_2_opt_cont_test_new_sfun_registry.obj
 0002:00000af0       _ssBadLevel2DirectFeedSolutionMsg 00000001800cfaf0     hyd_hyb_2_opt_cont_test_new_sfun_registry.obj
 0002:00000b60       _ssBadLevel2ZeroDirectFeedMsg 00000001800cfb60     hyd_hyb_2_opt_cont_test_new_sfun_registry.obj
 0002:00000ca0       _ssBadLevel2ZeroDirectFeedMsg2 00000001800cfca0     hyd_hyb_2_opt_cont_test_new_sfun_registry.obj
 0002:00000d88       __real@bff0000000000000    00000001800cfd88     hyd_hyb_2_opt_cont_test_new_sfun_registry.obj
 0002:00000d90       __real@41602cbca0000000    00000001800cfd90     hyd_hyb_2_opt_cont_test_new_sfun_registry.obj
 0002:00000d98       __real@41e6c418a7c00000    00000001800cfd98     hyd_hyb_2_opt_cont_test_new_sfun.obj
 0002:00000da0       __real@41b3ac4ab2000000    00000001800cfda0     hyd_hyb_2_opt_cont_test_new_sfun.obj
 0002:00000da8       __real@41a70a43f0000000    00000001800cfda8     hyd_hyb_2_opt_cont_test_new_sfun.obj
 0002:00000db0       __real@41c74dc148800000    00000001800cfdb0     hyd_hyb_2_opt_cont_test_new_sfun.obj
 0002:00000db8       __real@41dc1302e4800000    00000001800cfdb8     hyd_hyb_2_opt_cont_test_new_sfun.obj
 0002:00000dc0       __real@41c3a4f933800000    00000001800cfdc0     hyd_hyb_2_opt_cont_test_new_sfun.obj
 0002:00000dc8       __real@41dbc271a2800000    00000001800cfdc8     hyd_hyb_2_opt_cont_test_new_sfun.obj
 0002:00000dd0       __real@41e7aa6d3b400000    00000001800cfdd0     hyd_hyb_2_opt_cont_test_new_sfun.obj
 0002:00000dd8       __real@41e79156d6a00000    00000001800cfdd8     hyd_hyb_2_opt_cont_test_new_sfun.obj
 0002:00000de0       __real@41d992f8ab400000    00000001800cfde0     hyd_hyb_2_opt_cont_test_new_sfun.obj
 0002:00000de8       __real@41c93dd80c800000    00000001800cfde8     hyd_hyb_2_opt_cont_test_new_sfun.obj
 0002:00000df0       __real@41ddab7f5ec00000    00000001800cfdf0     hyd_hyb_2_opt_cont_test_new_sfun.obj
 0002:00000df8       __real@41e693d8a4a00000    00000001800cfdf8     hyd_hyb_2_opt_cont_test_new_sfun.obj
 0002:00000e00       __real@41e29765e5c00000    00000001800cfe00     hyd_hyb_2_opt_cont_test_new_sfun.obj
 0002:00000e08       __real@41ec2c15b7800000    00000001800cfe08     hyd_hyb_2_opt_cont_test_new_sfun.obj
 0002:00000e10       __real@41edc177b5c00000    00000001800cfe10     hyd_hyb_2_opt_cont_test_new_sfun.obj
 0002:00000e18       ??_C@_00CNPNBAHC@?$AA@     00000001800cfe18     sfc_mex:sfc_mex.obj
 0002:00000e1c       ??_C@_05DGLCPCBN@?$CFsx?$CFd?$AA@ 00000001800cfe1c     sfc_mex:sfc_mex.obj
 0002:00000e24       ??_C@_02DPKJAMEF@?$CFd?$AA@ 00000001800cfe24     sfc_mex:sfc_mex.obj
 0002:00000e28       ??_C@_0CC@DJOAOECF@Unknown?5MATLAB?5error?5encountered@ 00000001800cfe28     sfc_mex:sfc_mex.obj
 0002:00000e50       ??_C@_0CJ@DAIIKGLI@?$CFs?5in?5?$CFs?5should?5never?5be?5called?5@ 00000001800cfe50     sfc_mex:sfc_mex.obj
 0002:00000e80       ??_C@_0CE@ICKLNELB@Error?5calling?5MATLAB?5function?5?8?$CF@ 00000001800cfe80     sfc_mex:sfc_mex.obj
 0002:00000ea4       ??_C@_02DKCKIIND@?$CFs?$AA@ 00000001800cfea4     sfc_mex:sfc_mex.obj
 0002:00000ea8       ??_C@_07PHDIELCI@lasterr?$AA@ 00000001800cfea8     sfc_mex:sfc_mex.obj
 0002:00000eb0       ??_C@_09HKCBALOK@embedded?4?$AA@ 00000001800cfeb0     sfc_mex:sfc_mex.obj
 0002:00000ebc       ??_C@_06BNJCAIGJ@double?$AA@ 00000001800cfebc     sfc_mex:sfc_mex.obj
 0002:00000ec4       ??_C@_06EJFMBPJF@single?$AA@ 00000001800cfec4     sfc_mex:sfc_mex.obj
 0002:00000ecc       ??_C@_04KBDJOJNB@?$FL?$CFd?$FN?$AA@ 00000001800cfecc     sfc_mex:sfc_mex.obj
 0002:00000ed8       ??_C@_0CD@NFPEPNBJ@Cannot?5add?5field?5?$CFs?5to?5struct?5?$CFs@ 00000001800cfed8     sfc_mex:sfc_mex.obj
 0002:00000f00       ??_C@_0CF@PLDCCEBG@Cannot?5get?5field?5?$CFs?5from?5struct?5@ 00000001800cff00     sfc_mex:sfc_mex.obj
 0002:00000f28       ??_C@_0CO@MFJLJCHI@Struct?5array?5?8?$CFs?8?5does?5not?5have?5@ 00000001800cff28     sfc_mex:sfc_mex.obj
 0002:00000f58       ??_C@_0DF@IPGEGIDM@Object?5?8?$CFs?8?5is?5not?5a?5struct?3?5can@ 00000001800cff58     sfc_mex:sfc_mex.obj
 0002:00000f90       ??_C@_0BL@KEKJNNL@MATLAB?5expression?5?8?$CFs?8?5?$CFs?4?$AA@ 00000001800cff90     sfc_mex:sfc_mex.obj
 0002:00000fb0       ??_C@_0GH@JOEOEBFA@Size?5mismatch?5for?5?8?$CFs?8?5on?5dimens@ 00000001800cffb0     sfc_mex:sfc_mex.obj
 0002:00001018       ??_C@_04IAGNFIBA@size?$AA@ 00000001800d0018     sfc_mex:sfc_mex.obj
 0002:00001020       ??_C@_0DN@DNLDLJNN@is?5not?5of?5the?5correct?5class?3?5exp@ 00000001800d0020     sfc_mex:sfc_mex.obj
 0002:00001060       ??_C@_06POLMGHPK@isreal?$AA@ 00000001800d0060     sfc_mex:sfc_mex.obj
 0002:00001068       ??_C@_0CC@EDDDCJDC@is?5not?5of?5the?5correct?5complexnes@ 00000001800d0068     sfc_mex:sfc_mex.obj
 0002:00001090       ??_C@_0CB@POBCEEOP@is?5not?5of?5the?5correct?5sparseness@ 00000001800d0090     sfc_mex:sfc_mex.obj
 0002:000010b8       ??_C@_0CC@JOFDGEBC@is?5not?5of?5the?5correct?5numerictyp@ 00000001800d00b8     sfc_mex:sfc_mex.obj
 0002:000010e0       ??_C@_07MIMONDDE@isequal?$AA@ 00000001800d00e0     sfc_mex:sfc_mex.obj
 0002:000010e8       ??_C@_0M@NAPEIPJI@numerictype?$AA@ 00000001800d00e8     sfc_mex:sfc_mex.obj
 0002:000010f8       ??_C@_0BN@IMIABIKK@is?5not?5of?5the?5correct?5fimath?$AA@ 00000001800d00f8     sfc_mex:sfc_mex.obj
 0002:00001118       ??_C@_06LJOKAFHF@fimath?$AA@ 00000001800d0118     sfc_mex:sfc_mex.obj
 0002:00001120       ??_C@_0EP@IAFBLFNF@Stateflow?5Internal?5Error?3?5?6Error@ 00000001800d0120     sfc_mex:sfc_mex.obj
 0002:00001170       ??_C@_02GFKODMMF@sf?$AA@   00000001800d0170     sfc_mex:sfc_mex.obj
 0002:00001178       ??_C@_08MJJBNONC@mxDecode?$AA@ 00000001800d0178     sfc_mex:sfc_mex.obj
 0002:00001190       ??_C@_0GH@OOBFJADG@Simulation?5stopped?5due?5to?5out?5of@ 00000001800d0190     sfc_mex:sfc_mex.obj
 0002:00001200       ??_C@_0HC@JODLBNFO@Simulation?5stopped?5due?5to?5size?5m@ 00000001800d0200     sfc_mex:sfc_mex.obj
 0002:00001280       ??_C@_0HC@PPOAOPGB@Simulation?5stopped?5due?5to?5size?5m@ 00000001800d0280     sfc_mex:sfc_mex.obj
 0002:00001300       ??_C@_0JM@OFMOAAGL@Simulation?5stopped?5due?5to?5size?5m@ 00000001800d0300     sfc_mex:sfc_mex.obj
 0002:000013a0       ??_C@_0KC@ODCGHMPH@Simulation?5stopped?5due?5to?5size?5o@ 00000001800d03a0     sfc_mex:sfc_mex.obj
 0002:00001450       ??_C@_0GO@BKNPNGBP@Subscripted?5assignment?5dimension@ 00000001800d0450     sfc_mex:sfc_mex.obj
 0002:000014c0       ??_C@_0DJ@MEDANBMA@Enable?5debugging?5to?5pinpoint?5the@ 00000001800d04c0     sfc_mex:sfc_mex.obj
 0002:000014fc       ??_C@_01CLKCMJKC@?5?$AA@   00000001800d04fc     sfc_mex:sfc_mex.obj
 0002:00001500       ??_C@_0BAO@DDKKHLGF@Matrix?$CImatrix?$CJ?5subscript?5turned?5@ 00000001800d0500     sfc_mex:sfc_mex.obj
 0002:00001610       ??_C@_0BAO@MGKOAKHL@Vector?$CIvector?$CJ?5subscript?5turned?5@ 00000001800d0610     sfc_mex:sfc_mex.obj
 0002:00001720       ??_C@_0FC@HJKNPCCF@Negative?5value?5detected?4?5Enable?5@ 00000001800d0720     sfc_mex:sfc_mex.obj
 0002:00001778       ??_C@_0DK@JJKHINMK@Overflow?5detected?4?5Enable?5debugg@ 00000001800d0778     sfc_mex:sfc_mex.obj
 0002:000017c0       ??_C@_0EA@POIJMBCP@Divide?5by?5zero?5detected?4?5Enable?5@ 00000001800d07c0     sfc_mex:sfc_mex.obj
 0002:00001800       ??_C@_0EK@CFEMECLL@Nonconforming?5enum?5value?5detecte@ 00000001800d0800     sfc_mex:sfc_mex.obj
 0002:00001850       ??_C@_0EE@BPGAOMO@Size?5mismatch?5for?5MATLAB?5express@ 00000001800d0850     sfc_mex:sfc_mex.obj
 0002:00001898       ??_C@_07JFPGMOK@fprintf?$AA@ 00000001800d0898     sfc_mex:sfc_mex.obj
 0002:000018a0       ??_C@_0FE@EHCFPDEG@In?5MATLAB?5expression?5?8?$CFs?8?0?5field@ 00000001800d08a0     sfc_mex:sfc_mex.obj
 0002:000018f8       ??_C@_0DE@IJIFCHLH@In?5MATLAB?5expression?5?8?$CFs?8?0?5field@ 00000001800d08f8     sfc_mex:sfc_mex.obj
 0002:00001930       ??_C@_0FK@JKPMKGDE@MATLAB?5expression?5?8?$CFs?8?5does?5not?5@ 00000001800d0930     sfc_mex:sfc_mex.obj
 0002:0000198c       ??_C@_06PBJBIPGK@struct?$AA@ 00000001800d098c     sfc_mex:sfc_mex.obj
 0002:00001998       ??_C@_0O@NFNPPCGN@isfimathlocal?$AA@ 00000001800d0998     sfc_mex:sfc_mex.obj
 0002:000019a8       ??_C@_0M@MLCGNPLD@embedded?4fi?$AA@ 00000001800d09a8     sfc_mex:sfc_mex.obj
 0002:000019b8       ??_C@_0M@EGMNDJHO@?$CFs?5?$DN?5?$CF?415g?6?$AA@ 00000001800d09b8     sfc_mex:sfc_mex.obj
 0002:000019c4       ??_C@_03OFAPEBGM@?$CFs?6?$AA@ 00000001800d09c4     sfc_mex:sfc_mex.obj
 0002:000019c8       ??_C@_0CL@LLBJDFID@failed?5sf_assertion?5in?5?$CFs?5at?5lin@ 00000001800d09c8     sfc_mex:sfc_mex.obj
 0002:00001a00       ??_C@_0EJ@MIHEOKKA@?8?$CFs?8?3?5Array?5with?5number?5of?5dimen@ 00000001800d0a00     sfc_mex:sfc_mex.obj
 0002:00001a50       ??_C@_09JCLLFAHO@sfc_mex?4c?$AA@ 00000001800d0a50     sfc_mex:sfc_mex.obj
 0002:00001a60       ??_C@_0O@FCFMOEOA@aNumDims?5?$DO?$DN?50?$AA@ 00000001800d0a60     sfc_mex:sfc_mex.obj
 0002:00001a70       ??_C@_0CK@KDIMGCCA@?8?$CFs?8?3?5Sparse?5matrices?5are?5not?5su@ 00000001800d0a70     sfc_mex:sfc_mex.obj
 0002:00001aa0       ??_C@_0CI@KBLJAMNB@MATLAB?5expression?5?8?$CFs?8?5is?5not?5nu@ 00000001800d0aa0     sfc_mex:sfc_mex.obj
 0002:00001ac8       ??_C@_0P@LCMMCGDM@aSrcMx?5?$CB?$DN?5NULL?$AA@ 00000001800d0ac8     sfc_mex:sfc_mex.obj
 0002:00001ae0       ??_C@_0EI@HJNNACGI@Eval?5of?5MATLAB?5expression?5?8?$CFs?8?5i@ 00000001800d0ae0     sfc_mex:sfc_mex.obj
 0002:00001b28       ??_C@_0DM@BJICAGGK@Stateflow?5currently?5only?5support@ 00000001800d0b28     sfc_mex:sfc_mex.obj
 0002:00001b64       ??_C@_05LAPONLG@false?$AA@ 00000001800d0b64     sfc_mex:sfc_mex.obj
 0002:00001b6c       ??_C@_03LHCJEHON@nan?$AA@  00000001800d0b6c     sfc_mex:sfc_mex.obj
 0002:00001b70       ??_C@_04BHIIPFEC@base?$AA@ 00000001800d0b70     sfc_mex:sfc_mex.obj
 0002:00001b78       ??_C@_06PLMANNP@evalin?$AA@ 00000001800d0b78     sfc_mex:sfc_mex.obj
 0002:00001b80       ??_C@_06GFECGKEO@caller?$AA@ 00000001800d0b80     sfc_mex:sfc_mex.obj
 0002:00001b88       ??_C@_0CM@LOMLNLMC@Invalid?5workspace?5type?5for?5sf_ma@ 00000001800d0b88     sfc_mex:sfc_mex.obj
 0002:00001bb4       ??_C@_01GBGANLPD@0?$AA@    00000001800d0bb4     sfc_mex:sfc_mex.obj
 0002:00001bb8       ??_C@_06FJKEMHGD@global?$AA@ 00000001800d0bb8     sfc_mex:sfc_mex.obj
 0002:00001bc0       ??_C@_08KHPDDPHG@getfield?$AA@ 00000001800d0bc0     sfc_mex:sfc_mex.obj
 0002:00001bcc       ??_C@_05LPIJGKJ@Value?$AA@ 00000001800d0bcc     sfc_mex:sfc_mex.obj
 0002:00001bd8       ??_C@_0BH@HNIMIIFD@Unknown?5workspace?5type?$AA@ 00000001800d0bd8     sfc_mex:sfc_mex.obj
 0002:00001bf0       ??_C@_0DA@IPMLFPJI@MATLAB?5expression?5?8?$CFs?8?5could?5not@ 00000001800d0bf0     sfc_mex:sfc_mex.obj
 0002:00001c20       ??_C@_0EB@HHPLBHBA@Parameter?5value?5out?5of?5bounds?4?5?$CF@ 00000001800d0c20     sfc_mex:sfc_mex.obj
 0002:00001c70       __mask@@NegDouble@         00000001800d0c70     sfc_mex:sfc_mex.obj
 0002:00001c80       ??_C@_0CB@DBMOOMDL@Unsupported?5class?5type?5?$CFs?5for?5?$CFs@ 00000001800d0c80     sfc_mex:sfc_mex.obj
 0002:00001ca8       ??_C@_0BI@OPNKAIOC@mxIsComplex?$CImxArrayPtr?$CJ?$AA@ 00000001800d0ca8     sfc_mex:sfc_mex.obj
 0002:00001cc0       ??_C@_0GA@OFLPCMBM@Stateflow?5Runtime?5Warning?3?5Loss?5@ 00000001800d0cc0     sfc_mex:sfc_mex.obj
 0002:00001d20       __real@3810000000000000    00000001800d0d20     sfc_mex:sfc_mex.obj
 0002:00001d28       __real@47efffffe0000000    00000001800d0d28     sfc_mex:sfc_mex.obj
 0002:00001d30       __real@c060000000000000    00000001800d0d30     sfc_mex:sfc_mex.obj
 0002:00001d38       __real@405fc00000000000    00000001800d0d38     sfc_mex:sfc_mex.obj
 0002:00001d40       __real@406fe00000000000    00000001800d0d40     sfc_mex:sfc_mex.obj
 0002:00001d48       __real@c0e0000000000000    00000001800d0d48     sfc_mex:sfc_mex.obj
 0002:00001d50       __real@40dfffc000000000    00000001800d0d50     sfc_mex:sfc_mex.obj
 0002:00001d58       __real@40efffe000000000    00000001800d0d58     sfc_mex:sfc_mex.obj
 0002:00001d60       __real@c1e0000000000000    00000001800d0d60     sfc_mex:sfc_mex.obj
 0002:00001d68       __real@41dfffffffc00000    00000001800d0d68     sfc_mex:sfc_mex.obj
 0002:00001d70       __real@41efffffffe00000    00000001800d0d70     sfc_mex:sfc_mex.obj
 0002:00001d78       ??_C@_0DO@JIJMNCAH@Class?5mismatch?5for?5variable?5?8?$CFs?8@ 00000001800d0d78     sfc_mex:sfc_mex.obj
 0002:00001db8       ??_C@_03BBKEAIF@?$DP?$DP?$DP?$AA@ 00000001800d0db8     sfc_mex:sfc_mex.obj
 0002:00001dc0       ??_C@_0DE@HICLJLJO@Assignment?5of?5complex?5data?5to?5no@ 00000001800d0dc0     sfc_mex:sfc_mex.obj
 0002:00001df8       ??_C@_0CF@NHFFCIEB@MATLAB?5function?5?8?$CFs?8?5returned?5NU@ 00000001800d0df8     sfc_mex:sfc_mex.obj
 0002:00001e20       ??_C@_0GP@JPKMBIEI@Array?5bounds?5error?5in?5MATLAB?5exp@ 00000001800d0e20     sfc_mex:sfc_mex.obj
 0002:00001e90       ??_C@_0P@FLJFOPHI@pIndex?$FLi?$FN?5?$DO?$DN?50?$AA@ 00000001800d0e90     sfc_mex:sfc_mex.obj
 0002:00001ea0       ??_C@_0DI@IGEABFHB@MATLAB?5expression?5?8?$CFs?8?5has?5?$CFd?5di@ 00000001800d0ea0     sfc_mex:sfc_mex.obj
 0002:00001ed8       ??_C@_0L@EFLJKPA@mxArrayPtr?$AA@ 00000001800d0ed8     sfc_mex:sfc_mex.obj
 0002:00001ee8       ??_C@_0CK@FHKKOEPH@numDims?5?$DO?$DN?50?5?$CG?$CG?5numDims?5?$DM?$DN?5MAX_D@ 00000001800d0ee8     sfc_mex:sfc_mex.obj
 0002:00001f20       ??_C@_0EM@MPIDLJBF@MATLAB?5expression?5?8?$CFs?8?5subscript@ 00000001800d0f20     sfc_mex:sfc_mex.obj
 0002:00001f6c       ??_C@_04IGKKBJEE@?$DN?$CFg?$DL?$AA@ 00000001800d0f6c     sfc_mex:sfc_mex.obj
 0002:00001f74       ??_C@_01PKGAHCOL@?$CJ?$AA@ 00000001800d0f74     sfc_mex:sfc_mex.obj
 0002:00001f78       ??_C@_03LEIBKMN@?0?$CFd?$AA@ 00000001800d0f78     sfc_mex:sfc_mex.obj
 0002:00001f7c       ??_C@_03IECKINJK@?$CI?$CFd?$AA@ 00000001800d0f7c     sfc_mex:sfc_mex.obj
 0002:00001f80       ??_C@_0FB@HKJNNBFK@Stateflow?5ml?5type?5data?5?8?$CFs?8?5subs@ 00000001800d0f80     sfc_mex:sfc_mex.obj
 0002:00001fd8       ??_C@_0CN@HPHHCDPK@Stateflow?5ml?5type?5data?5?8?$CFs?8?5is?5n@ 00000001800d0fd8     sfc_mex:sfc_mex.obj
 0002:00002008       ??_C@_0CG@JIOBALFE@Stateflow?5ml?5type?5data?5?8?$CFs?8?5is?5e@ 00000001800d1008     sfc_mex:sfc_mex.obj
 0002:00002030       ??_C@_0BD@GAHDCPBG@mxArrayPtr?5?$CB?$DN?5NULL?$AA@ 00000001800d1030     sfc_mex:sfc_mex.obj
 0002:00002048       ??_C@_0CF@HCINMAFF@result?5?$DN?5mxCreateDoubleScalar?$CIva@ 00000001800d1048     sfc_mex:sfc_mex.obj
 0002:00002070       ??_C@_0BF@GAJKLFOH@fixpt_lower_mx_array?$AA@ 00000001800d1070     sfc_mex:sfc_mex.obj
 0002:00002088       ??_C@_02FINOOIBE@Cg?$AA@   00000001800d1088     sfc_mex:sfc_mex.obj
 0002:00002090       ??_C@_09GIFEIFFL@sfprivate?$AA@ 00000001800d1090     sfc_mex:sfc_sf.obj
 0002:000020a0       ??_C@_0CC@JDELABLI@get_machine_and_chart_file_numbe@ 00000001800d10a0     sfc_mex:sfc_sf.obj
 0002:000020c8       ??_C@_0BO@JCKKMPIB@get_sfun_block_specialization?$AA@ 00000001800d10c8     sfc_mex:sfc_sf.obj
 0002:000020f0       ??_C@_0FP@OGBKADON@The?5chart?5name?5?4?4?4?$CFs?5is?5not?5pres@ 00000001800d10f0     sfc_mex:sfc_sf.obj
 0002:00002150       ??_C@_0FM@KEMGDKHM@The?5chart?5name?5?$CFs?5is?5not?5present@ 00000001800d1150     sfc_mex:sfc_sf.obj
 0002:000021b0       ??_C@_0BD@NMFAPBEK@mdlInitializeSizes?$AA@ 00000001800d11b0     sfc_mex:sfc_sf.obj
 0002:000021c4       ??_C@_06EJFCAODB@sfc_sf?$AA@ 00000001800d11c4     sfc_mex:sfc_sf.obj
 0002:000021d0       ??_C@_0BJ@PBIFPMMD@mdlInitializeSampleTimes?$AA@ 00000001800d11d0     sfc_mex:sfc_sf.obj
 0002:000021f0       ??_C@_0IP@CJMACPIP@Stateflow?5Internal?5Error?3?5?6rtw_o@ 00000001800d11f0     sfc_mex:sfc_sf.obj
 0002:00002280       ??_C@_0GN@DNCJEGHD@Stateflow?5Internal?5Error?3?5?6Error@ 00000001800d1280     sfc_mex:sfc_sf.obj
 0002:000022f0       ??_C@_0BG@PNKGMGHF@rtw_optimization_info?$AA@ 00000001800d12f0     sfc_mex:sfc_sf.obj
 0002:00002308       ??_C@_07CFINJGKH@Private?$AA@ 00000001800d1308     sfc_mex:sfc_sf.obj
 0002:00002310       ??_C@_0BA@PHPHFLPF@chart_inlinable?$AA@ 00000001800d1310     sfc_mex:sfc_sf.obj
 0002:00002320       ??_C@_0MB@KGDKCEKF@Stateflow?5Internal?5Error?3?5?6Numbe@ 00000001800d1320     sfc_mex:sfc_sf.obj
 0002:000023e8       ??_C@_0CA@GOKFFBBO@outputEventsWithMultipleCallers?$AA@ 00000001800d13e8     sfc_mex:sfc_sf.obj
 0002:00002410       ??_C@_0LH@NDHODBLK@Stateflow?5Internal?5Error?3?5?6Numbe@ 00000001800d1410     sfc_mex:sfc_sf.obj
 0002:000024c8       ??_C@_0BB@GEEDBOGK@reusable_outputs?$AA@ 00000001800d14c8     sfc_mex:sfc_sf.obj
 0002:000024e0       ??_C@_0II@FEBCOBGA@Stateflow?5Internal?5Error?3?5?6Numbe@ 00000001800d14e0     sfc_mex:sfc_sf.obj
 0002:00002568       ??_C@_0BG@HMMHPAKE@expressionable_inputs?$AA@ 00000001800d1568     sfc_mex:sfc_sf.obj
 0002:00002580       ??_C@_01CELHOKLL@?$HN?$AA@ 00000001800d1580     sfc_mex:sfc_sf.obj
 0002:00002588       ??_C@_0BA@OMJBIEIL@SymbolMapping?5?$HL?$AA@ 00000001800d1588     sfc_mex:sfc_sf.obj
 0002:00002598       ??_C@_07MMIKLHCA@defines?$AA@ 00000001800d1598     sfc_mex:sfc_sf.obj
 0002:000025a0       ??_C@_09CEAIPAHE@functions?$AA@ 00000001800d15a0     sfc_mex:sfc_sf.obj
 0002:000025b0       ??_C@_09PNCJPHGM@sfSymbols?$AA@ 00000001800d15b0     sfc_mex:sfc_sf.obj
 0002:000025c0       ??_C@_0BB@MBBOKNEL@listen_for_ctrlc?$AA@ 00000001800d15c0     sfc_mex:sfc_sf.obj
 0002:000025d4       ??_C@_03LOANPFAI@mex?$AA@  00000001800d15d4     sfc_mex:sfc_sf.obj
 0002:000025d8       ??_C@_07HLHKBCBI@sfdebug?$AA@ 00000001800d15d8     sfc_mex:sfc_sf.obj
 0002:000025e0       ??_C@_07MFNNEMOJ@drawnow?$AA@ 00000001800d15e0     sfc_mex:sfc_sf.obj
 0002:000025e8       __real@3fd3333333333333    00000001800d15e8     sfc_mex:sfc_sf.obj
 0002:000025f0       ??_C@_0DG@OJBAPEMA@Internal?5Error?3?5paramsIndex?5?$DN?5?$CFd@ 00000001800d15f0     sfc_mex:sfc_sf.obj
 0002:00002630       ??_C@_0BAI@GPDPHGCD@Cannot?5broadcast?5function?5call?5o@ 00000001800d1630     sfc_mex:sfc_sf.obj
 0002:00002740       ??_C@_0BBC@NGKHEJAF@Cannot?5enable?1disable?5function?5c@ 00000001800d1740     sfc_mex:sfc_sf.obj
 0002:00002858       ??_C@_08HDNBGBNP@bitWidth?$AA@ 00000001800d1858     sfc_mex:sfc_sf.obj
 0002:00002868       ??_C@_0BG@MDDFDLDC@resolveToSignalObject?$AA@ 00000001800d1868     sfc_mex:sfc_sf.obj
 0002:00002880       ??_C@_07KHBFOCMF@varName?$AA@ 00000001800d1880     sfc_mex:sfc_sf.obj
 0002:00002888       ??_C@_09LHPHPAOE@isComplex?$AA@ 00000001800d1888     sfc_mex:sfc_sf.obj
 0002:00002898       ??_C@_0CM@OAMAJMIG@Failed?5to?5register?5type?5?8?$CFs?8?5wit@ 00000001800d1898     sfc_mex:sfc_sf.obj
 0002:000028c8       ??_C@_08MLIGMCAH@typeSize?$AA@ 00000001800d18c8     sfc_mex:sfc_sf.obj
 0002:000028d8       ??_C@_0BI@OFLHAMB@vector_of_void_pointers?$AA@ 00000001800d18d8     sfc_mex:sfc_sf.obj
 0002:000028f0       ??_C@_04NBAGBPGE@bias?$AA@ 00000001800d18f0     sfc_mex:sfc_sf.obj
 0002:000028f8       ??_C@_08EGJNFMPO@exponent?$AA@ 00000001800d18f8     sfc_mex:sfc_sf.obj
 0002:00002904       ??_C@_05LAHHKLJI@slope?$AA@ 00000001800d1904     sfc_mex:sfc_sf.obj
 0002:00002910       ??_C@_0L@EMMELFNN@wordLength?$AA@ 00000001800d1910     sfc_mex:sfc_sf.obj
 0002:00002920       ??_C@_08EJEJGLGA@isSigned?$AA@ 00000001800d1920     sfc_mex:sfc_sf.obj
 0002:0000292c       ??_C@_05LFJLPLPG@fixpt?$AA@ 00000001800d192c     sfc_mex:sfc_sf.obj
 0002:00002938       ??_C@_07GOBOHMJA@boolean?$AA@ 00000001800d1938     sfc_mex:sfc_sf.obj
 0002:00002940       ??_C@_06PKDKHAMA@uint32?$AA@ 00000001800d1940     sfc_mex:sfc_sf.obj
 0002:00002948       ??_C@_05GIMEPBJB@int32?$AA@ 00000001800d1948     sfc_mex:sfc_sf.obj
 0002:00002950       ??_C@_06JNNCGBKK@uint16?$AA@ 00000001800d1950     sfc_mex:sfc_sf.obj
 0002:00002958       ??_C@_05PCMOAPL@int16?$AA@ 00000001800d1958     sfc_mex:sfc_sf.obj
 0002:00002960       ??_C@_05BOGOCLFF@uint8?$AA@ 00000001800d1960     sfc_mex:sfc_sf.obj
 0002:00002968       ??_C@_04DCGBOBJJ@int8?$AA@ 00000001800d1968     sfc_mex:sfc_sf.obj
 0002:00002970       ??_C@_04GPMDFGEJ@type?$AA@ 00000001800d1970     sfc_mex:sfc_sf.obj
 0002:00002978       ??_C@_0O@EIPJLOAA@extModeUpload?$AA@ 00000001800d1978     sfc_mex:sfc_sf.obj
 0002:00002988       __real@43e0000000000000    00000001800d1988     sfc_mex:sfc_sf.obj
 0002:00002990       ??_C@_03PLHFFLIH@ptr?$AA@  00000001800d1990     sfc_mex:sfc_sf.obj
 0002:00002998       ??_C@_0BC@HMCIKMPA@requiredStackSize?$AA@ 00000001800d1998     sfc_mex:sfc_sf.obj
 0002:000029b0       ??_C@_0CB@OCGIMAKA@RegisterMachineParentedDataDwork@ 00000001800d19b0     sfc_mex:sfc_sf.obj
 0002:000029d8       ??_C@_0BD@LFPAKDFC@machineDataVarInfo?$AA@ 00000001800d19d8     sfc_mex:sfc_sf.obj
 0002:000029f0       ??_C@_09GAJBGLOB@dworkInfo?$AA@ 00000001800d19f0     sfc_mex:sfc_sf.obj
 0002:00002a00       sf_uint_bits_log2          00000001800d1a00     sfc_debug:sfcdebug.obj
 0002:00002a20       ??_C@_04GKMJMOBJ@disp?$AA@ 00000001800d1a20     sfc_debug:sfcdebug.obj
 0002:00002a28       ??_C@_0DJ@GEKCDEED@Runtime?5size?5mismatch?5for?5dimens@ 00000001800d1a28     sfc_debug:sfcdebug.obj
 0002:00002a68       ??_C@_0N@IHFJDIPG@load_machine?$AA@ 00000001800d1a68     sfc_debug:sfcdebug.obj
 0002:00002a78       ??_C@_0P@NOFOFJMO@ScriptCacheGet?$AA@ 00000001800d1a78     sfc_debug:sfcdebug.obj
 0002:00002a88       ??_C@_0BD@LPIHANBP@State?5Entry?5Action?$AA@ 00000001800d1a88     sfc_debug:sfcdebug.obj
 0002:00002aa0       ??_C@_0BE@EDAKPKIF@State?5During?5Action?$AA@ 00000001800d1aa0     sfc_debug:sfcdebug.obj
 0002:00002ab8       ??_C@_0BC@FKIGLKJE@State?5Exit?5Action?$AA@ 00000001800d1ab8     sfc_debug:sfcdebug.obj
 0002:00002acc       ??_C@_04CGFJFPFD@none?$AA@ 00000001800d1acc     sfc_debug:sfcdebug.obj
 0002:00002ad8       ??_C@_0BD@JMJALEKH@Transition?5Trigger?$AA@ 00000001800d1ad8     sfc_debug:sfcdebug.obj
 0002:00002af0       ??_C@_0BO@JIGLNAHF@Transition?5Guarding?5Condition?$AA@ 00000001800d1af0     sfc_debug:sfcdebug.obj
 0002:00002b10       ??_C@_0BB@ODEGBFLN@Condition?5Action?$AA@ 00000001800d1b10     sfc_debug:sfcdebug.obj
 0002:00002b28       ??_C@_0BC@EPJNNAPA@Transition?5Action?$AA@ 00000001800d1b28     sfc_debug:sfcdebug.obj
 0002:00002b40       ??_C@_0DI@JGHJOLLJ@INTERNAL?5ERROR?4?5Failed?5assertion@ 00000001800d1b40     sfc_debug:sfcdebug.obj
 0002:00002b78       ??_C@_01EEMJAFIK@?6?$AA@   00000001800d1b78     sfc_debug:sfcdebug.obj
 0002:00002b80       ??_C@_0P@HHNBJNJA@context_string?$AA@ 00000001800d1b80     sfc_debug:sfcdebug.obj
 0002:00002b90       ??_C@_0DL@EPKGPGLC@?$CImachine?9?$DOdataCompInfo?4fixedPoin@ 00000001800d1b90     sfc_debug:sfcdebug.obj
 0002:00002bd0       ??_C@_0L@GJHMCDGO@sfcdebug?4c?$AA@ 00000001800d1bd0     sfc_debug:sfcdebug.obj
 0002:00002be0       ??_C@_0DE@CBCLKIAM@?$CImachine?9?$DOdataCompInfo?4isComplex@ 00000001800d1be0     sfc_debug:sfcdebug.obj
 0002:00002c18       ??_C@_0DP@MDOJBFKE@?$CIinstance?9?$DOdataCompInfo?4fixedPoi@ 00000001800d1c18     sfc_debug:sfcdebug.obj
 0002:00002c58       ??_C@_0DM@KFHGIBMB@?$CIinstance?9?$DOdataCompInfo?4fixedPoi@ 00000001800d1c58     sfc_debug:sfcdebug.obj
 0002:00002c98       ??_C@_0DF@IIPJPBAH@?$CIinstance?9?$DOdataCompInfo?4isComple@ 00000001800d1c98     sfc_debug:sfcdebug.obj
 0002:00002cd0       ??_C@_0DA@OMEPAHNH@?$CIchart?9?$DOdata?4outputDataFlags?$CJ?4le@ 00000001800d1cd0     sfc_debug:sfcdebug.obj
 0002:00002d00       ??_C@_0CP@JPBDBJBK@?$CIchart?9?$DOdata?4inputDataFlags?$CJ?4len@ 00000001800d1d00     sfc_debug:sfcdebug.obj
 0002:00002d30       ??_C@_03KGJNKAJD@lic?$AA@  00000001800d1d30     sfc_debug:sfcdebug.obj
 0002:00002d34       ??_C@_04PNMLDJAE@ense?$AA@ 00000001800d1d34     sfc_debug:sfcdebug.obj
 0002:00002d40       ??_C@_0L@ONMHLBPB@?$CFs?$CFs?$CFslbox?$AA@ 00000001800d1d40     sfc_debug:sfcdebug.obj
 0002:00002d4c       ??_C@_04CLOJJEIM@fixe?$AA@ 00000001800d1d4c     sfc_debug:sfcdebug.obj
 0002:00002d54       ??_C@_05CBHOIFCP@t_too?$AA@ 00000001800d1d54     sfc_debug:sfcdebug.obj
 0002:00002d5c       ??_C@_06MGFNEDEJ@d_poin?$AA@ 00000001800d1d5c     sfc_debug:sfcdebug.obj
 0002:00002d64       ??_C@_04HDOCAJNK@?$CFs?$CFs?$AA@ 00000001800d1d64     sfc_debug:sfcdebug.obj
 0002:00002d6c       ??_C@_04BJBBOLDM@chec?$AA@ 00000001800d1d6c     sfc_debug:sfcdebug.obj
 0002:00002d74       ??_C@_04KNBDLPKC@kout?$AA@ 00000001800d1d74     sfc_debug:sfcdebug.obj
 0002:00002d80       ??_C@_0BA@FKECJMCE@active_instance?$AA@ 00000001800d1d80     sfc_debug:sfcdebug.obj
 0002:00002d90       ??_C@_0DD@MJFCMKPO@transCnt?5?$DN?$DN?5instance?9?$DOcvToolIds?4@ 00000001800d1d90     sfc_debug:sfcdebug.obj
 0002:00002dc8       ??_C@_0CO@MONEMJEL@stateCnt?5?$DN?$DN?5instance?9?$DOcvToolIds?4@ 00000001800d1dc8     sfc_debug:sfcdebug.obj
 0002:00002df8       ??_C@_0O@ELHBEDAD@init_debugger?$AA@ 00000001800d1df8     sfc_debug:sfcdebug.obj
 0002:00002e08       ??_C@_0L@PKOFOKNN@break_here?$AA@ 00000001800d1e08     sfc_debug:sfcdebug.obj
 0002:00002e18       ??_C@_0BH@KBPHNGCH@script?4activeMachineId?$AA@ 00000001800d1e18     sfc_debug:sfcdebug.obj
 0002:00002e30       ??_C@_03KCHOJKKI@set?$AA@  00000001800d1e30     sfc_debug:sfcdebug.obj
 0002:00002e38       ??_C@_0DD@PKMAPHBF@?$CImachine?9?$DOdata?4watchFlags?$CJ?4lengt@ 00000001800d1e38     sfc_debug:sfcdebug.obj
 0002:00002e70       ??_C@_0FE@KLPHIMDI@?$CIchart?9?$DOdata?4watchFlags?$CJ?4length?$DO@ 00000001800d1e70     sfc_debug:sfcdebug.obj
 0002:00002ec8       ??_C@_0BO@GFBPGEIL@bufferSizeGet?5?$DN?$DN?5totalSizeGet?$AA@ 00000001800d1ec8     sfc_debug:sfcdebug.obj
 0002:00002ee8       ??_C@_0BO@BEEPOEDP@bufferSizeSet?5?$DN?$DN?5totalSizeSet?$AA@ 00000001800d1ee8     sfc_debug:sfcdebug.obj
 0002:00002f08       ??_C@_0BG@NNAKOPEK@get_script_line_count?$AA@ 00000001800d1f08     sfc_debug:sfcdebug.obj
 0002:00002f20       ??_C@_0BJ@GADAHKGG@temporal_threshold_error?$AA@ 00000001800d1f20     sfc_debug:sfcdebug.obj
 0002:00002f40       ??_C@_0BK@KABIOMCC@transition_conflict_error?$AA@ 00000001800d1f40     sfc_debug:sfcdebug.obj
 0002:00002f60       ??_C@_0BK@HLPANOPJ@state_inconsistency_error?$AA@ 00000001800d1f60     sfc_debug:sfcdebug.obj
 0002:00002f80       ??_C@_0BA@PCEGODO@cycle_detection?$AA@ 00000001800d1f80     sfc_debug:sfcdebug.obj
 0002:00002f90       ??_C@_0CP@HMOGACCG@Simulation?5stopped?5due?5to?5out?5of@ 00000001800d1f90     sfc_debug:sfcdebug.obj
 0002:00002fc0       ??_C@_0BD@LFFFHIJG@array_bounds_error?$AA@ 00000001800d1fc0     sfc_debug:sfcdebug.obj
 0002:00002fd8       ??_C@_0O@IENBAMNA@runtime_error?$AA@ 00000001800d1fd8     sfc_debug:sfcdebug.obj
 0002:00002fe8       ??_C@_0CC@EDKHOOPE@Call?5to?5MATLAB?5function?5aborted?3@ 00000001800d1fe8     sfc_debug:sfcdebug.obj
 0002:00003010       ??_C@_0DJ@JBGHLJFL@Simulation?5stopped?5due?5to?5size?5m@ 00000001800d2010     sfc_debug:sfcdebug.obj
 0002:00003050       ??_C@_0DJ@EAKPCDBG@Simulation?5stopped?5due?5to?5size?5m@ 00000001800d2050     sfc_debug:sfcdebug.obj
 0002:00003090       ??_C@_0GD@BJCLDBKO@Simulation?5stopped?5due?5to?5size?5m@ 00000001800d2090     sfc_debug:sfcdebug.obj
 0002:00003100       ??_C@_0GJ@OHCOIONE@Simulation?5stopped?5due?5to?5size?5o@ 00000001800d2100     sfc_debug:sfcdebug.obj
 0002:00003170       ??_C@_0DF@BOMHHCNB@Subscripted?5assignment?5dimension@ 00000001800d2170     sfc_debug:sfcdebug.obj
 0002:000031b0       ??_C@_0NG@BOPFGKBO@Matrix?$CImatrix?$CJ?5subscript?5turned?5@ 00000001800d21b0     sfc_debug:sfcdebug.obj
 0002:00003290       ??_C@_0HE@FPEPCMDA@Matrix?$CImatrix?$CJ?5subscript?5turned?5@ 00000001800d2290     sfc_debug:sfcdebug.obj
 0002:00003310       ??_C@_0NG@MLJIHJIH@Vector?$CIvector?$CJ?5subscript?5turned?5@ 00000001800d2310     sfc_debug:sfcdebug.obj
 0002:000033f0       ??_C@_0HE@BHPDCNDF@Vector?$CIvector?$CJ?5subscript?5turned?5@ 00000001800d23f0     sfc_debug:sfcdebug.obj
 0002:00003468       ??_C@_0BL@HKADOJK@Unknown?5runtime?5error?3?5?$CFs?4?$AA@ 00000001800d2468     sfc_debug:sfcdebug.obj
 0002:00003488       ??_C@_0P@FIEIFKHH@dataName?$CB?$DNNULL?$AA@ 00000001800d2488     sfc_debug:sfcdebug.obj
 0002:00003498       ??_C@_0BC@JKFOPCCM@non_integer_error?$AA@ 00000001800d2498     sfc_debug:sfcdebug.obj
 0002:000034b0       ??_C@_09MMCAMPEC@nan_error?$AA@ 00000001800d24b0     sfc_debug:sfcdebug.obj
 0002:000034c0       ??_C@_0P@KGNBONIG@negative_error?$AA@ 00000001800d24c0     sfc_debug:sfcdebug.obj
 0002:000034d0       ??_C@_0DA@OEGHOJFO@Simulation?5stopped?5due?5to?5divide@ 00000001800d24d0     sfc_debug:sfcdebug.obj
 0002:00003500       ??_C@_0P@DAGNNBKM@overflow_error?$AA@ 00000001800d2500     sfc_debug:sfcdebug.obj
 0002:00003510       ??_C@_0BF@IEPBJJM@divide_by_zero_error?$AA@ 00000001800d2510     sfc_debug:sfcdebug.obj
 0002:00003528       ??_C@_0BC@CNIFONOF@unsafe_enum_error?$AA@ 00000001800d2528     sfc_debug:sfcdebug.obj
 0002:00003540       ??_C@_0BA@GLGJGIFO@data_loss_error?$AA@ 00000001800d2540     sfc_debug:sfcdebug.obj
 0002:00003550       ??_C@_0BB@LFNCDKMF@data_range_error?$AA@ 00000001800d2550     sfc_debug:sfcdebug.obj
 0002:00003570       ??_C@_0EL@LHLCBPON@objectType?$DN?$DNEVENT_OBJECT?5?$CG?$CG?5obje@ 00000001800d2570     sfc_debug:sfcdebug.obj
 0002:000035c0       ??_C@_0CK@BGKNIJPH@Simulation?5stopped?5due?5to?5infini@ 00000001800d25c0     sfc_debug:sfcdebug.obj
 0002:000035f0       ??_C@_0EC@EKMLJIIP@strlen?$CItargetName?$CJ?$DMsizeof?$CIdebugI@ 00000001800d25f0     sfc_debug:sfcdebug.obj
 0002:00003640       ??_C@_0EE@LPPEFNLK@strlen?$CImachineName?$CJ?$DMsizeof?$CIdebug@ 00000001800d2640     sfc_debug:sfcdebug.obj
 0002:00003688       ??_C@_0P@NDNBPAGO@charts?9?$DOsize?$DO0?$AA@ 00000001800d2688     sfc_debug:sfcdebug.obj
 0002:00003698       ??_C@_09DACGJFPO@terminate?$AA@ 00000001800d2698     sfc_debug:sfcdebug.obj
 0002:000036a8       ??_C@_0BH@BOIPOAMD@currentoptionalinteger?$AA@ 00000001800d26a8     sfc_debug:sfc_api.obj
 0002:000036c0       ??_C@_0BI@KDFLIHKN@currentstatementcontext?$AA@ 00000001800d26c0     sfc_debug:sfc_api.obj
 0002:000036d8       ??_C@_0BF@CJJCNHOP@currentstatementinfo?$AA@ 00000001800d26d8     sfc_debug:sfc_api.obj
 0002:000036f0       ??_C@_0BA@EEHAMBBL@currentcoverage?$AA@ 00000001800d26f0     sfc_debug:sfc_api.obj
 0002:00003700       ??_C@_0BD@CPIGBEHM@currentmachinename?$AA@ 00000001800d2700     sfc_debug:sfc_api.obj
 0002:00003718       ??_C@_0BF@MPNFKHIK@currentmachinenumber?$AA@ 00000001800d2718     sfc_debug:sfc_api.obj
 0002:00003730       ??_C@_0BB@EAGFPGEG@currentmachineid?$AA@ 00000001800d2730     sfc_debug:sfc_api.obj
 0002:00003748       ??_C@_0P@LDEJFJKJ@simulationtime?$AA@ 00000001800d2748     sfc_debug:sfc_api.obj
 0002:00003758       ??_C@_0P@CKMPNBM@currenttagtype?$AA@ 00000001800d2758     sfc_debug:sfc_api.obj
 0002:00003768       ??_C@_0BH@EMAALFDO@currentactiveeventtype?$AA@ 00000001800d2768     sfc_debug:sfc_api.obj
 0002:00003780       ??_C@_0BF@BIDFPCPF@currentactiveeventid?$AA@ 00000001800d2780     sfc_debug:sfc_api.obj
 0002:00003798       ??_C@_0BA@LAPNNELA@currentobjectid?$AA@ 00000001800d2798     sfc_debug:sfc_api.obj
 0002:000037a8       ??_C@_0BB@LLJHHKEI@currenteventtype?$AA@ 00000001800d27a8     sfc_debug:sfc_api.obj
 0002:000037c0       ??_C@_0BC@BDADCDEL@currentobjecttype?$AA@ 00000001800d27c0     sfc_debug:sfc_api.obj
 0002:000037d8       ??_C@_0BH@HDHFFKCN@currentisminortimestep?$AA@ 00000001800d27d8     sfc_debug:sfc_api.obj
 0002:000037f0       ??_C@_0BG@PKFJEKLL@currentinstancehandle?$AA@ 00000001800d27f0     sfc_debug:sfc_api.obj
 0002:00003808       ??_C@_0BG@GJFHKFBJ@currentinstancenumber?$AA@ 00000001800d2808     sfc_debug:sfc_api.obj
 0002:00003820       ??_C@_0BD@DKAMMHEE@currentchartnumber?$AA@ 00000001800d2820     sfc_debug:sfc_api.obj
 0002:00003838       ??_C@_0P@EANFOHCD@currentchartid?$AA@ 00000001800d2838     sfc_debug:sfc_api.obj
 0002:00003848       ??_C@_06IMFOKBKF@assign?$AA@ 00000001800d2848     sfc_debug:sfc_api.obj
 0002:00003850       ??_C@_0BC@CMFMGKCG@set_script_cv_ids?$AA@ 00000001800d2850     sfc_debug:sfc_api.obj
 0002:00003868       ??_C@_0BE@ONNFKBAC@set_instance_cv_ids?$AA@ 00000001800d2868     sfc_debug:sfc_api.obj
 0002:00003880       ??_C@_0BE@CDIKCKCD@get_instance_handle?$AA@ 00000001800d2880     sfc_debug:sfc_api.obj
 0002:00003898       ??_C@_0BE@GPEMFILK@break_between_times?$AA@ 00000001800d2898     sfc_debug:sfc_api.obj
 0002:000038b0       ??_C@_0O@KGONFDDG@active_states?$AA@ 00000001800d28b0     sfc_debug:sfc_api.obj
 0002:000038c0       ??_C@_0BC@LHALNGBC@state_consistency?$AA@ 00000001800d28c0     sfc_debug:sfc_api.obj
 0002:000038d8       ??_C@_0BE@JNDELHDH@transition_conflict?$AA@ 00000001800d28d8     sfc_debug:sfc_api.obj
 0002:000038f0       ??_C@_0L@ECJAFPAF@data_range?$AA@ 00000001800d28f0     sfc_debug:sfc_api.obj
 0002:00003900       ??_C@_0O@NAKDKJME@select_charts?$AA@ 00000001800d2900     sfc_debug:sfc_api.obj
 0002:00003910       ??_C@_0N@KLDBDGD@select_chart?$AA@ 00000001800d2910     sfc_debug:sfc_api.obj
 0002:00003920       ??_C@_0O@NJPMKBAC@set_animation?$AA@ 00000001800d2920     sfc_debug:sfc_api.obj
 0002:00003930       ??_C@_0N@NLCAJHNH@get_coverage?$AA@ 00000001800d2930     sfc_debug:sfc_api.obj
 0002:00003940       ??_C@_09FLOFKLFE@set_watch?$AA@ 00000001800d2940     sfc_debug:sfc_api.obj
 0002:00003950       ??_C@_0O@ECMAEPOC@get_script_id?$AA@ 00000001800d2950     sfc_debug:sfc_api.obj
 0002:00003960       ??_C@_0BJ@KFGPCNG@query_script_breakpoints?$AA@ 00000001800d2960     sfc_debug:sfc_api.obj
 0002:00003980       ??_C@_0BJ@CAAHLJNF@clear_script_breakpoints?$AA@ 00000001800d2980     sfc_debug:sfc_api.obj
 0002:000039a0       ??_C@_0BH@BAILBHDP@add_script_breakpoints?$AA@ 00000001800d29a0     sfc_debug:sfc_api.obj
 0002:000039b8       ??_C@_0BH@KAKDDELG@set_script_breakpoints?$AA@ 00000001800d29b8     sfc_debug:sfc_api.obj
 0002:000039d0       ??_C@_0BE@GAGDJPKA@set_eml_breakpoints?$AA@ 00000001800d29d0     sfc_debug:sfc_api.obj
 0002:000039e8       ??_C@_0BA@NHOBHLLJ@set_breakpoints?$AA@ 00000001800d29e8     sfc_debug:sfc_api.obj
 0002:000039f8       ??_C@_0BF@GOGOODJG@break_on_state_entry?$AA@ 00000001800d29f8     sfc_debug:sfc_api.obj
 0002:00003a10       ??_C@_0BJ@FPOJDFBP@break_on_event_broadcast?$AA@ 00000001800d2a10     sfc_debug:sfc_api.obj
 0002:00003a30       ??_C@_0BF@FJBBAFJ@break_on_chart_entry?$AA@ 00000001800d2a30     sfc_debug:sfc_api.obj
 0002:00003a48       ??_C@_0N@MHHEHLAI@browse_trace?$AA@ 00000001800d2a48     sfc_debug:sfc_api.obj
 0002:00003a58       ??_C@_0BB@JEAJMJMI@consistency_info?$AA@ 00000001800d2a58     sfc_debug:sfc_api.obj
 0002:00003a6c       ??_C@_04MLCEENPJ@whos?$AA@ 00000001800d2a6c     sfc_debug:sfc_api.obj
 0002:00003a78       ??_C@_0L@LNIDAIN@watch_data?$AA@ 00000001800d2a78     sfc_debug:sfc_api.obj
 0002:00003a88       ??_C@_0M@JEJMEFEG@browse_data?$AA@ 00000001800d2a88     sfc_debug:sfc_api.obj
 0002:00003a94       ??_C@_03HNAFFKGA@get?$AA@  00000001800d2a94     sfc_debug:sfc_api.obj
 0002:00003a98       ??_C@_05LBOHBHFK@close?$AA@ 00000001800d2a98     sfc_debug:sfc_api.obj
 0002:00003aa0       ??_C@_0BM@ICDFOOIE@set_disable_all_breakpoints?$AA@ 00000001800d2aa0     sfc_debug:sfc_api.obj
 0002:00003ac0       ??_C@_0BP@IBIALPGH@disable_all_breakpoints_and_go?$AA@ 00000001800d2ac0     sfc_debug:sfc_api.obj
 0002:00003ae0       ??_C@_0BJ@BOMFHJBD@is_array_bounds_detected?$AA@ 00000001800d2ae0     sfc_debug:sfc_api.obj
 0002:00003b00       ??_C@_0BC@LKOOEAAH@is_cycle_detected?$AA@ 00000001800d2b00     sfc_debug:sfc_api.obj
 0002:00003b18       ??_C@_0P@NIBPNIDJ@stop_debugging?$AA@ 00000001800d2b18     sfc_debug:sfc_api.obj
 0002:00003b28       ??_C@_05ELPHFHOI@break?$AA@ 00000001800d2b28     sfc_debug:sfc_api.obj
 0002:00003b30       ??_C@_06PLELHCEK@resume?$AA@ 00000001800d2b30     sfc_debug:sfc_api.obj
 0002:00003b38       ??_C@_08OKABEMKO@step_out?$AA@ 00000001800d2b38     sfc_debug:sfc_api.obj
 0002:00003b48       ??_C@_09CDNMPCHO@step_over?$AA@ 00000001800d2b48     sfc_debug:sfc_api.obj
 0002:00003b54       ??_C@_02KPEDIMCA@go?$AA@   00000001800d2b54     sfc_debug:sfc_api.obj
 0002:00003b58       ??_C@_0P@MMCMIGPN@debugger_alive?$AA@ 00000001800d2b58     sfc_debug:sfc_api.obj
 0002:00003b68       ??_C@_0N@GHFBLJDM@machine_load?$AA@ 00000001800d2b68     sfc_debug:sfc_api.obj
 0002:00003b78       ??_C@_0O@GIBFCMLF@chart_visible?$AA@ 00000001800d2b78     sfc_debug:sfc_api.obj
 0002:00003fa0       ??_C@_05JEMLEKKA@found?$AA@ 00000001800d2fa0     sfc_debug:sfc_api.obj
 0002:00003fa8       ??_C@_09KFNMLIAN@sfc_api?4c?$AA@ 00000001800d2fa8     sfc_debug:sfc_api.obj
 0002:00003fb8       ??_C@_0N@PFBMDOLG@sf_debug_api?$AA@ 00000001800d2fb8     sfc_debug:sfc_api.obj
 0002:00003fc8       ??_C@_07KEAHHHLK@nrhs?$DN?$DN3?$AA@ 00000001800d2fc8     sfc_debug:sfc_api.obj
 0002:00003fd0       ??_C@_0BC@HOOMKBNL@mxIsChar?$CIprhs?$FL0?$FN?$CJ?$AA@ 00000001800d2fd0     sfc_debug:sfc_api.obj
 0002:00003fe8       ??_C@_0BF@NGLAGMHA@mxIsNumeric?$CIprhs?$FL0?$FN?$CJ?$AA@ 00000001800d2fe8     sfc_debug:sfc_api.obj
 0002:00004000       ??_C@_07IEIELKNG@nrhs?$DO?$DN1?$AA@ 00000001800d3000     sfc_debug:sfc_api.obj
 0002:00004008       ??_C@_07LNBMEGPL@nrhs?$DN?$DN2?$AA@ 00000001800d3008     sfc_debug:sfc_api.obj
 0002:00004010       ??_C@_09HBMMCBIO@nrhs?5?$DN?$DN?51?$AA@ 00000001800d3010     sfc_debug:sfc_api.obj
 0002:00004020       ??_C@_09FKOBHCEN@nrhs?5?$DN?$DN?52?$AA@ 00000001800d3020     sfc_debug:sfc_api.obj
 0002:00004030       ??_C@_09EMKMAIDO@nrhs?5?$DM?$DN?51?$AA@ 00000001800d3030     sfc_debug:sfc_api.obj
 0002:00004040       ??_C@_07OLEGOBHN@nrhs?$DN?$DN4?$AA@ 00000001800d3040     sfc_debug:sfc_api.obj
 0002:00004048       ??_C@_07PCFNNADM@nrhs?$DN?$DN5?$AA@ 00000001800d3048     sfc_debug:sfc_api.obj
 0002:00004050       ??_C@_07JGDBBFDI@nrhs?$DN?$DN1?$AA@ 00000001800d3050     sfc_debug:sfc_api.obj
 0002:00004058       ??_C@_07KBNAPCKL@nlhs?$DN?$DN1?$AA@ 00000001800d3058     sfc_debug:sfc_api.obj
 0002:00004060       ??_C@_08PAMHJLPB@statusOk?$AA@ 00000001800d3060     sfc_debug:sfc_api.obj
 0002:00004070       ??_C@_07NJHAIDPP@nrhs?$DN?$DN6?$AA@ 00000001800d3070     sfc_debug:sfc_api.obj
 0002:00004078       ??_C@_0L@EMNHGDGL@nlhs?$DN?$DNnrhs?$AA@ 00000001800d3078     sfc_debug:sfc_api.obj
 0002:00004088       ??_C@_0BP@PJLNOBEA@sf_debug_using_unified_editors?$AA@ 00000001800d3088     sfc_debug:sfdb_animation.obj
 0002:000040a8       ??_C@_0CE@EANGLCEA@sf_debug_unified_editor_has_diag@ 00000001800d30a8     sfc_debug:sfdb_animation.obj
 0002:000040d0       ??_C@_0P@BLJCAHMG@select_objects?$AA@ 00000001800d30d0     sfc_debug:sfdb_animation.obj
 0002:000040e0       ??_C@_06CFKBOPCI@states?$AA@ 00000001800d30e0     sfc_debug:sfdb_animation.obj
 0002:000040e8       ??_C@_0P@KHIIFDEG@instanceHandle?$AA@ 00000001800d30e8     sfc_debug:sfdb_animation.obj
 0002:000040f8       ??_C@_0P@DEIGLMOE@instanceNumber?$AA@ 00000001800d30f8     sfc_debug:sfdb_animation.obj
 0002:00004108       ??_C@_0N@HACOJJON@instanceName?$AA@ 00000001800d3108     sfc_debug:sfdb_animation.obj
 0002:00004118       ??_C@_0M@BFNIOHPP@chartNumber?$AA@ 00000001800d3118     sfc_debug:sfdb_animation.obj
 0002:00004128       ??_C@_07KGNNMFDL@chartId?$AA@ 00000001800d3128     sfc_debug:sfdb_animation.obj
 0002:00004130       ??_C@_09KMHJEGJ@chartName?$AA@ 00000001800d3130     sfc_debug:sfdb_animation.obj
 0002:0000413c       ??_C@_06OOECHJN@charts?$AA@ 00000001800d313c     sfc_debug:sfdb_animation.obj
 0002:00004148       ??_C@_0O@LOMGGENK@machineNumber?$AA@ 00000001800d3148     sfc_debug:sfdb_animation.obj
 0002:00004158       ??_C@_09OOJCKABH@machineId?$AA@ 00000001800d3158     sfc_debug:sfdb_animation.obj
 0002:00004168       ??_C@_0M@OCOCCFP@machineName?$AA@ 00000001800d3168     sfc_debug:sfdb_animation.obj
 0002:00004178       ??_C@_0CN@CCJEMGOM@?$CIinstance?9?$DOsm?4statePack?$CJ?4length?$DO@ 00000001800d3178     sfc_debug:sfdb_animation.obj
 0002:000041a8       ??_C@_0DC@DKAJIDPA@?$CIinstance?9?$DOsm?4transitionPack?$CJ?4le@ 00000001800d31a8     sfc_debug:sfdb_animation.obj
 0002:000041e0       ??_C@_0BB@EGGLBLCL@sfdb_animation?4c?$AA@ 00000001800d31e0     sfc_debug:sfdb_animation.obj
 0002:000041f8       ??_C@_0BB@GDGPIGLB@cv_model_enabled?$AA@ 00000001800d31f8     sfc_debug:cv_sfinterface.obj
 0002:00004210       ??_C@_09DDDNMFIJ@get_param?$AA@ 00000001800d3210     sfc_debug:cv_sfinterface.obj
 0002:00004220       ??_C@_0L@BODNDPN@CoverageId?$AA@ 00000001800d3220     sfc_debug:cv_sfinterface.obj
 0002:0000422c       ??_C@_05IEGMLJMJ@exist?$AA@ 00000001800d322c     sfc_debug:cv_sfinterface.obj
 0002:00004234       ??_C@_02DDEKINOE@cv?$AA@   00000001800d3234     sfc_debug:cv_sfinterface.obj
 0002:00004238       __real@4082c00000000000    00000001800d3238     sfc_debug:cv_sfinterface.obj
 0002:00004240       ??_C@_0O@HGNEKHDK@MatlabVersion?$AA@ 00000001800d3240     sfc_debug:cv_sfinterface.obj
 0002:00004250       ??_C@_0M@IIAIMKFO@status?5?$DN?$DN?50?$AA@ 00000001800d3250     sfc_debug:cv_sfinterface.obj
 0002:00004260       ??_C@_0BB@ENEMAMMG@cv_sfinterface?4c?$AA@ 00000001800d3260     sfc_debug:cv_sfinterface.obj
 0002:00004278       ??_C@_0CC@JMPFGLON@mxGetNumberOfElements?$CIplhs?$FL3?$FN?$CJ?$DN?$DN@ 00000001800d3278     sfc_debug:cv_sfinterface.obj
 0002:000042a0       ??_C@_0P@MCDOIOOF@plhs?$FL3?$FN?5?$CB?$DNNULL?$AA@ 00000001800d32a0     sfc_debug:cv_sfinterface.obj
 0002:000042b0       ??_C@_0P@HAMLCBNF@len?$DM?$DNdataCount?$AA@ 00000001800d32b0     sfc_debug:cv_sfinterface.obj
 0002:000042c0       ??_C@_0BA@FJOAHKLL@len?$DN?$DNtransCount?$AA@ 00000001800d32c0     sfc_debug:cv_sfinterface.obj
 0002:000042d0       ??_C@_0BA@JELAJLGI@len?$DN?$DNstateCount?$AA@ 00000001800d32d0     sfc_debug:cv_sfinterface.obj
 0002:000042e0       ??_C@_0BC@NEFBEIHN@InitChartInstance?$AA@ 00000001800d32e0     sfc_debug:cv_sfinterface.obj
 0002:000042f4       ??_C@_04MMALOABH@cvsf?$AA@ 00000001800d32f4     sfc_debug:cv_sfinterface.obj
 0002:00004300       ??_C@_0L@GIEKKEHF@InitScript?$AA@ 00000001800d3300     sfc_debug:cv_sfinterface.obj
 0002:00004310       ??_C@_08DNDOONPK@sigrange?$AA@ 00000001800d3310     sfc_debug:cv_sfinterface.obj
 0002:00004320       ??_C@_0O@KGBGEHIN@MetricEnabled?$AA@ 00000001800d3320     sfc_debug:cv_sfinterface.obj
 0002:00004330       ??_C@_0BC@NKPEPJDJ@chart?9?$DOchartId?$CB?$DN0?$AA@ 00000001800d3330     sfc_debug:cv_sfinterface.obj
 0002:00004344       ??_C@_06LIBBAANI@len?$DN?$DN1?$AA@ 00000001800d3344     sfc_debug:sfdb_handle_management.obj
 0002:00004350       ??_C@_0BJ@IEEBKHME@sfdb_handle_management?4c?$AA@ 00000001800d3350     sfc_debug:sfdb_handle_management.obj
 0002:0000436c       ??_C@_06NCGDPKCC@handle?$AA@ 00000001800d336c     sfc_debug:sfdb_handle_management.obj
 0002:00004378       ??_C@_0BP@NAIIDBEE@parentObjectType?$DN?$DNCHART_OBJECT?$AA@ 00000001800d3378     sfc_debug:sfdb_handle_management.obj
 0002:00004398       ??_C@_0BD@JOOOIBOE@get_machine_option?$AA@ 00000001800d3398     sfc_debug:sfdb_handle_management.obj
 0002:000043b0       ??_C@_0P@KGLBOIAN@get_machine_id?$AA@ 00000001800d33b0     sfc_debug:sfdb_handle_management.obj
 0002:000043c0       ??_C@_0N@OBHOGINE@get_chart_id?$AA@ 00000001800d33c0     sfc_debug:sfdb_handle_management.obj
 0002:000043d0       ??_C@_0BD@DICPGEAM@register_sfunction?$AA@ 00000001800d33d0     sfc_debug:sfdb_handle_management.obj
 0002:000043e8       ??_C@_0BK@FGANPGOL@get_chart_active_instance?$AA@ 00000001800d33e8     sfc_debug:sfdb_handle_management.obj
 0002:00004408       ??_C@_0BF@FENDCECP@get_chart_visibility?$AA@ 00000001800d3408     sfc_debug:sfdb_handle_management.obj
 0002:00004420       ??_C@_0BM@FDGIEMLG@objectProperties?9?$DOlength?$DN?$DN0?$AA@ 00000001800d3420     sfc_debug:sfdb_handle_management.obj
 0002:00004440       ??_C@_0CE@KBPIEDGG@?$CI?$CI?$CKobjectProperties?$CJ?$CJ?4length?$DOnum@ 00000001800d3440     sfc_debug:sfdb_handle_management.obj
 0002:00004468       ??_C@_0CA@HFGDFECP@len?5?$DN?$DN?5objectProperties?9?$DOlength?$AA@ 00000001800d3468     sfc_debug:sfdb_handle_management.obj
 0002:00004488       ??_C@_0P@BHPLCHGJ@get_object_ids?$AA@ 00000001800d3488     sfc_debug:sfdb_handle_management.obj
 0002:00004498       ??_C@_0BK@IFFOLHLE@objectProperties?9?$DOsize?$DN?$DN0?$AA@ 00000001800d3498     sfc_debug:sfdb_handle_management.obj
 0002:000044b8       ??_C@_0BO@GFLPGHHM@len?5?$DO?$DN?5objectProperties?9?$DOsize?$AA@ 00000001800d34b8     sfc_debug:sfdb_handle_management.obj
 0002:000044d8       ??_C@_05GFHEIIDD@event?$AA@ 00000001800d34d8     sfc_debug:sfdb_handle_management.obj
 0002:000044e0       ??_C@_0M@BFOKCNLA@debug?4watch?$AA@ 00000001800d34e0     sfc_debug:sfdb_handle_management.obj
 0002:000044ec       ??_C@_04PJOLNDGD@data?$AA@ 00000001800d34ec     sfc_debug:sfdb_handle_management.obj
 0002:000044f4       ??_C@_02EGCJHIOB@id?$AA@   00000001800d34f4     sfc_debug:sfdb_handle_management.obj
 0002:000044f8       ??_C@_0CE@OILCPIFA@machine?4debug?4disableAllBreakpoi@ 00000001800d34f8     sfc_debug:sfdb_handle_management.obj
 0002:00004520       ??_C@_0DA@JMDEGBBH@machine?4debug?4runTimeCheck?4state@ 00000001800d3520     sfc_debug:sfdb_handle_management.obj
 0002:00004550       ??_C@_0CP@IPHIMGFA@machine?4debug?4runTimeCheck?4trans@ 00000001800d3550     sfc_debug:sfdb_handle_management.obj
 0002:00004580       ??_C@_0CL@LENOAAKD@machine?4debug?4runTimeCheck?4dataR@ 00000001800d3580     sfc_debug:sfdb_handle_management.obj
 0002:000045b0       ??_C@_0CK@MBMAMLGE@machine?4debug?4runTimeCheck?4cycle@ 00000001800d35b0     sfc_debug:sfdb_handle_management.obj
 0002:000045e0       ??_C@_0CA@EGLALCO@machine?4debug?4animation?4enabled?$AA@ 00000001800d35e0     sfc_debug:sfdb_handle_management.obj
 0002:00004600       ??_C@_0L@KGLELNDP@transition?$AA@ 00000001800d3600     sfc_debug:sfdb_handle_management.obj
 0002:0000460c       ??_C@_06JKPEPHBG@dst?4id?$AA@ 00000001800d360c     sfc_debug:sfdb_handle_management.obj
 0002:00004614       ??_C@_05HDBKIDE@state?$AA@ 00000001800d3614     sfc_debug:sfdb_handle_management.obj
 0002:00004620       ??_C@_0EG@MFIKDIJB@strlen?$CImachineName?$CJ?5?$DM?5sizeof?$CIdeb@ 00000001800d3620     sfc_debug:sfdb_handle_management.obj
 0002:00004668       ??_C@_02GMHACPFF@?$CFu?$AA@ 00000001800d3668     sfc_debug:sfdb_data_browse.obj
 0002:0000466c       ??_C@_02NJPGOMH@?$CFf?$AA@ 00000001800d366c     sfc_debug:sfdb_data_browse.obj
 0002:00004670       ??_C@_0BD@PCGIEHBF@sfdb_data_browse?4c?$AA@ 00000001800d3670     sfc_debug:sfdb_data_browse.obj
 0002:00004688       __real@c2a2309ce53fffcd    00000001800d3688     sfc_debug:sfdb_data_browse.obj
 0002:00004690       ??_C@_0CK@JKBFHDPL@result?5?$DN?5mxCreateDoubleMatrix?$CI1?0@ 00000001800d3690     sfc_debug:sfdb_data_browse.obj
 0002:000046c0       ??_C@_0DK@FJDNFCNK@result?5?$DN?5mxCreateDoubleMatrix?$CI1?0@ 00000001800d36c0     sfc_debug:sfdb_data_browse.obj
 0002:00004700       ??_C@_0DL@OAKPHGJG@result?5?$DN?5mxCreateDoubleMatrix?$CI1?0@ 00000001800d3700     sfc_debug:sfdb_data_browse.obj
 0002:00004740       ??_C@_0N@MNGHGLAH@isFixedPoint?$AA@ 00000001800d3740     sfc_debug:sfdb_data_browse.obj
 0002:00004750       ??_C@_06DLEPGFEF@format?$AA@ 00000001800d3750     sfc_debug:sfdb_data_browse.obj
 0002:00004758       ??_C@_05MFEJDJP@value?$AA@ 00000001800d3758     sfc_debug:sfdb_data_browse.obj
 0002:00004760       ??_C@_05DCCHDMEJ@scope?$AA@ 00000001800d3760     sfc_debug:sfdb_data_browse.obj
 0002:00004768       ??_C@_0BM@DEONCIBN@stackPtr?5?$DN?$DN?5symScope?9?$DOstack?$AA@ 00000001800d3768     sfc_debug:sfdb_symbol_scope.obj
 0002:00004788       ??_C@_0BE@PIKAOBFK@sfdb_symbol_scope?4c?$AA@ 00000001800d3788     sfc_debug:sfdb_symbol_scope.obj
 0002:000047a0       ??_C@_0BP@MJGDIBPE@symScope?9?$DOcurrentScope?5?$CB?$DN?5NULL?$AA@ 00000001800d37a0     sfc_debug:sfdb_symbol_scope.obj
 0002:000047c0       ??_C@_0BP@OCHHKFJA@symScope?9?$DOcurrentScope?5?$DN?$DN?5NULL?$AA@ 00000001800d37c0     sfc_debug:sfdb_symbol_scope.obj
 0002:000047e0       ??_C@_0BM@KCIKANPA@symScope?9?$DOstack?5?$DN?$DN?5stackPtr?$AA@ 00000001800d37e0     sfc_debug:sfdb_symbol_scope.obj
 0002:00004800       ??_C@_0DK@NCABFGD@symScope?9?$DOcurrentScope?5?$CB?$DN?5NULL?5?$CG@ 00000001800d3800     sfc_debug:sfdb_symbol_scope.obj
 0002:00004840       ??_C@_0DL@LDAGNOEE@currScope?9?$DOsymbolTable?4count?5?$DM?5c@ 00000001800d3840     sfc_debug:sfdb_symbol_scope.obj
 0002:00004880       ??_C@_0BK@PHCKFGOO@numDims?5?$DM?$DN?5MAX_DIMENSIONS?$AA@ 00000001800d3880     sfc_debug:sfdb_symbol_scope.obj
 0002:000048a0       ??_C@_0EE@CLCFNFKP@Warning?3?5Can?8t?5display?5value?4?5Nu@ 00000001800d38a0     sfc_debug:sfdb_symbol_scope.obj
 0002:000048e8       ??_C@_0BB@NPDHFBEP@valuePtr?5?$CB?$DN?5NULL?$AA@ 00000001800d38e8     sfc_debug:sfdb_symbol_scope.obj
 0002:00004900       ??_C@_0O@CHHKIHJE@chart?5?$CB?$DN?5NULL?$AA@ 00000001800d3900     sfc_debug:sfdb_symbol_scope.obj
 0002:00004910       ??_C@_0CB@PFGINMAC@dataInfo?5?$CG?$CG?5data?5?$CG?$CG?5st?5?$CG?$CG?5i?5?$DO?$DN?50@ 00000001800d3910     sfc_debug:sfdb_symbol_scope.obj
 0002:00004940       ??_C@_0PC@ENOLANEC@Cannot?5change?5value?5of?5?8?$CFs?8?5at?5d@ 00000001800d3940     sfc_debug:sfdb_symbol_scope.obj
 0002:00004a34       ??_C@_02PINLEBJB@fi?$AA@   00000001800d3a34     sfc_debug:sfdb_symbol_scope.obj
 0002:00004a38       ??_C@_06FDANFAAP@sim2fi?$AA@ 00000001800d3a38     sfc_debug:sfdb_symbol_scope.obj
 0002:00004a40       ??_C@_0BF@KFJKGDMO@Unrecognized?5symbol?4?$AA@ 00000001800d3a40     sfc_debug:sfdb_symbol_scope.obj
 0002:00004a58       ??_C@_0L@INJGJGAM@?5?$CIcomplex?$CJ?$AA@ 00000001800d3a58     sfc_debug:sfdb_symbol_scope.obj
 0002:00004a68       ??_C@_0O@MHGLJPE@fixpt?5?$CI?$CFs?5?$CFs?$CJ?$AA@ 00000001800d3a68     sfc_debug:sfdb_symbol_scope.obj
 0002:00004a78       ??_C@_08FFKICJMO@?$CFs?$CL?$CF?416g?$AA@ 00000001800d3a78     sfc_debug:sfdb_symbol_scope.obj
 0002:00004a84       ??_C@_02EPPPECEI@SI?$AA@   00000001800d3a84     sfc_debug:sfdb_symbol_scope.obj
 0002:00004a88       ??_C@_09LKFGHFHF@?$CFs?$CI2?$FO?$CFd?$CJ?$CK?$AA@ 00000001800d3a88     sfc_debug:sfdb_symbol_scope.obj
 0002:00004a94       ??_C@_06KJECHFDK@?$CF?416g?$CK?$AA@ 00000001800d3a94     sfc_debug:sfdb_symbol_scope.obj
 0002:00004a9c       ??_C@_02IJPJFKDF@ml?$AA@   00000001800d3a9c     sfc_debug:sfdb_symbol_scope.obj
 0002:00004aa0       ??_C@_0O@NJOJHIHO@logical?5array?$AA@ 00000001800d3aa0     sfc_debug:sfdb_symbol_scope.obj
 0002:00004ab0       ??_C@_0L@MDMKKENH@char?5array?$AA@ 00000001800d3ab0     sfc_debug:sfdb_symbol_scope.obj
 0002:00004ac0       ??_C@_0N@DGCGENML@uint32?5array?$AA@ 00000001800d3ac0     sfc_debug:sfdb_symbol_scope.obj
 0002:00004ad0       ??_C@_0M@OFFMACLB@int32?5array?$AA@ 00000001800d3ad0     sfc_debug:sfdb_symbol_scope.obj
 0002:00004ae0       ??_C@_0N@JMJKGLLH@uint16?5array?$AA@ 00000001800d3ae0     sfc_debug:sfdb_symbol_scope.obj
 0002:00004af0       ??_C@_0M@EPOACEMN@int16?5array?$AA@ 00000001800d3af0     sfc_debug:sfdb_symbol_scope.obj
 0002:00004b00       ??_C@_0M@NOMKNEGI@uint8?5array?$AA@ 00000001800d3b00     sfc_debug:sfdb_symbol_scope.obj
 0002:00004b10       ??_C@_0L@HCHBFFAP@int8?5array?$AA@ 00000001800d3b10     sfc_debug:sfdb_symbol_scope.obj
 0002:00004b20       ??_C@_0N@KIFCNMIF@single?5array?$AA@ 00000001800d3b20     sfc_debug:sfdb_symbol_scope.obj
 0002:00004b30       ??_C@_0N@OFOFFBCM@double?5array?$AA@ 00000001800d3b30     sfc_debug:sfdb_symbol_scope.obj
 0002:00004b40       ??_C@_04BIAHPGJI@?$CFdx1?$AA@ 00000001800d3b40     sfc_debug:sfdb_symbol_scope.obj
 0002:00004b48       ??_C@_04CADIJHHA@?$CFd?9D?$AA@ 00000001800d3b48     sfc_debug:sfdb_symbol_scope.obj
 0002:00004b50       ??_C@_05JIPKJPMI@?$CFs?$CFdx?$AA@ 00000001800d3b50     sfc_debug:sfdb_symbol_scope.obj
 0002:00004b58       ??_C@_0BH@GLACFBLP@?5?$CIvariable?5sized?3?5MAX?5?$AA@ 00000001800d3b58     sfc_debug:sfdb_symbol_scope.obj
 0002:00004b70       ??_C@_07CIFAGBMG@unknown?$AA@ 00000001800d3b70     sfc_debug:sfdb_symbol_scope.obj
 0002:00004b78       ??_C@_05ENKANFLO@class?$AA@ 00000001800d3b78     sfc_debug:sfdb_symbol_scope.obj
 0002:00004b80       ??_C@_05FBJAGGIG@bytes?$AA@ 00000001800d3b80     sfc_debug:sfdb_symbol_scope.obj
 0002:00004b88       ??_C@_04MEMAJGDJ@name?$AA@ 00000001800d3b88     sfc_debug:sfdb_symbol_scope.obj
 0002:00004b90       ??_C@_0CF@NELOECCL@coverageVector?9?$DOlength?$DOcoverageI@ 00000001800d3b90     sfc_debug:sfdb_coverage.obj
 0002:00004bb8       ??_C@_0BA@CBMBNBFB@sfdb_coverage?4c?$AA@ 00000001800d3bb8     sfc_debug:sfdb_coverage.obj
 0002:00004bc8       ??_C@_0BF@FHBODGMA@transitionActionData?$AA@ 00000001800d3bc8     sfc_debug:sfdb_coverage.obj
 0002:00004be0       ??_C@_0BE@FOEHFHL@conditionActionData?$AA@ 00000001800d3be0     sfc_debug:sfdb_coverage.obj
 0002:00004bf8       ??_C@_09GAFONGPE@guardData?$AA@ 00000001800d3bf8     sfc_debug:sfdb_coverage.obj
 0002:00004c08       ??_C@_0M@FEGFDJFB@triggerData?$AA@ 00000001800d3c08     sfc_debug:sfdb_coverage.obj
 0002:00004c18       ??_C@_0BE@DDIOFNHN@endTransitionAction?$AA@ 00000001800d3c18     sfc_debug:sfdb_coverage.obj
 0002:00004c30       ??_C@_0BD@BICKLGDM@endConditionAction?$AA@ 00000001800d3c30     sfc_debug:sfdb_coverage.obj
 0002:00004c48       ??_C@_08EDILCCFF@endGuard?$AA@ 00000001800d3c48     sfc_debug:sfdb_coverage.obj
 0002:00004c58       ??_C@_0L@CAMMIEPG@endTrigger?$AA@ 00000001800d3c58     sfc_debug:sfdb_coverage.obj
 0002:00004c68       ??_C@_0BG@OPNNMDEH@startTransitionAction?$AA@ 00000001800d3c68     sfc_debug:sfdb_coverage.obj
 0002:00004c80       ??_C@_0BF@JNLJEDBC@startConditionAction?$AA@ 00000001800d3c80     sfc_debug:sfdb_coverage.obj
 0002:00004c98       ??_C@_0L@EHEBHPKB@startGuard?$AA@ 00000001800d3c98     sfc_debug:sfdb_coverage.obj
 0002:00004ca8       ??_C@_0N@EFMGIJMM@startTrigger?$AA@ 00000001800d3ca8     sfc_debug:sfdb_coverage.obj
 0002:00004cb8       ??_C@_07HIPHOHKK@endExit?$AA@ 00000001800d3cb8     sfc_debug:sfdb_coverage.obj
 0002:00004cc0       ??_C@_09KNNJHBLO@endDuring?$AA@ 00000001800d3cc0     sfc_debug:sfdb_coverage.obj
 0002:00004cd0       ??_C@_08IBNIOOHM@endEntry?$AA@ 00000001800d3cd0     sfc_debug:sfdb_coverage.obj
 0002:00004ce0       ??_C@_09GJIMAGCM@startExit?$AA@ 00000001800d3ce0     sfc_debug:sfdb_coverage.obj
 0002:00004cf0       ??_C@_0M@BHANINOG@startDuring?$AA@ 00000001800d3cf0     sfc_debug:sfdb_coverage.obj
 0002:00004d00       ??_C@_0L@IFBCLDII@startEntry?$AA@ 00000001800d3d00     sfc_debug:sfdb_coverage.obj
 0002:00004d10       ??_C@_08PPNNBHPL@exitData?$AA@ 00000001800d3d10     sfc_debug:sfdb_coverage.obj
 0002:00004d20       ??_C@_0L@LKGLEJGJ@duringData?$AA@ 00000001800d3d20     sfc_debug:sfdb_coverage.obj
 0002:00004d30       ??_C@_09MBCNPEGP@entryData?$AA@ 00000001800d3d30     sfc_debug:sfdb_coverage.obj
 0002:00004d40       ??_C@_09BJOJOOIO@instances?$AA@ 00000001800d3d40     sfc_debug:sfdb_coverage.obj
 0002:00004d50       ??_C@_0M@LCNCLDLF@transitions?$AA@ 00000001800d3d50     sfc_debug:sfdb_coverage.obj
 0002:00004d60       ??_C@_0DN@FAEHHEAM@?$CIscript?9?$DObm?4breakpoints?$CJ?4length?$DO@ 00000001800d3d60     sfc_debug:sfdb_breakpoints.obj
 0002:00004da0       ??_C@_0BD@BABBLJFB@sfdb_breakpoints?4c?$AA@ 00000001800d3da0     sfc_debug:sfdb_breakpoints.obj
 0002:00004db8       ??_C@_0P@IGHKOFID@get_script_bps?$AA@ 00000001800d3db8     sfc_debug:sfdb_breakpoints.obj
 0002:00004dc8       ??_C@_0BA@ICOJJJDD@get_all_scripts?$AA@ 00000001800d3dc8     sfc_debug:sfdb_breakpoints.obj
 0002:00004de0       ??_C@_0EI@EDDFBGGP@?$CIunsigned?5int?$CJ?$CImxGetM?$CIplhs?$FL0?$FN?$CJ?5?$CK@ 00000001800d3de0     sfc_debug:sfdb_breakpoints.obj
 0002:00004e28       ??_C@_0BE@PNADEEOB@get_eml_line_counts?$AA@ 00000001800d3e28     sfc_debug:sfdb_breakpoints.obj
 0002:00004e40       ??_C@_0CC@JPCLBDPC@mxGetNumberOfElements?$CIplhs?$FL0?$FN?$CJ?$DN?$DN@ 00000001800d3e40     sfc_debug:sfdb_breakpoints.obj
 0002:00004e68       ??_C@_0P@EHJHKHLL@get_global_bps?$AA@ 00000001800d3e68     sfc_debug:sfdb_breakpoints.obj
 0002:00004e78       ??_C@_0CE@NADCJCF@?$CIchart?9?$DObm?4chart?$FLtagType?$FN?$CJ?4lengt@ 00000001800d3e78     sfc_debug:sfdb_breakpoints.obj
 0002:00004ea0       ??_C@_0CP@JOFCMAIP@?$CIchart?9?$DObm?4state?$FLtagType?$FN?$CJ?4lengt@ 00000001800d3ea0     sfc_debug:sfdb_breakpoints.obj
 0002:00004ed0       ??_C@_0DE@GNPGALGC@?$CIchart?9?$DObm?4transition?$FLtagType?$FN?$CJ?4@ 00000001800d3ed0     sfc_debug:sfdb_breakpoints.obj
 0002:00004f08       ??_C@_0DB@PCFIPMMH@?$CImachine?9?$DObm?4event?$FLtagType?$FN?$CJ?4len@ 00000001800d3f08     sfc_debug:sfdb_breakpoints.obj
 0002:00004f40       ??_C@_0CP@FENPPAOI@?$CIchart?9?$DObm?4event?$FLtagType?$FN?$CJ?4lengt@ 00000001800d3f40     sfc_debug:sfdb_breakpoints.obj
 0002:00004f70       ??_C@_0CH@EKAIFOIL@numCols?5?$DN?$DN?5TOTAL_EVENT_BREAKPOIN@ 00000001800d3f70     sfc_debug:sfdb_breakpoints.obj
 0002:00004f98       ??_C@_0CA@BECONEOF@numRows?5?$DN?$DN?5machine?9?$DOevent?4count?$AA@ 00000001800d3f98     sfc_debug:sfdb_breakpoints.obj
 0002:00004fb8       ??_C@_07HCEBIAFG@get_bps?$AA@ 00000001800d3fb8     sfc_debug:sfdb_breakpoints.obj
 0002:00004fc0       ??_C@_0BI@LFGGAIIJ@?$CIbps?$CJ?4length?$DObreakPoint?$AA@ 00000001800d3fc0     sfc_debug:sfdb_breakpoints.obj
 0002:00004fd8       ??_C@_0N@CNOINHPD@numCols?5?$DN?$DN?51?$AA@ 00000001800d3fd8     sfc_debug:sfdb_breakpoints.obj
 0002:00004fe8       ??_C@_0M@NNPJEEAE@get_eml_bps?$AA@ 00000001800d3fe8     sfc_debug:sfdb_breakpoints.obj
 0002:00004ff8       ??_C@_0BO@CDPAPHEM@numRows?5?$DN?$DN?5chart?9?$DOevent?4count?$AA@ 00000001800d3ff8     sfc_debug:sfdb_breakpoints.obj
 0002:00005018       ??_C@_0CM@FFJFHNEO@numCols?5?$DN?$DN?5TOTAL_TRANSITION_BREA@ 00000001800d4018     sfc_debug:sfdb_breakpoints.obj
 0002:00005048       ??_C@_0CD@IOIMPEBN@numRows?5?$DN?$DN?5chart?9?$DOtransition?4cou@ 00000001800d4048     sfc_debug:sfdb_breakpoints.obj
 0002:00005070       ??_C@_0CH@JEIBGOOJ@numCols?5?$DN?$DN?5TOTAL_STATE_BREAKPOIN@ 00000001800d4070     sfc_debug:sfdb_breakpoints.obj
 0002:00005098       ??_C@_0BO@BIKNFPLB@numRows?5?$DN?$DN?5chart?9?$DOstate?4count?$AA@ 00000001800d4098     sfc_debug:sfdb_breakpoints.obj
 0002:000050b8       ??_C@_0CH@BNLENKGD@numCols?5?$DN?$DN?5TOTAL_CHART_BREAKPOIN@ 00000001800d40b8     sfc_debug:sfdb_breakpoints.obj
 0002:000050e0       ??_C@_0N@MEFFBAFI@numRows?5?$DN?$DN?51?$AA@ 00000001800d40e0     sfc_debug:sfdb_breakpoints.obj
 0002:000050f0       ??_C@_0BJ@BLHBHILO@sfdb_state_consistency?4c?$AA@ 00000001800d40f0     sfc_debug:sfdb_state_consistency.obj
 0002:00005110       ??_C@_09LHFAMEGK@errorType?$AA@ 00000001800d4110     sfc_debug:sfdb_state_consistency.obj
 0002:00005120       ??_C@_08DLAIKNBK@objectId?$AA@ 00000001800d4120     sfc_debug:sfdb_state_consistency.obj
 0002:00005130       ??_C@_0L@GODCDFEF@objectType?$AA@ 00000001800d4130     sfc_debug:sfdb_state_consistency.obj
 0002:00005140       ??_C@_0L@CCGENCKP@errorStack?$AA@ 00000001800d4140     sfc_debug:sfdb_state_consistency.obj
 0002:00005150       ??_C@_0O@PPHMCEKO@cycleDetected?$AA@ 00000001800d4150     sfc_debug:sfdb_call_stack.obj
 0002:00005160       ??_C@_0N@MGKMJLEK@cycleStarted?$AA@ 00000001800d4160     sfc_debug:sfdb_call_stack.obj
 0002:00005170       ??_C@_07BNCILGOA@tagType?$AA@ 00000001800d4170     sfc_debug:sfdb_call_stack.obj
 0002:00005178       ??_C@_0L@POKIGEMP@eventScope?$AA@ 00000001800d4178     sfc_debug:sfdb_call_stack.obj
 0002:00005188       ??_C@_0M@LKJJPLIC@traceVector?$AA@ 00000001800d4188     sfc_debug:sfdb_call_stack.obj
 0002:000051a0       ??_C@_0EC@MGCLADPL@?$CIinstance?9?$DOcycleDetection?4transi@ 00000001800d41a0     sfc_debug:sfdb_cycle_detection.obj
 0002:000051e8       ??_C@_0BH@ELCAAKDD@sfdb_cycle_detection?4c?$AA@ 00000001800d41e8     sfc_debug:sfdb_cycle_detection.obj
 0002:00005200       ??_C@_0O@PICIAFIK@newNode?$CB?$DNNULL?$AA@ 00000001800d4200     sfc_debug:sfdb_cycle_detection.obj
 0002:00005210       _pRawDllMain               00000001800d4210     MSVCRT:crtdll.obj
 0002:00005210       _pDefaultRawDllMain        00000001800d4210     MSVCRT:crtdll.obj
 0002:00005228       ?ProcessDetach@NativeDll@<CrtImplementationDetails>@@0IB 00000001800d4228     MSVCRT:tncleanup.obj
 0002:0000522c       ?ProcessAttach@NativeDll@<CrtImplementationDetails>@@0IB 00000001800d422c     MSVCRT:tncleanup.obj
 0002:00005230       ?ThreadAttach@NativeDll@<CrtImplementationDetails>@@0IB 00000001800d4230     MSVCRT:tncleanup.obj
 0002:00005234       ?ThreadDetach@NativeDll@<CrtImplementationDetails>@@0IB 00000001800d4234     MSVCRT:tncleanup.obj
 0002:00005238       ?ProcessVerifier@NativeDll@<CrtImplementationDetails>@@0IB 00000001800d4238     MSVCRT:tncleanup.obj
 0002:00005240       __rtc_iaa                  00000001800d4240     MSVCRT:_initsect_.obj
 0002:00005248       __rtc_izz                  00000001800d4248     MSVCRT:_initsect_.obj
 0002:00005250       __rtc_taa                  00000001800d4250     MSVCRT:_initsect_.obj
 0002:00005258       __rtc_tzz                  00000001800d4258     MSVCRT:_initsect_.obj
 0002:0000c164       __IMPORT_DESCRIPTOR_libmx  00000001800db164     libmx:libmx.dll
 0002:0000c178       __IMPORT_DESCRIPTOR_libmex 00000001800db178     libmex:libmex.dll
 0002:0000c18c       __IMPORT_DESCRIPTOR_libfixedpoint 00000001800db18c     libfixedpoint:libfixedpoint.dll
 0002:0000c1a0       __IMPORT_DESCRIPTOR_libut  00000001800db1a0     libut:libut.dll
 0002:0000c1b4       __IMPORT_DESCRIPTOR_libmwmathutil 00000001800db1b4     libmwmathutil:libmwmathutil.dll
 0002:0000c1c8       __IMPORT_DESCRIPTOR_libemlrt 00000001800db1c8     libemlrt:libemlrt.dll
 0002:0000c1dc       __IMPORT_DESCRIPTOR_MSVCR100 00000001800db1dc     MSVCRT:MSVCR100.dll
 0002:0000c1f0       __IMPORT_DESCRIPTOR_KERNEL32 00000001800db1f0     kernel32:KERNEL32.dll
 0002:0000c204       __NULL_IMPORT_DESCRIPTOR   00000001800db204     libmx:libmx.dll
 0003:00019140       DYNAMIC_DIMENSION          00000001800f6140     hyd_hyb_2_opt_cont_test_new_sfun_registry.obj
 0003:00019e00       emlrtContextGlobal         00000001800f6e00     sfc_mex:sfc_mex.obj
 0003:00019ea0       _fltused                   00000001800f6ea0     MSVCRT:dllsupp.obj
 0003:00019ea8       __security_cookie          00000001800f6ea8     MSVCRT:gs_cookie.obj
 0003:00019eb0       __security_cookie_complement 00000001800f6eb0     MSVCRT:gs_cookie.obj
 0003:00019ec0       __native_dllmain_reason    00000001800f6ec0     MSVCRT:natstart.obj
 0003:00019ec4       __native_vcclrit_reason    00000001800f6ec4     MSVCRT:natstart.obj
 0003:0001b3c0       sSFDebuggerInitialized     00000001800f83c0     sfc_debug:sfcdebug.obj
 0003:0001c470       ?__type_info_root_node@@3U__type_info_node@@A 00000001800f9470     MSVCRT:tncleanup.obj
 0003:0001c480       _sfTime_                   00000001800f9480     <common>
 0003:0001c488       _hyd_hyb_2_opt_cont_test_newMachineNumber_ 00000001800f9488     <common>
 0003:0001c4a0       gSfComplexDataTypeOffsets  00000001800f94a0     <common>
 0003:0001c500       gSfDataTypeOffsets         00000001800f9500     <common>
 0003:0001c548       gMaskBits                  00000001800f9548     <common>
 0003:0001c550       __native_startup_state     00000001800f9550     <common>
 0003:0001c558       __native_startup_lock      00000001800f9558     <common>
 0003:0001c560       __onexitend                00000001800f9560     <common>
 0003:0001c568       __onexitbegin              00000001800f9568     <common>
 0003:0001c570       __dyn_tls_init_callback    00000001800f9570     <common>

 entry point at        0001:000cd8e4

 Static symbols

 0001:000007c0       get_sim_state_c1_hyd_hyb_2_opt_cont_test_new 00000001800017c0 f   c1_hyd_hyb_2_opt_cont_test_new.obj
 0001:00000b20       sf_get_sim_state_info_c1_hyd_hyb_2_opt_cont_test_new 0000000180001b20 f   c1_hyd_hyb_2_opt_cont_test_new.obj
 0001:00000d00       set_sim_state_c1_hyd_hyb_2_opt_cont_test_new 0000000180001d00 f   c1_hyd_hyb_2_opt_cont_test_new.obj
 0001:00000ea0       c1_update_debugger_state_c1_hyd_hyb_2_opt_cont_test_new 0000000180001ea0 f   c1_hyd_hyb_2_opt_cont_test_new.obj
 0001:00001180       c1_b_emlrt_marshallIn      0000000180002180 f   c1_hyd_hyb_2_opt_cont_test_new.obj
 0001:000011e0       c1_c_emlrt_marshallIn      00000001800021e0 f   c1_hyd_hyb_2_opt_cont_test_new.obj
 0001:00001270       c1_d_emlrt_marshallIn      0000000180002270 f   c1_hyd_hyb_2_opt_cont_test_new.obj
 0001:000012e0       c1_e_emlrt_marshallIn      00000001800022e0 f   c1_hyd_hyb_2_opt_cont_test_new.obj
 0001:00001370       c1_f_emlrt_marshallIn      0000000180002370 f   c1_hyd_hyb_2_opt_cont_test_new.obj
 0001:000013d0       c1_g_emlrt_marshallIn      00000001800023d0 f   c1_hyd_hyb_2_opt_cont_test_new.obj
 0001:00001460       c1_h_emlrt_marshallIn      0000000180002460 f   c1_hyd_hyb_2_opt_cont_test_new.obj
 0001:000014e0       c1_i_emlrt_marshallIn      00000001800024e0 f   c1_hyd_hyb_2_opt_cont_test_new.obj
 0001:000015b0       mdlProcessParameters_c1_hyd_hyb_2_opt_cont_test_new 00000001800025b0 f   c1_hyd_hyb_2_opt_cont_test_new.obj
 0001:00001670       initialize_params_c1_hyd_hyb_2_opt_cont_test_new 0000000180002670 f   c1_hyd_hyb_2_opt_cont_test_new.obj
 0001:00001680       mdlSetWorkWidths_c1_hyd_hyb_2_opt_cont_test_new 0000000180002680 f   c1_hyd_hyb_2_opt_cont_test_new.obj
 0001:00001980       mdlStart_c1_hyd_hyb_2_opt_cont_test_new 0000000180002980 f   c1_hyd_hyb_2_opt_cont_test_new.obj
 0001:00001b90       init_dsm_address_info      0000000180002b90 f   c1_hyd_hyb_2_opt_cont_test_new.obj
 0001:00001ba0       chart_debug_initialization 0000000180002ba0 f   c1_hyd_hyb_2_opt_cont_test_new.obj
 0001:00002640       init_script_number_translation 0000000180003640 f   c1_hyd_hyb_2_opt_cont_test_new.obj
 0001:00002650       c1_c_sf_marshallOut        0000000180003650 f   c1_hyd_hyb_2_opt_cont_test_new.obj
 0001:00002700       c1_c_sf_marshallIn         0000000180003700 f   c1_hyd_hyb_2_opt_cont_test_new.obj
 0001:000027a0       sf_opaque_initialize_c1_hyd_hyb_2_opt_cont_test_new 00000001800037a0 f   c1_hyd_hyb_2_opt_cont_test_new.obj
 0001:000027e0       initialize_c1_hyd_hyb_2_opt_cont_test_new 00000001800037e0 f   c1_hyd_hyb_2_opt_cont_test_new.obj
 0001:000028e0       sf_opaque_enable_c1_hyd_hyb_2_opt_cont_test_new 00000001800038e0 f   c1_hyd_hyb_2_opt_cont_test_new.obj
 0001:00002900       enable_c1_hyd_hyb_2_opt_cont_test_new 0000000180003900 f   c1_hyd_hyb_2_opt_cont_test_new.obj
 0001:00002980       sf_opaque_disable_c1_hyd_hyb_2_opt_cont_test_new 0000000180003980 f   c1_hyd_hyb_2_opt_cont_test_new.obj
 0001:000029a0       disable_c1_hyd_hyb_2_opt_cont_test_new 00000001800039a0 f   c1_hyd_hyb_2_opt_cont_test_new.obj
 0001:00002a70       sf_opaque_gateway_c1_hyd_hyb_2_opt_cont_test_new 0000000180003a70 f   c1_hyd_hyb_2_opt_cont_test_new.obj
 0001:00002a90       sf_c1_hyd_hyb_2_opt_cont_test_new 0000000180003a90 f   c1_hyd_hyb_2_opt_cont_test_new.obj
 0001:00003cd0       c1_set_sim_state_side_effects_c1_hyd_hyb_2_opt_cont_test_new 0000000180004cd0 f   c1_hyd_hyb_2_opt_cont_test_new.obj
 0001:00003d80       sf_opaque_get_sim_state_c1_hyd_hyb_2_opt_cont_test_new 0000000180004d80 f   c1_hyd_hyb_2_opt_cont_test_new.obj
 0001:00003da0       sf_opaque_set_sim_state_c1_hyd_hyb_2_opt_cont_test_new 0000000180004da0 f   c1_hyd_hyb_2_opt_cont_test_new.obj
 0001:00003dd0       sf_opaque_terminate_c1_hyd_hyb_2_opt_cont_test_new 0000000180004dd0 f   c1_hyd_hyb_2_opt_cont_test_new.obj
 0001:00003e50       finalize_c1_hyd_hyb_2_opt_cont_test_new 0000000180004e50 f   c1_hyd_hyb_2_opt_cont_test_new.obj
 0001:00003e80       sf_opaque_init_subchart_simstructs 0000000180004e80 f   c1_hyd_hyb_2_opt_cont_test_new.obj
 0001:00003ea0       initSimStructsc1_hyd_hyb_2_opt_cont_test_new 0000000180004ea0 f   c1_hyd_hyb_2_opt_cont_test_new.obj
 0001:00003eb0       mdlRTW_c1_hyd_hyb_2_opt_cont_test_new 0000000180004eb0 f   c1_hyd_hyb_2_opt_cont_test_new.obj
 0001:000052d0       get_sim_state_c2_hyd_hyb_2_opt_cont_test_new 00000001800062d0 f   c2_hyd_hyb_2_opt_cont_test_new.obj
 0001:00005650       sf_get_sim_state_info_c2_hyd_hyb_2_opt_cont_test_new 0000000180006650 f   c2_hyd_hyb_2_opt_cont_test_new.obj
 0001:00005830       set_sim_state_c2_hyd_hyb_2_opt_cont_test_new 0000000180006830 f   c2_hyd_hyb_2_opt_cont_test_new.obj
 0001:000059f0       c2_update_debugger_state_c2_hyd_hyb_2_opt_cont_test_new 00000001800069f0 f   c2_hyd_hyb_2_opt_cont_test_new.obj
 0001:00005fd0       c2_b_emlrt_marshallIn      0000000180006fd0 f   c2_hyd_hyb_2_opt_cont_test_new.obj
 0001:00006030       c2_c_emlrt_marshallIn      0000000180007030 f   c2_hyd_hyb_2_opt_cont_test_new.obj
 0001:000060c0       c2_d_emlrt_marshallIn      00000001800070c0 f   c2_hyd_hyb_2_opt_cont_test_new.obj
 0001:00006130       c2_e_emlrt_marshallIn      0000000180007130 f   c2_hyd_hyb_2_opt_cont_test_new.obj
 0001:000061c0       c2_f_emlrt_marshallIn      00000001800071c0 f   c2_hyd_hyb_2_opt_cont_test_new.obj
 0001:00006220       c2_g_emlrt_marshallIn      0000000180007220 f   c2_hyd_hyb_2_opt_cont_test_new.obj
 0001:000062b0       c2_h_emlrt_marshallIn      00000001800072b0 f   c2_hyd_hyb_2_opt_cont_test_new.obj
 0001:00006330       c2_i_emlrt_marshallIn      0000000180007330 f   c2_hyd_hyb_2_opt_cont_test_new.obj
 0001:00006400       mdlProcessParameters_c2_hyd_hyb_2_opt_cont_test_new 0000000180007400 f   c2_hyd_hyb_2_opt_cont_test_new.obj
 0001:000064c0       initialize_params_c2_hyd_hyb_2_opt_cont_test_new 00000001800074c0 f   c2_hyd_hyb_2_opt_cont_test_new.obj
 0001:000069b0       mdlSetWorkWidths_c2_hyd_hyb_2_opt_cont_test_new 00000001800079b0 f   c2_hyd_hyb_2_opt_cont_test_new.obj
 0001:00007340       mdlStart_c2_hyd_hyb_2_opt_cont_test_new 0000000180008340 f   c2_hyd_hyb_2_opt_cont_test_new.obj
 0001:00007550       init_dsm_address_info      0000000180008550 f   c2_hyd_hyb_2_opt_cont_test_new.obj
 0001:00007560       chart_debug_initialization 0000000180008560 f   c2_hyd_hyb_2_opt_cont_test_new.obj
 0001:00009360       init_script_number_translation 000000018000a360 f   c2_hyd_hyb_2_opt_cont_test_new.obj
 0001:00009370       c2_c_sf_marshallOut        000000018000a370 f   c2_hyd_hyb_2_opt_cont_test_new.obj
 0001:00009420       c2_c_sf_marshallIn         000000018000a420 f   c2_hyd_hyb_2_opt_cont_test_new.obj
 0001:000094c0       sf_opaque_initialize_c2_hyd_hyb_2_opt_cont_test_new 000000018000a4c0 f   c2_hyd_hyb_2_opt_cont_test_new.obj
 0001:00009500       initialize_c2_hyd_hyb_2_opt_cont_test_new 000000018000a500 f   c2_hyd_hyb_2_opt_cont_test_new.obj
 0001:00009650       sf_opaque_enable_c2_hyd_hyb_2_opt_cont_test_new 000000018000a650 f   c2_hyd_hyb_2_opt_cont_test_new.obj
 0001:00009670       enable_c2_hyd_hyb_2_opt_cont_test_new 000000018000a670 f   c2_hyd_hyb_2_opt_cont_test_new.obj
 0001:000096a0       sf_opaque_disable_c2_hyd_hyb_2_opt_cont_test_new 000000018000a6a0 f   c2_hyd_hyb_2_opt_cont_test_new.obj
 0001:000096c0       disable_c2_hyd_hyb_2_opt_cont_test_new 000000018000a6c0 f   c2_hyd_hyb_2_opt_cont_test_new.obj
 0001:000096f0       sf_opaque_gateway_c2_hyd_hyb_2_opt_cont_test_new 000000018000a6f0 f   c2_hyd_hyb_2_opt_cont_test_new.obj
 0001:00009710       sf_c2_hyd_hyb_2_opt_cont_test_new 000000018000a710 f   c2_hyd_hyb_2_opt_cont_test_new.obj
 0001:00009b40       c2_set_sim_state_side_effects_c2_hyd_hyb_2_opt_cont_test_new 000000018000ab40 f   c2_hyd_hyb_2_opt_cont_test_new.obj
 0001:00009d40       c2_chartstep_c2_hyd_hyb_2_opt_cont_test_new 000000018000ad40 f   c2_hyd_hyb_2_opt_cont_test_new.obj
 0001:0000d7e0       sf_opaque_get_sim_state_c2_hyd_hyb_2_opt_cont_test_new 000000018000e7e0 f   c2_hyd_hyb_2_opt_cont_test_new.obj
 0001:0000d800       sf_opaque_set_sim_state_c2_hyd_hyb_2_opt_cont_test_new 000000018000e800 f   c2_hyd_hyb_2_opt_cont_test_new.obj
 0001:0000d830       sf_opaque_terminate_c2_hyd_hyb_2_opt_cont_test_new 000000018000e830 f   c2_hyd_hyb_2_opt_cont_test_new.obj
 0001:0000d8b0       finalize_c2_hyd_hyb_2_opt_cont_test_new 000000018000e8b0 f   c2_hyd_hyb_2_opt_cont_test_new.obj
 0001:0000d8e0       sf_opaque_init_subchart_simstructs 000000018000e8e0 f   c2_hyd_hyb_2_opt_cont_test_new.obj
 0001:0000d900       initSimStructsc2_hyd_hyb_2_opt_cont_test_new 000000018000e900 f   c2_hyd_hyb_2_opt_cont_test_new.obj
 0001:0000d910       mdlRTW_c2_hyd_hyb_2_opt_cont_test_new 000000018000e910 f   c2_hyd_hyb_2_opt_cont_test_new.obj
 0001:0000e130       get_sim_state_c3_hyd_hyb_2_opt_cont_test_new 000000018000f130 f   c3_hyd_hyb_2_opt_cont_test_new.obj
 0001:0000e2c0       sf_get_sim_state_info_c3_hyd_hyb_2_opt_cont_test_new 000000018000f2c0 f   c3_hyd_hyb_2_opt_cont_test_new.obj
 0001:0000e4a0       set_sim_state_c3_hyd_hyb_2_opt_cont_test_new 000000018000f4a0 f   c3_hyd_hyb_2_opt_cont_test_new.obj
 0001:0000e570       c3_update_debugger_state_c3_hyd_hyb_2_opt_cont_test_new 000000018000f570 f   c3_hyd_hyb_2_opt_cont_test_new.obj
 0001:0000e580       c3_emlrt_marshallIn        000000018000f580 f   c3_hyd_hyb_2_opt_cont_test_new.obj
 0001:0000e5f0       c3_b_emlrt_marshallIn      000000018000f5f0 f   c3_hyd_hyb_2_opt_cont_test_new.obj
 0001:0000e680       c3_d_emlrt_marshallIn      000000018000f680 f   c3_hyd_hyb_2_opt_cont_test_new.obj
 0001:0000e6e0       c3_e_emlrt_marshallIn      000000018000f6e0 f   c3_hyd_hyb_2_opt_cont_test_new.obj
 0001:0000e7e0       mdlProcessParameters_c3_hyd_hyb_2_opt_cont_test_new 000000018000f7e0 f   c3_hyd_hyb_2_opt_cont_test_new.obj
 0001:0000e8a0       initialize_params_c3_hyd_hyb_2_opt_cont_test_new 000000018000f8a0 f   c3_hyd_hyb_2_opt_cont_test_new.obj
 0001:0000e8b0       mdlSetWorkWidths_c3_hyd_hyb_2_opt_cont_test_new 000000018000f8b0 f   c3_hyd_hyb_2_opt_cont_test_new.obj
 0001:0000ec30       mdlStart_c3_hyd_hyb_2_opt_cont_test_new 000000018000fc30 f   c3_hyd_hyb_2_opt_cont_test_new.obj
 0001:0000ee30       init_dsm_address_info      000000018000fe30 f   c3_hyd_hyb_2_opt_cont_test_new.obj
 0001:0000ee40       chart_debug_initialization 000000018000fe40 f   c3_hyd_hyb_2_opt_cont_test_new.obj
 0001:0000f7b0       init_script_number_translation 00000001800107b0 f   c3_hyd_hyb_2_opt_cont_test_new.obj
 0001:0000f7c0       c3_sf_marshallOut          00000001800107c0 f   c3_hyd_hyb_2_opt_cont_test_new.obj
 0001:0000f870       c3_sf_marshallIn           0000000180010870 f   c3_hyd_hyb_2_opt_cont_test_new.obj
 0001:0000f910       c3_b_sf_marshallOut        0000000180010910 f   c3_hyd_hyb_2_opt_cont_test_new.obj
 0001:0000fb20       sf_opaque_initialize_c3_hyd_hyb_2_opt_cont_test_new 0000000180010b20 f   c3_hyd_hyb_2_opt_cont_test_new.obj
 0001:0000fb60       initialize_c3_hyd_hyb_2_opt_cont_test_new 0000000180010b60 f   c3_hyd_hyb_2_opt_cont_test_new.obj
 0001:0000fba0       sf_opaque_enable_c3_hyd_hyb_2_opt_cont_test_new 0000000180010ba0 f   c3_hyd_hyb_2_opt_cont_test_new.obj
 0001:0000fbc0       enable_c3_hyd_hyb_2_opt_cont_test_new 0000000180010bc0 f   c3_hyd_hyb_2_opt_cont_test_new.obj
 0001:0000fbf0       sf_opaque_disable_c3_hyd_hyb_2_opt_cont_test_new 0000000180010bf0 f   c3_hyd_hyb_2_opt_cont_test_new.obj
 0001:0000fc10       disable_c3_hyd_hyb_2_opt_cont_test_new 0000000180010c10 f   c3_hyd_hyb_2_opt_cont_test_new.obj
 0001:0000fc40       sf_opaque_gateway_c3_hyd_hyb_2_opt_cont_test_new 0000000180010c40 f   c3_hyd_hyb_2_opt_cont_test_new.obj
 0001:0000fc60       sf_c3_hyd_hyb_2_opt_cont_test_new 0000000180010c60 f   c3_hyd_hyb_2_opt_cont_test_new.obj
 0001:00010850       sf_opaque_get_sim_state_c3_hyd_hyb_2_opt_cont_test_new 0000000180011850 f   c3_hyd_hyb_2_opt_cont_test_new.obj
 0001:00010870       sf_opaque_set_sim_state_c3_hyd_hyb_2_opt_cont_test_new 0000000180011870 f   c3_hyd_hyb_2_opt_cont_test_new.obj
 0001:000108a0       sf_opaque_terminate_c3_hyd_hyb_2_opt_cont_test_new 00000001800118a0 f   c3_hyd_hyb_2_opt_cont_test_new.obj
 0001:00010920       finalize_c3_hyd_hyb_2_opt_cont_test_new 0000000180011920 f   c3_hyd_hyb_2_opt_cont_test_new.obj
 0001:00010930       sf_opaque_init_subchart_simstructs 0000000180011930 f   c3_hyd_hyb_2_opt_cont_test_new.obj
 0001:00010950       initSimStructsc3_hyd_hyb_2_opt_cont_test_new 0000000180011950 f   c3_hyd_hyb_2_opt_cont_test_new.obj
 0001:00010960       mdlRTW_c3_hyd_hyb_2_opt_cont_test_new 0000000180011960 f   c3_hyd_hyb_2_opt_cont_test_new.obj
 0001:00011180       get_sim_state_c4_hyd_hyb_2_opt_cont_test_new 0000000180012180 f   c4_hyd_hyb_2_opt_cont_test_new.obj
 0001:000113a0       sf_get_sim_state_info_c4_hyd_hyb_2_opt_cont_test_new 00000001800123a0 f   c4_hyd_hyb_2_opt_cont_test_new.obj
 0001:00011580       set_sim_state_c4_hyd_hyb_2_opt_cont_test_new 0000000180012580 f   c4_hyd_hyb_2_opt_cont_test_new.obj
 0001:000116c0       c4_update_debugger_state_c4_hyd_hyb_2_opt_cont_test_new 00000001800126c0 f   c4_hyd_hyb_2_opt_cont_test_new.obj
 0001:000119a0       c4_b_emlrt_marshallIn      00000001800129a0 f   c4_hyd_hyb_2_opt_cont_test_new.obj
 0001:00011a00       c4_c_emlrt_marshallIn      0000000180012a00 f   c4_hyd_hyb_2_opt_cont_test_new.obj
 0001:00011a90       c4_d_emlrt_marshallIn      0000000180012a90 f   c4_hyd_hyb_2_opt_cont_test_new.obj
 0001:00011b00       c4_e_emlrt_marshallIn      0000000180012b00 f   c4_hyd_hyb_2_opt_cont_test_new.obj
 0001:00011b90       c4_f_emlrt_marshallIn      0000000180012b90 f   c4_hyd_hyb_2_opt_cont_test_new.obj
 0001:00011c10       c4_g_emlrt_marshallIn      0000000180012c10 f   c4_hyd_hyb_2_opt_cont_test_new.obj
 0001:00011ce0       mdlProcessParameters_c4_hyd_hyb_2_opt_cont_test_new 0000000180012ce0 f   c4_hyd_hyb_2_opt_cont_test_new.obj
 0001:00011da0       initialize_params_c4_hyd_hyb_2_opt_cont_test_new 0000000180012da0 f   c4_hyd_hyb_2_opt_cont_test_new.obj
 0001:00011db0       mdlSetWorkWidths_c4_hyd_hyb_2_opt_cont_test_new 0000000180012db0 f   c4_hyd_hyb_2_opt_cont_test_new.obj
 0001:00012130       mdlStart_c4_hyd_hyb_2_opt_cont_test_new 0000000180013130 f   c4_hyd_hyb_2_opt_cont_test_new.obj
 0001:00012340       init_dsm_address_info      0000000180013340 f   c4_hyd_hyb_2_opt_cont_test_new.obj
 0001:00012350       chart_debug_initialization 0000000180013350 f   c4_hyd_hyb_2_opt_cont_test_new.obj
 0001:00012de0       init_script_number_translation 0000000180013de0 f   c4_hyd_hyb_2_opt_cont_test_new.obj
 0001:00012df0       c4_c_sf_marshallOut        0000000180013df0 f   c4_hyd_hyb_2_opt_cont_test_new.obj
 0001:00012ea0       c4_c_sf_marshallIn         0000000180013ea0 f   c4_hyd_hyb_2_opt_cont_test_new.obj
 0001:00012f40       sf_opaque_initialize_c4_hyd_hyb_2_opt_cont_test_new 0000000180013f40 f   c4_hyd_hyb_2_opt_cont_test_new.obj
 0001:00012f80       initialize_c4_hyd_hyb_2_opt_cont_test_new 0000000180013f80 f   c4_hyd_hyb_2_opt_cont_test_new.obj
 0001:00013050       sf_opaque_enable_c4_hyd_hyb_2_opt_cont_test_new 0000000180014050 f   c4_hyd_hyb_2_opt_cont_test_new.obj
 0001:00013070       enable_c4_hyd_hyb_2_opt_cont_test_new 0000000180014070 f   c4_hyd_hyb_2_opt_cont_test_new.obj
 0001:000130a0       sf_opaque_disable_c4_hyd_hyb_2_opt_cont_test_new 00000001800140a0 f   c4_hyd_hyb_2_opt_cont_test_new.obj
 0001:000130c0       disable_c4_hyd_hyb_2_opt_cont_test_new 00000001800140c0 f   c4_hyd_hyb_2_opt_cont_test_new.obj
 0001:000130f0       sf_opaque_gateway_c4_hyd_hyb_2_opt_cont_test_new 00000001800140f0 f   c4_hyd_hyb_2_opt_cont_test_new.obj
 0001:00013110       sf_c4_hyd_hyb_2_opt_cont_test_new 0000000180014110 f   c4_hyd_hyb_2_opt_cont_test_new.obj
 0001:00014090       c4_set_sim_state_side_effects_c4_hyd_hyb_2_opt_cont_test_new 0000000180015090 f   c4_hyd_hyb_2_opt_cont_test_new.obj
 0001:00014100       sf_opaque_get_sim_state_c4_hyd_hyb_2_opt_cont_test_new 0000000180015100 f   c4_hyd_hyb_2_opt_cont_test_new.obj
 0001:00014120       sf_opaque_set_sim_state_c4_hyd_hyb_2_opt_cont_test_new 0000000180015120 f   c4_hyd_hyb_2_opt_cont_test_new.obj
 0001:00014150       sf_opaque_terminate_c4_hyd_hyb_2_opt_cont_test_new 0000000180015150 f   c4_hyd_hyb_2_opt_cont_test_new.obj
 0001:000141d0       finalize_c4_hyd_hyb_2_opt_cont_test_new 00000001800151d0 f   c4_hyd_hyb_2_opt_cont_test_new.obj
 0001:00014200       sf_opaque_init_subchart_simstructs 0000000180015200 f   c4_hyd_hyb_2_opt_cont_test_new.obj
 0001:00014220       initSimStructsc4_hyd_hyb_2_opt_cont_test_new 0000000180015220 f   c4_hyd_hyb_2_opt_cont_test_new.obj
 0001:00014230       mdlRTW_c4_hyd_hyb_2_opt_cont_test_new 0000000180015230 f   c4_hyd_hyb_2_opt_cont_test_new.obj
 0001:00014a50       get_sim_state_c5_hyd_hyb_2_opt_cont_test_new 0000000180015a50 f   c5_hyd_hyb_2_opt_cont_test_new.obj
 0001:00014be0       sf_get_sim_state_info_c5_hyd_hyb_2_opt_cont_test_new 0000000180015be0 f   c5_hyd_hyb_2_opt_cont_test_new.obj
 0001:00014dc0       set_sim_state_c5_hyd_hyb_2_opt_cont_test_new 0000000180015dc0 f   c5_hyd_hyb_2_opt_cont_test_new.obj
 0001:00014e90       c5_update_debugger_state_c5_hyd_hyb_2_opt_cont_test_new 0000000180015e90 f   c5_hyd_hyb_2_opt_cont_test_new.obj
 0001:00014ea0       c5_emlrt_marshallIn        0000000180015ea0 f   c5_hyd_hyb_2_opt_cont_test_new.obj
 0001:00014f10       c5_b_emlrt_marshallIn      0000000180015f10 f   c5_hyd_hyb_2_opt_cont_test_new.obj
 0001:00014fa0       c5_d_emlrt_marshallIn      0000000180015fa0 f   c5_hyd_hyb_2_opt_cont_test_new.obj
 0001:00015000       c5_e_emlrt_marshallIn      0000000180016000 f   c5_hyd_hyb_2_opt_cont_test_new.obj
 0001:00015100       mdlProcessParameters_c5_hyd_hyb_2_opt_cont_test_new 0000000180016100 f   c5_hyd_hyb_2_opt_cont_test_new.obj
 0001:000151c0       initialize_params_c5_hyd_hyb_2_opt_cont_test_new 00000001800161c0 f   c5_hyd_hyb_2_opt_cont_test_new.obj
 0001:000151d0       mdlSetWorkWidths_c5_hyd_hyb_2_opt_cont_test_new 00000001800161d0 f   c5_hyd_hyb_2_opt_cont_test_new.obj
 0001:00015550       mdlStart_c5_hyd_hyb_2_opt_cont_test_new 0000000180016550 f   c5_hyd_hyb_2_opt_cont_test_new.obj
 0001:00015750       init_dsm_address_info      0000000180016750 f   c5_hyd_hyb_2_opt_cont_test_new.obj
 0001:00015760       chart_debug_initialization 0000000180016760 f   c5_hyd_hyb_2_opt_cont_test_new.obj
 0001:000160d0       init_script_number_translation 00000001800170d0 f   c5_hyd_hyb_2_opt_cont_test_new.obj
 0001:000160e0       c5_sf_marshallOut          00000001800170e0 f   c5_hyd_hyb_2_opt_cont_test_new.obj
 0001:00016190       c5_sf_marshallIn           0000000180017190 f   c5_hyd_hyb_2_opt_cont_test_new.obj
 0001:00016230       c5_b_sf_marshallOut        0000000180017230 f   c5_hyd_hyb_2_opt_cont_test_new.obj
 0001:00016470       sf_opaque_initialize_c5_hyd_hyb_2_opt_cont_test_new 0000000180017470 f   c5_hyd_hyb_2_opt_cont_test_new.obj
 0001:000164b0       initialize_c5_hyd_hyb_2_opt_cont_test_new 00000001800174b0 f   c5_hyd_hyb_2_opt_cont_test_new.obj
 0001:000164f0       sf_opaque_enable_c5_hyd_hyb_2_opt_cont_test_new 00000001800174f0 f   c5_hyd_hyb_2_opt_cont_test_new.obj
 0001:00016510       enable_c5_hyd_hyb_2_opt_cont_test_new 0000000180017510 f   c5_hyd_hyb_2_opt_cont_test_new.obj
 0001:00016540       sf_opaque_disable_c5_hyd_hyb_2_opt_cont_test_new 0000000180017540 f   c5_hyd_hyb_2_opt_cont_test_new.obj
 0001:00016560       disable_c5_hyd_hyb_2_opt_cont_test_new 0000000180017560 f   c5_hyd_hyb_2_opt_cont_test_new.obj
 0001:00016590       sf_opaque_gateway_c5_hyd_hyb_2_opt_cont_test_new 0000000180017590 f   c5_hyd_hyb_2_opt_cont_test_new.obj
 0001:000165b0       sf_c5_hyd_hyb_2_opt_cont_test_new 00000001800175b0 f   c5_hyd_hyb_2_opt_cont_test_new.obj
 0001:000171a0       sf_opaque_get_sim_state_c5_hyd_hyb_2_opt_cont_test_new 00000001800181a0 f   c5_hyd_hyb_2_opt_cont_test_new.obj
 0001:000171c0       sf_opaque_set_sim_state_c5_hyd_hyb_2_opt_cont_test_new 00000001800181c0 f   c5_hyd_hyb_2_opt_cont_test_new.obj
 0001:000171f0       sf_opaque_terminate_c5_hyd_hyb_2_opt_cont_test_new 00000001800181f0 f   c5_hyd_hyb_2_opt_cont_test_new.obj
 0001:00017270       finalize_c5_hyd_hyb_2_opt_cont_test_new 0000000180018270 f   c5_hyd_hyb_2_opt_cont_test_new.obj
 0001:00017280       sf_opaque_init_subchart_simstructs 0000000180018280 f   c5_hyd_hyb_2_opt_cont_test_new.obj
 0001:000172a0       initSimStructsc5_hyd_hyb_2_opt_cont_test_new 00000001800182a0 f   c5_hyd_hyb_2_opt_cont_test_new.obj
 0001:000172b0       mdlRTW_c5_hyd_hyb_2_opt_cont_test_new 00000001800182b0 f   c5_hyd_hyb_2_opt_cont_test_new.obj
 0001:00017ad0       get_sim_state_c6_hyd_hyb_2_opt_cont_test_new 0000000180018ad0 f   c6_hyd_hyb_2_opt_cont_test_new.obj
 0001:00017c60       sf_get_sim_state_info_c6_hyd_hyb_2_opt_cont_test_new 0000000180018c60 f   c6_hyd_hyb_2_opt_cont_test_new.obj
 0001:00017e40       set_sim_state_c6_hyd_hyb_2_opt_cont_test_new 0000000180018e40 f   c6_hyd_hyb_2_opt_cont_test_new.obj
 0001:00017f10       c6_update_debugger_state_c6_hyd_hyb_2_opt_cont_test_new 0000000180018f10 f   c6_hyd_hyb_2_opt_cont_test_new.obj
 0001:00017f20       c6_emlrt_marshallIn        0000000180018f20 f   c6_hyd_hyb_2_opt_cont_test_new.obj
 0001:00017f90       c6_b_emlrt_marshallIn      0000000180018f90 f   c6_hyd_hyb_2_opt_cont_test_new.obj
 0001:00018020       c6_d_emlrt_marshallIn      0000000180019020 f   c6_hyd_hyb_2_opt_cont_test_new.obj
 0001:00018080       c6_e_emlrt_marshallIn      0000000180019080 f   c6_hyd_hyb_2_opt_cont_test_new.obj
 0001:00018180       mdlProcessParameters_c6_hyd_hyb_2_opt_cont_test_new 0000000180019180 f   c6_hyd_hyb_2_opt_cont_test_new.obj
 0001:00018240       initialize_params_c6_hyd_hyb_2_opt_cont_test_new 0000000180019240 f   c6_hyd_hyb_2_opt_cont_test_new.obj
 0001:00018250       mdlSetWorkWidths_c6_hyd_hyb_2_opt_cont_test_new 0000000180019250 f   c6_hyd_hyb_2_opt_cont_test_new.obj
 0001:000185d0       mdlStart_c6_hyd_hyb_2_opt_cont_test_new 00000001800195d0 f   c6_hyd_hyb_2_opt_cont_test_new.obj
 0001:000187d0       init_dsm_address_info      00000001800197d0 f   c6_hyd_hyb_2_opt_cont_test_new.obj
 0001:000187e0       chart_debug_initialization 00000001800197e0 f   c6_hyd_hyb_2_opt_cont_test_new.obj
 0001:00019150       init_script_number_translation 000000018001a150 f   c6_hyd_hyb_2_opt_cont_test_new.obj
 0001:00019160       c6_sf_marshallOut          000000018001a160 f   c6_hyd_hyb_2_opt_cont_test_new.obj
 0001:00019210       c6_sf_marshallIn           000000018001a210 f   c6_hyd_hyb_2_opt_cont_test_new.obj
 0001:000192b0       c6_b_sf_marshallOut        000000018001a2b0 f   c6_hyd_hyb_2_opt_cont_test_new.obj
 0001:000194c0       sf_opaque_initialize_c6_hyd_hyb_2_opt_cont_test_new 000000018001a4c0 f   c6_hyd_hyb_2_opt_cont_test_new.obj
 0001:00019500       initialize_c6_hyd_hyb_2_opt_cont_test_new 000000018001a500 f   c6_hyd_hyb_2_opt_cont_test_new.obj
 0001:00019540       sf_opaque_enable_c6_hyd_hyb_2_opt_cont_test_new 000000018001a540 f   c6_hyd_hyb_2_opt_cont_test_new.obj
 0001:00019560       enable_c6_hyd_hyb_2_opt_cont_test_new 000000018001a560 f   c6_hyd_hyb_2_opt_cont_test_new.obj
 0001:00019590       sf_opaque_disable_c6_hyd_hyb_2_opt_cont_test_new 000000018001a590 f   c6_hyd_hyb_2_opt_cont_test_new.obj
 0001:000195b0       disable_c6_hyd_hyb_2_opt_cont_test_new 000000018001a5b0 f   c6_hyd_hyb_2_opt_cont_test_new.obj
 0001:000195e0       sf_opaque_gateway_c6_hyd_hyb_2_opt_cont_test_new 000000018001a5e0 f   c6_hyd_hyb_2_opt_cont_test_new.obj
 0001:00019600       sf_c6_hyd_hyb_2_opt_cont_test_new 000000018001a600 f   c6_hyd_hyb_2_opt_cont_test_new.obj
 0001:0001a200       sf_opaque_get_sim_state_c6_hyd_hyb_2_opt_cont_test_new 000000018001b200 f   c6_hyd_hyb_2_opt_cont_test_new.obj
 0001:0001a220       sf_opaque_set_sim_state_c6_hyd_hyb_2_opt_cont_test_new 000000018001b220 f   c6_hyd_hyb_2_opt_cont_test_new.obj
 0001:0001a250       sf_opaque_terminate_c6_hyd_hyb_2_opt_cont_test_new 000000018001b250 f   c6_hyd_hyb_2_opt_cont_test_new.obj
 0001:0001a2d0       finalize_c6_hyd_hyb_2_opt_cont_test_new 000000018001b2d0 f   c6_hyd_hyb_2_opt_cont_test_new.obj
 0001:0001a2e0       sf_opaque_init_subchart_simstructs 000000018001b2e0 f   c6_hyd_hyb_2_opt_cont_test_new.obj
 0001:0001a300       initSimStructsc6_hyd_hyb_2_opt_cont_test_new 000000018001b300 f   c6_hyd_hyb_2_opt_cont_test_new.obj
 0001:0001a310       mdlRTW_c6_hyd_hyb_2_opt_cont_test_new 000000018001b310 f   c6_hyd_hyb_2_opt_cont_test_new.obj
 0001:0001ab30       get_sim_state_c7_hyd_hyb_2_opt_cont_test_new 000000018001bb30 f   c7_hyd_hyb_2_opt_cont_test_new.obj
 0001:0001acc0       sf_get_sim_state_info_c7_hyd_hyb_2_opt_cont_test_new 000000018001bcc0 f   c7_hyd_hyb_2_opt_cont_test_new.obj
 0001:0001aea0       set_sim_state_c7_hyd_hyb_2_opt_cont_test_new 000000018001bea0 f   c7_hyd_hyb_2_opt_cont_test_new.obj
 0001:0001af70       c7_update_debugger_state_c7_hyd_hyb_2_opt_cont_test_new 000000018001bf70 f   c7_hyd_hyb_2_opt_cont_test_new.obj
 0001:0001af80       c7_emlrt_marshallIn        000000018001bf80 f   c7_hyd_hyb_2_opt_cont_test_new.obj
 0001:0001aff0       c7_b_emlrt_marshallIn      000000018001bff0 f   c7_hyd_hyb_2_opt_cont_test_new.obj
 0001:0001b080       c7_d_emlrt_marshallIn      000000018001c080 f   c7_hyd_hyb_2_opt_cont_test_new.obj
 0001:0001b0e0       c7_e_emlrt_marshallIn      000000018001c0e0 f   c7_hyd_hyb_2_opt_cont_test_new.obj
 0001:0001b1e0       mdlProcessParameters_c7_hyd_hyb_2_opt_cont_test_new 000000018001c1e0 f   c7_hyd_hyb_2_opt_cont_test_new.obj
 0001:0001b2a0       initialize_params_c7_hyd_hyb_2_opt_cont_test_new 000000018001c2a0 f   c7_hyd_hyb_2_opt_cont_test_new.obj
 0001:0001b2b0       mdlSetWorkWidths_c7_hyd_hyb_2_opt_cont_test_new 000000018001c2b0 f   c7_hyd_hyb_2_opt_cont_test_new.obj
 0001:0001b630       mdlStart_c7_hyd_hyb_2_opt_cont_test_new 000000018001c630 f   c7_hyd_hyb_2_opt_cont_test_new.obj
 0001:0001b830       init_dsm_address_info      000000018001c830 f   c7_hyd_hyb_2_opt_cont_test_new.obj
 0001:0001b840       chart_debug_initialization 000000018001c840 f   c7_hyd_hyb_2_opt_cont_test_new.obj
 0001:0001c1b0       init_script_number_translation 000000018001d1b0 f   c7_hyd_hyb_2_opt_cont_test_new.obj
 0001:0001c1c0       c7_sf_marshallOut          000000018001d1c0 f   c7_hyd_hyb_2_opt_cont_test_new.obj
 0001:0001c270       c7_sf_marshallIn           000000018001d270 f   c7_hyd_hyb_2_opt_cont_test_new.obj
 0001:0001c310       c7_b_sf_marshallOut        000000018001d310 f   c7_hyd_hyb_2_opt_cont_test_new.obj
 0001:0001c550       sf_opaque_initialize_c7_hyd_hyb_2_opt_cont_test_new 000000018001d550 f   c7_hyd_hyb_2_opt_cont_test_new.obj
 0001:0001c590       initialize_c7_hyd_hyb_2_opt_cont_test_new 000000018001d590 f   c7_hyd_hyb_2_opt_cont_test_new.obj
 0001:0001c5d0       sf_opaque_enable_c7_hyd_hyb_2_opt_cont_test_new 000000018001d5d0 f   c7_hyd_hyb_2_opt_cont_test_new.obj
 0001:0001c5f0       enable_c7_hyd_hyb_2_opt_cont_test_new 000000018001d5f0 f   c7_hyd_hyb_2_opt_cont_test_new.obj
 0001:0001c620       sf_opaque_disable_c7_hyd_hyb_2_opt_cont_test_new 000000018001d620 f   c7_hyd_hyb_2_opt_cont_test_new.obj
 0001:0001c640       disable_c7_hyd_hyb_2_opt_cont_test_new 000000018001d640 f   c7_hyd_hyb_2_opt_cont_test_new.obj
 0001:0001c670       sf_opaque_gateway_c7_hyd_hyb_2_opt_cont_test_new 000000018001d670 f   c7_hyd_hyb_2_opt_cont_test_new.obj
 0001:0001c690       sf_c7_hyd_hyb_2_opt_cont_test_new 000000018001d690 f   c7_hyd_hyb_2_opt_cont_test_new.obj
 0001:0001d280       sf_opaque_get_sim_state_c7_hyd_hyb_2_opt_cont_test_new 000000018001e280 f   c7_hyd_hyb_2_opt_cont_test_new.obj
 0001:0001d2a0       sf_opaque_set_sim_state_c7_hyd_hyb_2_opt_cont_test_new 000000018001e2a0 f   c7_hyd_hyb_2_opt_cont_test_new.obj
 0001:0001d2d0       sf_opaque_terminate_c7_hyd_hyb_2_opt_cont_test_new 000000018001e2d0 f   c7_hyd_hyb_2_opt_cont_test_new.obj
 0001:0001d350       finalize_c7_hyd_hyb_2_opt_cont_test_new 000000018001e350 f   c7_hyd_hyb_2_opt_cont_test_new.obj
 0001:0001d360       sf_opaque_init_subchart_simstructs 000000018001e360 f   c7_hyd_hyb_2_opt_cont_test_new.obj
 0001:0001d380       initSimStructsc7_hyd_hyb_2_opt_cont_test_new 000000018001e380 f   c7_hyd_hyb_2_opt_cont_test_new.obj
 0001:0001d390       mdlRTW_c7_hyd_hyb_2_opt_cont_test_new 000000018001e390 f   c7_hyd_hyb_2_opt_cont_test_new.obj
 0001:0001dbb0       get_sim_state_c8_hyd_hyb_2_opt_cont_test_new 000000018001ebb0 f   c8_hyd_hyb_2_opt_cont_test_new.obj
 0001:0001dd40       sf_get_sim_state_info_c8_hyd_hyb_2_opt_cont_test_new 000000018001ed40 f   c8_hyd_hyb_2_opt_cont_test_new.obj
 0001:0001df20       set_sim_state_c8_hyd_hyb_2_opt_cont_test_new 000000018001ef20 f   c8_hyd_hyb_2_opt_cont_test_new.obj
 0001:0001dff0       c8_update_debugger_state_c8_hyd_hyb_2_opt_cont_test_new 000000018001eff0 f   c8_hyd_hyb_2_opt_cont_test_new.obj
 0001:0001e000       c8_emlrt_marshallIn        000000018001f000 f   c8_hyd_hyb_2_opt_cont_test_new.obj
 0001:0001e070       c8_b_emlrt_marshallIn      000000018001f070 f   c8_hyd_hyb_2_opt_cont_test_new.obj
 0001:0001e100       c8_d_emlrt_marshallIn      000000018001f100 f   c8_hyd_hyb_2_opt_cont_test_new.obj
 0001:0001e160       c8_e_emlrt_marshallIn      000000018001f160 f   c8_hyd_hyb_2_opt_cont_test_new.obj
 0001:0001e260       mdlProcessParameters_c8_hyd_hyb_2_opt_cont_test_new 000000018001f260 f   c8_hyd_hyb_2_opt_cont_test_new.obj
 0001:0001e320       initialize_params_c8_hyd_hyb_2_opt_cont_test_new 000000018001f320 f   c8_hyd_hyb_2_opt_cont_test_new.obj
 0001:0001e330       mdlSetWorkWidths_c8_hyd_hyb_2_opt_cont_test_new 000000018001f330 f   c8_hyd_hyb_2_opt_cont_test_new.obj
 0001:0001e6b0       mdlStart_c8_hyd_hyb_2_opt_cont_test_new 000000018001f6b0 f   c8_hyd_hyb_2_opt_cont_test_new.obj
 0001:0001e8b0       init_dsm_address_info      000000018001f8b0 f   c8_hyd_hyb_2_opt_cont_test_new.obj
 0001:0001e8c0       chart_debug_initialization 000000018001f8c0 f   c8_hyd_hyb_2_opt_cont_test_new.obj
 0001:0001f230       init_script_number_translation 0000000180020230 f   c8_hyd_hyb_2_opt_cont_test_new.obj
 0001:0001f240       c8_sf_marshallOut          0000000180020240 f   c8_hyd_hyb_2_opt_cont_test_new.obj
 0001:0001f2f0       c8_sf_marshallIn           00000001800202f0 f   c8_hyd_hyb_2_opt_cont_test_new.obj
 0001:0001f390       c8_b_sf_marshallOut        0000000180020390 f   c8_hyd_hyb_2_opt_cont_test_new.obj
 0001:0001f5e0       sf_opaque_initialize_c8_hyd_hyb_2_opt_cont_test_new 00000001800205e0 f   c8_hyd_hyb_2_opt_cont_test_new.obj
 0001:0001f620       initialize_c8_hyd_hyb_2_opt_cont_test_new 0000000180020620 f   c8_hyd_hyb_2_opt_cont_test_new.obj
 0001:0001f660       sf_opaque_enable_c8_hyd_hyb_2_opt_cont_test_new 0000000180020660 f   c8_hyd_hyb_2_opt_cont_test_new.obj
 0001:0001f680       enable_c8_hyd_hyb_2_opt_cont_test_new 0000000180020680 f   c8_hyd_hyb_2_opt_cont_test_new.obj
 0001:0001f6b0       sf_opaque_disable_c8_hyd_hyb_2_opt_cont_test_new 00000001800206b0 f   c8_hyd_hyb_2_opt_cont_test_new.obj
 0001:0001f6d0       disable_c8_hyd_hyb_2_opt_cont_test_new 00000001800206d0 f   c8_hyd_hyb_2_opt_cont_test_new.obj
 0001:0001f700       sf_opaque_gateway_c8_hyd_hyb_2_opt_cont_test_new 0000000180020700 f   c8_hyd_hyb_2_opt_cont_test_new.obj
 0001:0001f720       sf_c8_hyd_hyb_2_opt_cont_test_new 0000000180020720 f   c8_hyd_hyb_2_opt_cont_test_new.obj
 0001:000202f0       sf_opaque_get_sim_state_c8_hyd_hyb_2_opt_cont_test_new 00000001800212f0 f   c8_hyd_hyb_2_opt_cont_test_new.obj
 0001:00020310       sf_opaque_set_sim_state_c8_hyd_hyb_2_opt_cont_test_new 0000000180021310 f   c8_hyd_hyb_2_opt_cont_test_new.obj
 0001:00020340       sf_opaque_terminate_c8_hyd_hyb_2_opt_cont_test_new 0000000180021340 f   c8_hyd_hyb_2_opt_cont_test_new.obj
 0001:000203c0       finalize_c8_hyd_hyb_2_opt_cont_test_new 00000001800213c0 f   c8_hyd_hyb_2_opt_cont_test_new.obj
 0001:000203d0       sf_opaque_init_subchart_simstructs 00000001800213d0 f   c8_hyd_hyb_2_opt_cont_test_new.obj
 0001:000203f0       initSimStructsc8_hyd_hyb_2_opt_cont_test_new 00000001800213f0 f   c8_hyd_hyb_2_opt_cont_test_new.obj
 0001:00020400       mdlRTW_c8_hyd_hyb_2_opt_cont_test_new 0000000180021400 f   c8_hyd_hyb_2_opt_cont_test_new.obj
 0001:00020c20       get_sim_state_c9_hyd_hyb_2_opt_cont_test_new 0000000180021c20 f   c9_hyd_hyb_2_opt_cont_test_new.obj
 0001:00020dc0       sf_get_sim_state_info_c9_hyd_hyb_2_opt_cont_test_new 0000000180021dc0 f   c9_hyd_hyb_2_opt_cont_test_new.obj
 0001:00020fa0       set_sim_state_c9_hyd_hyb_2_opt_cont_test_new 0000000180021fa0 f   c9_hyd_hyb_2_opt_cont_test_new.obj
 0001:00021070       c9_update_debugger_state_c9_hyd_hyb_2_opt_cont_test_new 0000000180022070 f   c9_hyd_hyb_2_opt_cont_test_new.obj
 0001:00021080       c9_emlrt_marshallIn        0000000180022080 f   c9_hyd_hyb_2_opt_cont_test_new.obj
 0001:000210f0       c9_b_emlrt_marshallIn      00000001800220f0 f   c9_hyd_hyb_2_opt_cont_test_new.obj
 0001:00021180       c9_d_emlrt_marshallIn      0000000180022180 f   c9_hyd_hyb_2_opt_cont_test_new.obj
 0001:000211e0       c9_e_emlrt_marshallIn      00000001800221e0 f   c9_hyd_hyb_2_opt_cont_test_new.obj
 0001:000212e0       mdlProcessParameters_c9_hyd_hyb_2_opt_cont_test_new 00000001800222e0 f   c9_hyd_hyb_2_opt_cont_test_new.obj
 0001:000213a0       initialize_params_c9_hyd_hyb_2_opt_cont_test_new 00000001800223a0 f   c9_hyd_hyb_2_opt_cont_test_new.obj
 0001:000213b0       mdlSetWorkWidths_c9_hyd_hyb_2_opt_cont_test_new 00000001800223b0 f   c9_hyd_hyb_2_opt_cont_test_new.obj
 0001:00021730       mdlStart_c9_hyd_hyb_2_opt_cont_test_new 0000000180022730 f   c9_hyd_hyb_2_opt_cont_test_new.obj
 0001:00021930       init_dsm_address_info      0000000180022930 f   c9_hyd_hyb_2_opt_cont_test_new.obj
 0001:00021940       chart_debug_initialization 0000000180022940 f   c9_hyd_hyb_2_opt_cont_test_new.obj
 0001:000222b0       init_script_number_translation 00000001800232b0 f   c9_hyd_hyb_2_opt_cont_test_new.obj
 0001:000222c0       c9_sf_marshallOut          00000001800232c0 f   c9_hyd_hyb_2_opt_cont_test_new.obj
 0001:00022370       c9_sf_marshallIn           0000000180023370 f   c9_hyd_hyb_2_opt_cont_test_new.obj
 0001:00022410       c9_b_sf_marshallOut        0000000180023410 f   c9_hyd_hyb_2_opt_cont_test_new.obj
 0001:00022660       sf_opaque_initialize_c9_hyd_hyb_2_opt_cont_test_new 0000000180023660 f   c9_hyd_hyb_2_opt_cont_test_new.obj
 0001:000226a0       initialize_c9_hyd_hyb_2_opt_cont_test_new 00000001800236a0 f   c9_hyd_hyb_2_opt_cont_test_new.obj
 0001:000226e0       sf_opaque_enable_c9_hyd_hyb_2_opt_cont_test_new 00000001800236e0 f   c9_hyd_hyb_2_opt_cont_test_new.obj
 0001:00022700       enable_c9_hyd_hyb_2_opt_cont_test_new 0000000180023700 f   c9_hyd_hyb_2_opt_cont_test_new.obj
 0001:00022730       sf_opaque_disable_c9_hyd_hyb_2_opt_cont_test_new 0000000180023730 f   c9_hyd_hyb_2_opt_cont_test_new.obj
 0001:00022750       disable_c9_hyd_hyb_2_opt_cont_test_new 0000000180023750 f   c9_hyd_hyb_2_opt_cont_test_new.obj
 0001:00022780       sf_opaque_gateway_c9_hyd_hyb_2_opt_cont_test_new 0000000180023780 f   c9_hyd_hyb_2_opt_cont_test_new.obj
 0001:000227a0       sf_c9_hyd_hyb_2_opt_cont_test_new 00000001800237a0 f   c9_hyd_hyb_2_opt_cont_test_new.obj
 0001:000233a0       sf_opaque_get_sim_state_c9_hyd_hyb_2_opt_cont_test_new 00000001800243a0 f   c9_hyd_hyb_2_opt_cont_test_new.obj
 0001:000233c0       sf_opaque_set_sim_state_c9_hyd_hyb_2_opt_cont_test_new 00000001800243c0 f   c9_hyd_hyb_2_opt_cont_test_new.obj
 0001:000233f0       sf_opaque_terminate_c9_hyd_hyb_2_opt_cont_test_new 00000001800243f0 f   c9_hyd_hyb_2_opt_cont_test_new.obj
 0001:00023470       finalize_c9_hyd_hyb_2_opt_cont_test_new 0000000180024470 f   c9_hyd_hyb_2_opt_cont_test_new.obj
 0001:00023480       sf_opaque_init_subchart_simstructs 0000000180024480 f   c9_hyd_hyb_2_opt_cont_test_new.obj
 0001:000234a0       initSimStructsc9_hyd_hyb_2_opt_cont_test_new 00000001800244a0 f   c9_hyd_hyb_2_opt_cont_test_new.obj
 0001:000234b0       mdlRTW_c9_hyd_hyb_2_opt_cont_test_new 00000001800244b0 f   c9_hyd_hyb_2_opt_cont_test_new.obj
 0001:00023cd0       get_sim_state_c10_hyd_hyb_2_opt_cont_test_new 0000000180024cd0 f   c10_hyd_hyb_2_opt_cont_test_new.obj
 0001:00023e60       sf_get_sim_state_info_c10_hyd_hyb_2_opt_cont_test_new 0000000180024e60 f   c10_hyd_hyb_2_opt_cont_test_new.obj
 0001:00024040       set_sim_state_c10_hyd_hyb_2_opt_cont_test_new 0000000180025040 f   c10_hyd_hyb_2_opt_cont_test_new.obj
 0001:00024110       c10_update_debugger_state_c10_hyd_hyb_2_opt_cont_test_new 0000000180025110 f   c10_hyd_hyb_2_opt_cont_test_new.obj
 0001:00024120       c10_emlrt_marshallIn       0000000180025120 f   c10_hyd_hyb_2_opt_cont_test_new.obj
 0001:00024190       c10_b_emlrt_marshallIn     0000000180025190 f   c10_hyd_hyb_2_opt_cont_test_new.obj
 0001:00024220       c10_d_emlrt_marshallIn     0000000180025220 f   c10_hyd_hyb_2_opt_cont_test_new.obj
 0001:00024280       c10_e_emlrt_marshallIn     0000000180025280 f   c10_hyd_hyb_2_opt_cont_test_new.obj
 0001:00024380       mdlProcessParameters_c10_hyd_hyb_2_opt_cont_test_new 0000000180025380 f   c10_hyd_hyb_2_opt_cont_test_new.obj
 0001:00024440       initialize_params_c10_hyd_hyb_2_opt_cont_test_new 0000000180025440 f   c10_hyd_hyb_2_opt_cont_test_new.obj
 0001:00024450       mdlSetWorkWidths_c10_hyd_hyb_2_opt_cont_test_new 0000000180025450 f   c10_hyd_hyb_2_opt_cont_test_new.obj
 0001:000247d0       mdlStart_c10_hyd_hyb_2_opt_cont_test_new 00000001800257d0 f   c10_hyd_hyb_2_opt_cont_test_new.obj
 0001:000249d0       init_dsm_address_info      00000001800259d0 f   c10_hyd_hyb_2_opt_cont_test_new.obj
 0001:000249e0       chart_debug_initialization 00000001800259e0 f   c10_hyd_hyb_2_opt_cont_test_new.obj
 0001:00025350       init_script_number_translation 0000000180026350 f   c10_hyd_hyb_2_opt_cont_test_new.obj
 0001:00025360       c10_sf_marshallOut         0000000180026360 f   c10_hyd_hyb_2_opt_cont_test_new.obj
 0001:00025410       c10_sf_marshallIn          0000000180026410 f   c10_hyd_hyb_2_opt_cont_test_new.obj
 0001:000254b0       c10_b_sf_marshallOut       00000001800264b0 f   c10_hyd_hyb_2_opt_cont_test_new.obj
 0001:00025700       sf_opaque_initialize_c10_hyd_hyb_2_opt_cont_test_new 0000000180026700 f   c10_hyd_hyb_2_opt_cont_test_new.obj
 0001:00025740       initialize_c10_hyd_hyb_2_opt_cont_test_new 0000000180026740 f   c10_hyd_hyb_2_opt_cont_test_new.obj
 0001:00025780       sf_opaque_enable_c10_hyd_hyb_2_opt_cont_test_new 0000000180026780 f   c10_hyd_hyb_2_opt_cont_test_new.obj
 0001:000257a0       enable_c10_hyd_hyb_2_opt_cont_test_new 00000001800267a0 f   c10_hyd_hyb_2_opt_cont_test_new.obj
 0001:000257d0       sf_opaque_disable_c10_hyd_hyb_2_opt_cont_test_new 00000001800267d0 f   c10_hyd_hyb_2_opt_cont_test_new.obj
 0001:000257f0       disable_c10_hyd_hyb_2_opt_cont_test_new 00000001800267f0 f   c10_hyd_hyb_2_opt_cont_test_new.obj
 0001:00025820       sf_opaque_gateway_c10_hyd_hyb_2_opt_cont_test_new 0000000180026820 f   c10_hyd_hyb_2_opt_cont_test_new.obj
 0001:00025840       sf_c10_hyd_hyb_2_opt_cont_test_new 0000000180026840 f   c10_hyd_hyb_2_opt_cont_test_new.obj
 0001:00026440       sf_opaque_get_sim_state_c10_hyd_hyb_2_opt_cont_test_new 0000000180027440 f   c10_hyd_hyb_2_opt_cont_test_new.obj
 0001:00026460       sf_opaque_set_sim_state_c10_hyd_hyb_2_opt_cont_test_new 0000000180027460 f   c10_hyd_hyb_2_opt_cont_test_new.obj
 0001:00026490       sf_opaque_terminate_c10_hyd_hyb_2_opt_cont_test_new 0000000180027490 f   c10_hyd_hyb_2_opt_cont_test_new.obj
 0001:00026510       finalize_c10_hyd_hyb_2_opt_cont_test_new 0000000180027510 f   c10_hyd_hyb_2_opt_cont_test_new.obj
 0001:00026520       sf_opaque_init_subchart_simstructs 0000000180027520 f   c10_hyd_hyb_2_opt_cont_test_new.obj
 0001:00026540       initSimStructsc10_hyd_hyb_2_opt_cont_test_new 0000000180027540 f   c10_hyd_hyb_2_opt_cont_test_new.obj
 0001:00026550       mdlRTW_c10_hyd_hyb_2_opt_cont_test_new 0000000180027550 f   c10_hyd_hyb_2_opt_cont_test_new.obj
 0001:00026d70       get_sim_state_c11_hyd_hyb_2_opt_cont_test_new 0000000180027d70 f   c11_hyd_hyb_2_opt_cont_test_new.obj
 0001:00026f00       sf_get_sim_state_info_c11_hyd_hyb_2_opt_cont_test_new 0000000180027f00 f   c11_hyd_hyb_2_opt_cont_test_new.obj
 0001:000270e0       set_sim_state_c11_hyd_hyb_2_opt_cont_test_new 00000001800280e0 f   c11_hyd_hyb_2_opt_cont_test_new.obj
 0001:000271b0       c11_update_debugger_state_c11_hyd_hyb_2_opt_cont_test_new 00000001800281b0 f   c11_hyd_hyb_2_opt_cont_test_new.obj
 0001:000271c0       c11_emlrt_marshallIn       00000001800281c0 f   c11_hyd_hyb_2_opt_cont_test_new.obj
 0001:00027230       c11_b_emlrt_marshallIn     0000000180028230 f   c11_hyd_hyb_2_opt_cont_test_new.obj
 0001:000272c0       c11_d_emlrt_marshallIn     00000001800282c0 f   c11_hyd_hyb_2_opt_cont_test_new.obj
 0001:00027320       c11_e_emlrt_marshallIn     0000000180028320 f   c11_hyd_hyb_2_opt_cont_test_new.obj
 0001:00027420       mdlProcessParameters_c11_hyd_hyb_2_opt_cont_test_new 0000000180028420 f   c11_hyd_hyb_2_opt_cont_test_new.obj
 0001:000274e0       initialize_params_c11_hyd_hyb_2_opt_cont_test_new 00000001800284e0 f   c11_hyd_hyb_2_opt_cont_test_new.obj
 0001:000274f0       mdlSetWorkWidths_c11_hyd_hyb_2_opt_cont_test_new 00000001800284f0 f   c11_hyd_hyb_2_opt_cont_test_new.obj
 0001:00027870       mdlStart_c11_hyd_hyb_2_opt_cont_test_new 0000000180028870 f   c11_hyd_hyb_2_opt_cont_test_new.obj
 0001:00027a70       init_dsm_address_info      0000000180028a70 f   c11_hyd_hyb_2_opt_cont_test_new.obj
 0001:00027a80       chart_debug_initialization 0000000180028a80 f   c11_hyd_hyb_2_opt_cont_test_new.obj
 0001:000283f0       init_script_number_translation 00000001800293f0 f   c11_hyd_hyb_2_opt_cont_test_new.obj
 0001:00028400       c11_sf_marshallOut         0000000180029400 f   c11_hyd_hyb_2_opt_cont_test_new.obj
 0001:000284b0       c11_sf_marshallIn          00000001800294b0 f   c11_hyd_hyb_2_opt_cont_test_new.obj
 0001:00028550       c11_b_sf_marshallOut       0000000180029550 f   c11_hyd_hyb_2_opt_cont_test_new.obj
 0001:00028770       sf_opaque_initialize_c11_hyd_hyb_2_opt_cont_test_new 0000000180029770 f   c11_hyd_hyb_2_opt_cont_test_new.obj
 0001:000287b0       initialize_c11_hyd_hyb_2_opt_cont_test_new 00000001800297b0 f   c11_hyd_hyb_2_opt_cont_test_new.obj
 0001:000287f0       sf_opaque_enable_c11_hyd_hyb_2_opt_cont_test_new 00000001800297f0 f   c11_hyd_hyb_2_opt_cont_test_new.obj
 0001:00028810       enable_c11_hyd_hyb_2_opt_cont_test_new 0000000180029810 f   c11_hyd_hyb_2_opt_cont_test_new.obj
 0001:00028840       sf_opaque_disable_c11_hyd_hyb_2_opt_cont_test_new 0000000180029840 f   c11_hyd_hyb_2_opt_cont_test_new.obj
 0001:00028860       disable_c11_hyd_hyb_2_opt_cont_test_new 0000000180029860 f   c11_hyd_hyb_2_opt_cont_test_new.obj
 0001:00028890       sf_opaque_gateway_c11_hyd_hyb_2_opt_cont_test_new 0000000180029890 f   c11_hyd_hyb_2_opt_cont_test_new.obj
 0001:000288b0       sf_c11_hyd_hyb_2_opt_cont_test_new 00000001800298b0 f   c11_hyd_hyb_2_opt_cont_test_new.obj
 0001:000294a0       sf_opaque_get_sim_state_c11_hyd_hyb_2_opt_cont_test_new 000000018002a4a0 f   c11_hyd_hyb_2_opt_cont_test_new.obj
 0001:000294c0       sf_opaque_set_sim_state_c11_hyd_hyb_2_opt_cont_test_new 000000018002a4c0 f   c11_hyd_hyb_2_opt_cont_test_new.obj
 0001:000294f0       sf_opaque_terminate_c11_hyd_hyb_2_opt_cont_test_new 000000018002a4f0 f   c11_hyd_hyb_2_opt_cont_test_new.obj
 0001:00029570       finalize_c11_hyd_hyb_2_opt_cont_test_new 000000018002a570 f   c11_hyd_hyb_2_opt_cont_test_new.obj
 0001:00029580       sf_opaque_init_subchart_simstructs 000000018002a580 f   c11_hyd_hyb_2_opt_cont_test_new.obj
 0001:000295a0       initSimStructsc11_hyd_hyb_2_opt_cont_test_new 000000018002a5a0 f   c11_hyd_hyb_2_opt_cont_test_new.obj
 0001:000295b0       mdlRTW_c11_hyd_hyb_2_opt_cont_test_new 000000018002a5b0 f   c11_hyd_hyb_2_opt_cont_test_new.obj
 0001:00029dd0       get_sim_state_c12_hyd_hyb_2_opt_cont_test_new 000000018002add0 f   c12_hyd_hyb_2_opt_cont_test_new.obj
 0001:00029f60       sf_get_sim_state_info_c12_hyd_hyb_2_opt_cont_test_new 000000018002af60 f   c12_hyd_hyb_2_opt_cont_test_new.obj
 0001:0002a140       set_sim_state_c12_hyd_hyb_2_opt_cont_test_new 000000018002b140 f   c12_hyd_hyb_2_opt_cont_test_new.obj
 0001:0002a210       c12_update_debugger_state_c12_hyd_hyb_2_opt_cont_test_new 000000018002b210 f   c12_hyd_hyb_2_opt_cont_test_new.obj
 0001:0002a220       c12_emlrt_marshallIn       000000018002b220 f   c12_hyd_hyb_2_opt_cont_test_new.obj
 0001:0002a290       c12_b_emlrt_marshallIn     000000018002b290 f   c12_hyd_hyb_2_opt_cont_test_new.obj
 0001:0002a320       c12_d_emlrt_marshallIn     000000018002b320 f   c12_hyd_hyb_2_opt_cont_test_new.obj
 0001:0002a380       c12_e_emlrt_marshallIn     000000018002b380 f   c12_hyd_hyb_2_opt_cont_test_new.obj
 0001:0002a480       mdlProcessParameters_c12_hyd_hyb_2_opt_cont_test_new 000000018002b480 f   c12_hyd_hyb_2_opt_cont_test_new.obj
 0001:0002a540       initialize_params_c12_hyd_hyb_2_opt_cont_test_new 000000018002b540 f   c12_hyd_hyb_2_opt_cont_test_new.obj
 0001:0002a550       mdlSetWorkWidths_c12_hyd_hyb_2_opt_cont_test_new 000000018002b550 f   c12_hyd_hyb_2_opt_cont_test_new.obj
 0001:0002a8d0       mdlStart_c12_hyd_hyb_2_opt_cont_test_new 000000018002b8d0 f   c12_hyd_hyb_2_opt_cont_test_new.obj
 0001:0002aad0       init_dsm_address_info      000000018002bad0 f   c12_hyd_hyb_2_opt_cont_test_new.obj
 0001:0002aae0       chart_debug_initialization 000000018002bae0 f   c12_hyd_hyb_2_opt_cont_test_new.obj
 0001:0002b450       init_script_number_translation 000000018002c450 f   c12_hyd_hyb_2_opt_cont_test_new.obj
 0001:0002b460       c12_sf_marshallOut         000000018002c460 f   c12_hyd_hyb_2_opt_cont_test_new.obj
 0001:0002b510       c12_sf_marshallIn          000000018002c510 f   c12_hyd_hyb_2_opt_cont_test_new.obj
 0001:0002b5b0       c12_b_sf_marshallOut       000000018002c5b0 f   c12_hyd_hyb_2_opt_cont_test_new.obj
 0001:0002b7e0       sf_opaque_initialize_c12_hyd_hyb_2_opt_cont_test_new 000000018002c7e0 f   c12_hyd_hyb_2_opt_cont_test_new.obj
 0001:0002b820       initialize_c12_hyd_hyb_2_opt_cont_test_new 000000018002c820 f   c12_hyd_hyb_2_opt_cont_test_new.obj
 0001:0002b860       sf_opaque_enable_c12_hyd_hyb_2_opt_cont_test_new 000000018002c860 f   c12_hyd_hyb_2_opt_cont_test_new.obj
 0001:0002b880       enable_c12_hyd_hyb_2_opt_cont_test_new 000000018002c880 f   c12_hyd_hyb_2_opt_cont_test_new.obj
 0001:0002b8b0       sf_opaque_disable_c12_hyd_hyb_2_opt_cont_test_new 000000018002c8b0 f   c12_hyd_hyb_2_opt_cont_test_new.obj
 0001:0002b8d0       disable_c12_hyd_hyb_2_opt_cont_test_new 000000018002c8d0 f   c12_hyd_hyb_2_opt_cont_test_new.obj
 0001:0002b900       sf_opaque_gateway_c12_hyd_hyb_2_opt_cont_test_new 000000018002c900 f   c12_hyd_hyb_2_opt_cont_test_new.obj
 0001:0002b920       sf_c12_hyd_hyb_2_opt_cont_test_new 000000018002c920 f   c12_hyd_hyb_2_opt_cont_test_new.obj
 0001:0002c520       sf_opaque_get_sim_state_c12_hyd_hyb_2_opt_cont_test_new 000000018002d520 f   c12_hyd_hyb_2_opt_cont_test_new.obj
 0001:0002c540       sf_opaque_set_sim_state_c12_hyd_hyb_2_opt_cont_test_new 000000018002d540 f   c12_hyd_hyb_2_opt_cont_test_new.obj
 0001:0002c570       sf_opaque_terminate_c12_hyd_hyb_2_opt_cont_test_new 000000018002d570 f   c12_hyd_hyb_2_opt_cont_test_new.obj
 0001:0002c5f0       finalize_c12_hyd_hyb_2_opt_cont_test_new 000000018002d5f0 f   c12_hyd_hyb_2_opt_cont_test_new.obj
 0001:0002c600       sf_opaque_init_subchart_simstructs 000000018002d600 f   c12_hyd_hyb_2_opt_cont_test_new.obj
 0001:0002c620       initSimStructsc12_hyd_hyb_2_opt_cont_test_new 000000018002d620 f   c12_hyd_hyb_2_opt_cont_test_new.obj
 0001:0002c630       mdlRTW_c12_hyd_hyb_2_opt_cont_test_new 000000018002d630 f   c12_hyd_hyb_2_opt_cont_test_new.obj
 0001:0002ce50       get_sim_state_c13_hyd_hyb_2_opt_cont_test_new 000000018002de50 f   c13_hyd_hyb_2_opt_cont_test_new.obj
 0001:0002cfe0       sf_get_sim_state_info_c13_hyd_hyb_2_opt_cont_test_new 000000018002dfe0 f   c13_hyd_hyb_2_opt_cont_test_new.obj
 0001:0002d1c0       set_sim_state_c13_hyd_hyb_2_opt_cont_test_new 000000018002e1c0 f   c13_hyd_hyb_2_opt_cont_test_new.obj
 0001:0002d290       c13_update_debugger_state_c13_hyd_hyb_2_opt_cont_test_new 000000018002e290 f   c13_hyd_hyb_2_opt_cont_test_new.obj
 0001:0002d2a0       c13_emlrt_marshallIn       000000018002e2a0 f   c13_hyd_hyb_2_opt_cont_test_new.obj
 0001:0002d310       c13_b_emlrt_marshallIn     000000018002e310 f   c13_hyd_hyb_2_opt_cont_test_new.obj
 0001:0002d3a0       c13_d_emlrt_marshallIn     000000018002e3a0 f   c13_hyd_hyb_2_opt_cont_test_new.obj
 0001:0002d400       c13_e_emlrt_marshallIn     000000018002e400 f   c13_hyd_hyb_2_opt_cont_test_new.obj
 0001:0002d500       mdlProcessParameters_c13_hyd_hyb_2_opt_cont_test_new 000000018002e500 f   c13_hyd_hyb_2_opt_cont_test_new.obj
 0001:0002d5c0       initialize_params_c13_hyd_hyb_2_opt_cont_test_new 000000018002e5c0 f   c13_hyd_hyb_2_opt_cont_test_new.obj
 0001:0002d5d0       mdlSetWorkWidths_c13_hyd_hyb_2_opt_cont_test_new 000000018002e5d0 f   c13_hyd_hyb_2_opt_cont_test_new.obj
 0001:0002d950       mdlStart_c13_hyd_hyb_2_opt_cont_test_new 000000018002e950 f   c13_hyd_hyb_2_opt_cont_test_new.obj
 0001:0002db50       init_dsm_address_info      000000018002eb50 f   c13_hyd_hyb_2_opt_cont_test_new.obj
 0001:0002db60       chart_debug_initialization 000000018002eb60 f   c13_hyd_hyb_2_opt_cont_test_new.obj
 0001:0002e4d0       init_script_number_translation 000000018002f4d0 f   c13_hyd_hyb_2_opt_cont_test_new.obj
 0001:0002e4e0       c13_sf_marshallOut         000000018002f4e0 f   c13_hyd_hyb_2_opt_cont_test_new.obj
 0001:0002e590       c13_sf_marshallIn          000000018002f590 f   c13_hyd_hyb_2_opt_cont_test_new.obj
 0001:0002e630       c13_b_sf_marshallOut       000000018002f630 f   c13_hyd_hyb_2_opt_cont_test_new.obj
 0001:0002e880       sf_opaque_initialize_c13_hyd_hyb_2_opt_cont_test_new 000000018002f880 f   c13_hyd_hyb_2_opt_cont_test_new.obj
 0001:0002e8c0       initialize_c13_hyd_hyb_2_opt_cont_test_new 000000018002f8c0 f   c13_hyd_hyb_2_opt_cont_test_new.obj
 0001:0002e900       sf_opaque_enable_c13_hyd_hyb_2_opt_cont_test_new 000000018002f900 f   c13_hyd_hyb_2_opt_cont_test_new.obj
 0001:0002e920       enable_c13_hyd_hyb_2_opt_cont_test_new 000000018002f920 f   c13_hyd_hyb_2_opt_cont_test_new.obj
 0001:0002e950       sf_opaque_disable_c13_hyd_hyb_2_opt_cont_test_new 000000018002f950 f   c13_hyd_hyb_2_opt_cont_test_new.obj
 0001:0002e970       disable_c13_hyd_hyb_2_opt_cont_test_new 000000018002f970 f   c13_hyd_hyb_2_opt_cont_test_new.obj
 0001:0002e9a0       sf_opaque_gateway_c13_hyd_hyb_2_opt_cont_test_new 000000018002f9a0 f   c13_hyd_hyb_2_opt_cont_test_new.obj
 0001:0002e9c0       sf_c13_hyd_hyb_2_opt_cont_test_new 000000018002f9c0 f   c13_hyd_hyb_2_opt_cont_test_new.obj
 0001:0002f5a0       sf_opaque_get_sim_state_c13_hyd_hyb_2_opt_cont_test_new 00000001800305a0 f   c13_hyd_hyb_2_opt_cont_test_new.obj
 0001:0002f5c0       sf_opaque_set_sim_state_c13_hyd_hyb_2_opt_cont_test_new 00000001800305c0 f   c13_hyd_hyb_2_opt_cont_test_new.obj
 0001:0002f5f0       sf_opaque_terminate_c13_hyd_hyb_2_opt_cont_test_new 00000001800305f0 f   c13_hyd_hyb_2_opt_cont_test_new.obj
 0001:0002f670       finalize_c13_hyd_hyb_2_opt_cont_test_new 0000000180030670 f   c13_hyd_hyb_2_opt_cont_test_new.obj
 0001:0002f680       sf_opaque_init_subchart_simstructs 0000000180030680 f   c13_hyd_hyb_2_opt_cont_test_new.obj
 0001:0002f6a0       initSimStructsc13_hyd_hyb_2_opt_cont_test_new 00000001800306a0 f   c13_hyd_hyb_2_opt_cont_test_new.obj
 0001:0002f6b0       mdlRTW_c13_hyd_hyb_2_opt_cont_test_new 00000001800306b0 f   c13_hyd_hyb_2_opt_cont_test_new.obj
 0001:0002fed0       get_sim_state_c14_hyd_hyb_2_opt_cont_test_new 0000000180030ed0 f   c14_hyd_hyb_2_opt_cont_test_new.obj
 0001:00030060       sf_get_sim_state_info_c14_hyd_hyb_2_opt_cont_test_new 0000000180031060 f   c14_hyd_hyb_2_opt_cont_test_new.obj
 0001:00030240       set_sim_state_c14_hyd_hyb_2_opt_cont_test_new 0000000180031240 f   c14_hyd_hyb_2_opt_cont_test_new.obj
 0001:00030310       c14_update_debugger_state_c14_hyd_hyb_2_opt_cont_test_new 0000000180031310 f   c14_hyd_hyb_2_opt_cont_test_new.obj
 0001:00030320       c14_emlrt_marshallIn       0000000180031320 f   c14_hyd_hyb_2_opt_cont_test_new.obj
 0001:00030390       c14_b_emlrt_marshallIn     0000000180031390 f   c14_hyd_hyb_2_opt_cont_test_new.obj
 0001:00030420       c14_d_emlrt_marshallIn     0000000180031420 f   c14_hyd_hyb_2_opt_cont_test_new.obj
 0001:00030480       c14_e_emlrt_marshallIn     0000000180031480 f   c14_hyd_hyb_2_opt_cont_test_new.obj
 0001:00030580       mdlProcessParameters_c14_hyd_hyb_2_opt_cont_test_new 0000000180031580 f   c14_hyd_hyb_2_opt_cont_test_new.obj
 0001:00030640       initialize_params_c14_hyd_hyb_2_opt_cont_test_new 0000000180031640 f   c14_hyd_hyb_2_opt_cont_test_new.obj
 0001:00030650       mdlSetWorkWidths_c14_hyd_hyb_2_opt_cont_test_new 0000000180031650 f   c14_hyd_hyb_2_opt_cont_test_new.obj
 0001:000309d0       mdlStart_c14_hyd_hyb_2_opt_cont_test_new 00000001800319d0 f   c14_hyd_hyb_2_opt_cont_test_new.obj
 0001:00030bd0       init_dsm_address_info      0000000180031bd0 f   c14_hyd_hyb_2_opt_cont_test_new.obj
 0001:00030be0       chart_debug_initialization 0000000180031be0 f   c14_hyd_hyb_2_opt_cont_test_new.obj
 0001:00031550       init_script_number_translation 0000000180032550 f   c14_hyd_hyb_2_opt_cont_test_new.obj
 0001:00031560       c14_sf_marshallOut         0000000180032560 f   c14_hyd_hyb_2_opt_cont_test_new.obj
 0001:00031610       c14_sf_marshallIn          0000000180032610 f   c14_hyd_hyb_2_opt_cont_test_new.obj
 0001:000316b0       c14_b_sf_marshallOut       00000001800326b0 f   c14_hyd_hyb_2_opt_cont_test_new.obj
 0001:000318e0       sf_opaque_initialize_c14_hyd_hyb_2_opt_cont_test_new 00000001800328e0 f   c14_hyd_hyb_2_opt_cont_test_new.obj
 0001:00031920       initialize_c14_hyd_hyb_2_opt_cont_test_new 0000000180032920 f   c14_hyd_hyb_2_opt_cont_test_new.obj
 0001:00031960       sf_opaque_enable_c14_hyd_hyb_2_opt_cont_test_new 0000000180032960 f   c14_hyd_hyb_2_opt_cont_test_new.obj
 0001:00031980       enable_c14_hyd_hyb_2_opt_cont_test_new 0000000180032980 f   c14_hyd_hyb_2_opt_cont_test_new.obj
 0001:000319b0       sf_opaque_disable_c14_hyd_hyb_2_opt_cont_test_new 00000001800329b0 f   c14_hyd_hyb_2_opt_cont_test_new.obj
 0001:000319d0       disable_c14_hyd_hyb_2_opt_cont_test_new 00000001800329d0 f   c14_hyd_hyb_2_opt_cont_test_new.obj
 0001:00031a00       sf_opaque_gateway_c14_hyd_hyb_2_opt_cont_test_new 0000000180032a00 f   c14_hyd_hyb_2_opt_cont_test_new.obj
 0001:00031a20       sf_c14_hyd_hyb_2_opt_cont_test_new 0000000180032a20 f   c14_hyd_hyb_2_opt_cont_test_new.obj
 0001:00032600       sf_opaque_get_sim_state_c14_hyd_hyb_2_opt_cont_test_new 0000000180033600 f   c14_hyd_hyb_2_opt_cont_test_new.obj
 0001:00032620       sf_opaque_set_sim_state_c14_hyd_hyb_2_opt_cont_test_new 0000000180033620 f   c14_hyd_hyb_2_opt_cont_test_new.obj
 0001:00032650       sf_opaque_terminate_c14_hyd_hyb_2_opt_cont_test_new 0000000180033650 f   c14_hyd_hyb_2_opt_cont_test_new.obj
 0001:000326d0       finalize_c14_hyd_hyb_2_opt_cont_test_new 00000001800336d0 f   c14_hyd_hyb_2_opt_cont_test_new.obj
 0001:000326e0       sf_opaque_init_subchart_simstructs 00000001800336e0 f   c14_hyd_hyb_2_opt_cont_test_new.obj
 0001:00032700       initSimStructsc14_hyd_hyb_2_opt_cont_test_new 0000000180033700 f   c14_hyd_hyb_2_opt_cont_test_new.obj
 0001:00032710       mdlRTW_c14_hyd_hyb_2_opt_cont_test_new 0000000180033710 f   c14_hyd_hyb_2_opt_cont_test_new.obj
 0001:00032f30       get_sim_state_c15_hyd_hyb_2_opt_cont_test_new 0000000180033f30 f   c15_hyd_hyb_2_opt_cont_test_new.obj
 0001:000330c0       sf_get_sim_state_info_c15_hyd_hyb_2_opt_cont_test_new 00000001800340c0 f   c15_hyd_hyb_2_opt_cont_test_new.obj
 0001:000332a0       set_sim_state_c15_hyd_hyb_2_opt_cont_test_new 00000001800342a0 f   c15_hyd_hyb_2_opt_cont_test_new.obj
 0001:00033370       c15_update_debugger_state_c15_hyd_hyb_2_opt_cont_test_new 0000000180034370 f   c15_hyd_hyb_2_opt_cont_test_new.obj
 0001:00033380       c15_emlrt_marshallIn       0000000180034380 f   c15_hyd_hyb_2_opt_cont_test_new.obj
 0001:000333f0       c15_b_emlrt_marshallIn     00000001800343f0 f   c15_hyd_hyb_2_opt_cont_test_new.obj
 0001:00033480       c15_d_emlrt_marshallIn     0000000180034480 f   c15_hyd_hyb_2_opt_cont_test_new.obj
 0001:000334e0       c15_e_emlrt_marshallIn     00000001800344e0 f   c15_hyd_hyb_2_opt_cont_test_new.obj
 0001:000335e0       mdlProcessParameters_c15_hyd_hyb_2_opt_cont_test_new 00000001800345e0 f   c15_hyd_hyb_2_opt_cont_test_new.obj
 0001:000336a0       initialize_params_c15_hyd_hyb_2_opt_cont_test_new 00000001800346a0 f   c15_hyd_hyb_2_opt_cont_test_new.obj
 0001:000336b0       mdlSetWorkWidths_c15_hyd_hyb_2_opt_cont_test_new 00000001800346b0 f   c15_hyd_hyb_2_opt_cont_test_new.obj
 0001:00033a30       mdlStart_c15_hyd_hyb_2_opt_cont_test_new 0000000180034a30 f   c15_hyd_hyb_2_opt_cont_test_new.obj
 0001:00033c30       init_dsm_address_info      0000000180034c30 f   c15_hyd_hyb_2_opt_cont_test_new.obj
 0001:00033c40       chart_debug_initialization 0000000180034c40 f   c15_hyd_hyb_2_opt_cont_test_new.obj
 0001:000345b0       init_script_number_translation 00000001800355b0 f   c15_hyd_hyb_2_opt_cont_test_new.obj
 0001:000345c0       c15_sf_marshallOut         00000001800355c0 f   c15_hyd_hyb_2_opt_cont_test_new.obj
 0001:00034670       c15_sf_marshallIn          0000000180035670 f   c15_hyd_hyb_2_opt_cont_test_new.obj
 0001:00034710       c15_b_sf_marshallOut       0000000180035710 f   c15_hyd_hyb_2_opt_cont_test_new.obj
 0001:00034910       sf_opaque_initialize_c15_hyd_hyb_2_opt_cont_test_new 0000000180035910 f   c15_hyd_hyb_2_opt_cont_test_new.obj
 0001:00034950       initialize_c15_hyd_hyb_2_opt_cont_test_new 0000000180035950 f   c15_hyd_hyb_2_opt_cont_test_new.obj
 0001:00034990       sf_opaque_enable_c15_hyd_hyb_2_opt_cont_test_new 0000000180035990 f   c15_hyd_hyb_2_opt_cont_test_new.obj
 0001:000349b0       enable_c15_hyd_hyb_2_opt_cont_test_new 00000001800359b0 f   c15_hyd_hyb_2_opt_cont_test_new.obj
 0001:000349e0       sf_opaque_disable_c15_hyd_hyb_2_opt_cont_test_new 00000001800359e0 f   c15_hyd_hyb_2_opt_cont_test_new.obj
 0001:00034a00       disable_c15_hyd_hyb_2_opt_cont_test_new 0000000180035a00 f   c15_hyd_hyb_2_opt_cont_test_new.obj
 0001:00034a30       sf_opaque_gateway_c15_hyd_hyb_2_opt_cont_test_new 0000000180035a30 f   c15_hyd_hyb_2_opt_cont_test_new.obj
 0001:00034a50       sf_c15_hyd_hyb_2_opt_cont_test_new 0000000180035a50 f   c15_hyd_hyb_2_opt_cont_test_new.obj
 0001:00035630       sf_opaque_get_sim_state_c15_hyd_hyb_2_opt_cont_test_new 0000000180036630 f   c15_hyd_hyb_2_opt_cont_test_new.obj
 0001:00035650       sf_opaque_set_sim_state_c15_hyd_hyb_2_opt_cont_test_new 0000000180036650 f   c15_hyd_hyb_2_opt_cont_test_new.obj
 0001:00035680       sf_opaque_terminate_c15_hyd_hyb_2_opt_cont_test_new 0000000180036680 f   c15_hyd_hyb_2_opt_cont_test_new.obj
 0001:00035700       finalize_c15_hyd_hyb_2_opt_cont_test_new 0000000180036700 f   c15_hyd_hyb_2_opt_cont_test_new.obj
 0001:00035710       sf_opaque_init_subchart_simstructs 0000000180036710 f   c15_hyd_hyb_2_opt_cont_test_new.obj
 0001:00035730       initSimStructsc15_hyd_hyb_2_opt_cont_test_new 0000000180036730 f   c15_hyd_hyb_2_opt_cont_test_new.obj
 0001:00035740       mdlRTW_c15_hyd_hyb_2_opt_cont_test_new 0000000180036740 f   c15_hyd_hyb_2_opt_cont_test_new.obj
 0001:00035f60       get_sim_state_c16_hyd_hyb_2_opt_cont_test_new 0000000180036f60 f   c16_hyd_hyb_2_opt_cont_test_new.obj
 0001:000360f0       sf_get_sim_state_info_c16_hyd_hyb_2_opt_cont_test_new 00000001800370f0 f   c16_hyd_hyb_2_opt_cont_test_new.obj
 0001:000362d0       set_sim_state_c16_hyd_hyb_2_opt_cont_test_new 00000001800372d0 f   c16_hyd_hyb_2_opt_cont_test_new.obj
 0001:000363a0       c16_update_debugger_state_c16_hyd_hyb_2_opt_cont_test_new 00000001800373a0 f   c16_hyd_hyb_2_opt_cont_test_new.obj
 0001:000363b0       c16_emlrt_marshallIn       00000001800373b0 f   c16_hyd_hyb_2_opt_cont_test_new.obj
 0001:00036420       c16_b_emlrt_marshallIn     0000000180037420 f   c16_hyd_hyb_2_opt_cont_test_new.obj
 0001:000364b0       c16_d_emlrt_marshallIn     00000001800374b0 f   c16_hyd_hyb_2_opt_cont_test_new.obj
 0001:00036510       c16_e_emlrt_marshallIn     0000000180037510 f   c16_hyd_hyb_2_opt_cont_test_new.obj
 0001:00036610       mdlProcessParameters_c16_hyd_hyb_2_opt_cont_test_new 0000000180037610 f   c16_hyd_hyb_2_opt_cont_test_new.obj
 0001:000366d0       initialize_params_c16_hyd_hyb_2_opt_cont_test_new 00000001800376d0 f   c16_hyd_hyb_2_opt_cont_test_new.obj
 0001:000366e0       mdlSetWorkWidths_c16_hyd_hyb_2_opt_cont_test_new 00000001800376e0 f   c16_hyd_hyb_2_opt_cont_test_new.obj
 0001:00036a60       mdlStart_c16_hyd_hyb_2_opt_cont_test_new 0000000180037a60 f   c16_hyd_hyb_2_opt_cont_test_new.obj
 0001:00036c60       init_dsm_address_info      0000000180037c60 f   c16_hyd_hyb_2_opt_cont_test_new.obj
 0001:00036c70       chart_debug_initialization 0000000180037c70 f   c16_hyd_hyb_2_opt_cont_test_new.obj
 0001:000375e0       init_script_number_translation 00000001800385e0 f   c16_hyd_hyb_2_opt_cont_test_new.obj
 0001:000375f0       c16_sf_marshallOut         00000001800385f0 f   c16_hyd_hyb_2_opt_cont_test_new.obj
 0001:000376a0       c16_sf_marshallIn          00000001800386a0 f   c16_hyd_hyb_2_opt_cont_test_new.obj
 0001:00037740       c16_b_sf_marshallOut       0000000180038740 f   c16_hyd_hyb_2_opt_cont_test_new.obj
 0001:00037990       sf_opaque_initialize_c16_hyd_hyb_2_opt_cont_test_new 0000000180038990 f   c16_hyd_hyb_2_opt_cont_test_new.obj
 0001:000379d0       initialize_c16_hyd_hyb_2_opt_cont_test_new 00000001800389d0 f   c16_hyd_hyb_2_opt_cont_test_new.obj
 0001:00037a10       sf_opaque_enable_c16_hyd_hyb_2_opt_cont_test_new 0000000180038a10 f   c16_hyd_hyb_2_opt_cont_test_new.obj
 0001:00037a30       enable_c16_hyd_hyb_2_opt_cont_test_new 0000000180038a30 f   c16_hyd_hyb_2_opt_cont_test_new.obj
 0001:00037a60       sf_opaque_disable_c16_hyd_hyb_2_opt_cont_test_new 0000000180038a60 f   c16_hyd_hyb_2_opt_cont_test_new.obj
 0001:00037a80       disable_c16_hyd_hyb_2_opt_cont_test_new 0000000180038a80 f   c16_hyd_hyb_2_opt_cont_test_new.obj
 0001:00037ab0       sf_opaque_gateway_c16_hyd_hyb_2_opt_cont_test_new 0000000180038ab0 f   c16_hyd_hyb_2_opt_cont_test_new.obj
 0001:00037ad0       sf_c16_hyd_hyb_2_opt_cont_test_new 0000000180038ad0 f   c16_hyd_hyb_2_opt_cont_test_new.obj
 0001:000386b0       sf_opaque_get_sim_state_c16_hyd_hyb_2_opt_cont_test_new 00000001800396b0 f   c16_hyd_hyb_2_opt_cont_test_new.obj
 0001:000386d0       sf_opaque_set_sim_state_c16_hyd_hyb_2_opt_cont_test_new 00000001800396d0 f   c16_hyd_hyb_2_opt_cont_test_new.obj
 0001:00038700       sf_opaque_terminate_c16_hyd_hyb_2_opt_cont_test_new 0000000180039700 f   c16_hyd_hyb_2_opt_cont_test_new.obj
 0001:00038780       finalize_c16_hyd_hyb_2_opt_cont_test_new 0000000180039780 f   c16_hyd_hyb_2_opt_cont_test_new.obj
 0001:00038790       sf_opaque_init_subchart_simstructs 0000000180039790 f   c16_hyd_hyb_2_opt_cont_test_new.obj
 0001:000387b0       initSimStructsc16_hyd_hyb_2_opt_cont_test_new 00000001800397b0 f   c16_hyd_hyb_2_opt_cont_test_new.obj
 0001:000387c0       mdlRTW_c16_hyd_hyb_2_opt_cont_test_new 00000001800397c0 f   c16_hyd_hyb_2_opt_cont_test_new.obj
 0001:00038fe0       get_sim_state_c17_hyd_hyb_2_opt_cont_test_new 0000000180039fe0 f   c17_hyd_hyb_2_opt_cont_test_new.obj
 0001:00039170       sf_get_sim_state_info_c17_hyd_hyb_2_opt_cont_test_new 000000018003a170 f   c17_hyd_hyb_2_opt_cont_test_new.obj
 0001:00039350       set_sim_state_c17_hyd_hyb_2_opt_cont_test_new 000000018003a350 f   c17_hyd_hyb_2_opt_cont_test_new.obj
 0001:00039420       c17_update_debugger_state_c17_hyd_hyb_2_opt_cont_test_new 000000018003a420 f   c17_hyd_hyb_2_opt_cont_test_new.obj
 0001:00039430       c17_emlrt_marshallIn       000000018003a430 f   c17_hyd_hyb_2_opt_cont_test_new.obj
 0001:000394a0       c17_b_emlrt_marshallIn     000000018003a4a0 f   c17_hyd_hyb_2_opt_cont_test_new.obj
 0001:00039530       c17_d_emlrt_marshallIn     000000018003a530 f   c17_hyd_hyb_2_opt_cont_test_new.obj
 0001:00039590       c17_e_emlrt_marshallIn     000000018003a590 f   c17_hyd_hyb_2_opt_cont_test_new.obj
 0001:00039690       mdlProcessParameters_c17_hyd_hyb_2_opt_cont_test_new 000000018003a690 f   c17_hyd_hyb_2_opt_cont_test_new.obj
 0001:00039750       initialize_params_c17_hyd_hyb_2_opt_cont_test_new 000000018003a750 f   c17_hyd_hyb_2_opt_cont_test_new.obj
 0001:00039760       mdlSetWorkWidths_c17_hyd_hyb_2_opt_cont_test_new 000000018003a760 f   c17_hyd_hyb_2_opt_cont_test_new.obj
 0001:00039ae0       mdlStart_c17_hyd_hyb_2_opt_cont_test_new 000000018003aae0 f   c17_hyd_hyb_2_opt_cont_test_new.obj
 0001:00039ce0       init_dsm_address_info      000000018003ace0 f   c17_hyd_hyb_2_opt_cont_test_new.obj
 0001:00039cf0       chart_debug_initialization 000000018003acf0 f   c17_hyd_hyb_2_opt_cont_test_new.obj
 0001:0003a660       init_script_number_translation 000000018003b660 f   c17_hyd_hyb_2_opt_cont_test_new.obj
 0001:0003a670       c17_sf_marshallOut         000000018003b670 f   c17_hyd_hyb_2_opt_cont_test_new.obj
 0001:0003a720       c17_sf_marshallIn          000000018003b720 f   c17_hyd_hyb_2_opt_cont_test_new.obj
 0001:0003a7c0       c17_b_sf_marshallOut       000000018003b7c0 f   c17_hyd_hyb_2_opt_cont_test_new.obj
 0001:0003a9d0       sf_opaque_initialize_c17_hyd_hyb_2_opt_cont_test_new 000000018003b9d0 f   c17_hyd_hyb_2_opt_cont_test_new.obj
 0001:0003aa10       initialize_c17_hyd_hyb_2_opt_cont_test_new 000000018003ba10 f   c17_hyd_hyb_2_opt_cont_test_new.obj
 0001:0003aa50       sf_opaque_enable_c17_hyd_hyb_2_opt_cont_test_new 000000018003ba50 f   c17_hyd_hyb_2_opt_cont_test_new.obj
 0001:0003aa70       enable_c17_hyd_hyb_2_opt_cont_test_new 000000018003ba70 f   c17_hyd_hyb_2_opt_cont_test_new.obj
 0001:0003aaa0       sf_opaque_disable_c17_hyd_hyb_2_opt_cont_test_new 000000018003baa0 f   c17_hyd_hyb_2_opt_cont_test_new.obj
 0001:0003aac0       disable_c17_hyd_hyb_2_opt_cont_test_new 000000018003bac0 f   c17_hyd_hyb_2_opt_cont_test_new.obj
 0001:0003aaf0       sf_opaque_gateway_c17_hyd_hyb_2_opt_cont_test_new 000000018003baf0 f   c17_hyd_hyb_2_opt_cont_test_new.obj
 0001:0003ab10       sf_c17_hyd_hyb_2_opt_cont_test_new 000000018003bb10 f   c17_hyd_hyb_2_opt_cont_test_new.obj
 0001:0003b6e0       sf_opaque_get_sim_state_c17_hyd_hyb_2_opt_cont_test_new 000000018003c6e0 f   c17_hyd_hyb_2_opt_cont_test_new.obj
 0001:0003b700       sf_opaque_set_sim_state_c17_hyd_hyb_2_opt_cont_test_new 000000018003c700 f   c17_hyd_hyb_2_opt_cont_test_new.obj
 0001:0003b730       sf_opaque_terminate_c17_hyd_hyb_2_opt_cont_test_new 000000018003c730 f   c17_hyd_hyb_2_opt_cont_test_new.obj
 0001:0003b7b0       finalize_c17_hyd_hyb_2_opt_cont_test_new 000000018003c7b0 f   c17_hyd_hyb_2_opt_cont_test_new.obj
 0001:0003b7c0       sf_opaque_init_subchart_simstructs 000000018003c7c0 f   c17_hyd_hyb_2_opt_cont_test_new.obj
 0001:0003b7e0       initSimStructsc17_hyd_hyb_2_opt_cont_test_new 000000018003c7e0 f   c17_hyd_hyb_2_opt_cont_test_new.obj
 0001:0003b7f0       mdlRTW_c17_hyd_hyb_2_opt_cont_test_new 000000018003c7f0 f   c17_hyd_hyb_2_opt_cont_test_new.obj
 0001:0003c010       get_sim_state_c18_hyd_hyb_2_opt_cont_test_new 000000018003d010 f   c18_hyd_hyb_2_opt_cont_test_new.obj
 0001:0003c1a0       sf_get_sim_state_info_c18_hyd_hyb_2_opt_cont_test_new 000000018003d1a0 f   c18_hyd_hyb_2_opt_cont_test_new.obj
 0001:0003c380       set_sim_state_c18_hyd_hyb_2_opt_cont_test_new 000000018003d380 f   c18_hyd_hyb_2_opt_cont_test_new.obj
 0001:0003c450       c18_update_debugger_state_c18_hyd_hyb_2_opt_cont_test_new 000000018003d450 f   c18_hyd_hyb_2_opt_cont_test_new.obj
 0001:0003c460       c18_emlrt_marshallIn       000000018003d460 f   c18_hyd_hyb_2_opt_cont_test_new.obj
 0001:0003c4d0       c18_b_emlrt_marshallIn     000000018003d4d0 f   c18_hyd_hyb_2_opt_cont_test_new.obj
 0001:0003c560       c18_d_emlrt_marshallIn     000000018003d560 f   c18_hyd_hyb_2_opt_cont_test_new.obj
 0001:0003c5c0       c18_e_emlrt_marshallIn     000000018003d5c0 f   c18_hyd_hyb_2_opt_cont_test_new.obj
 0001:0003c6c0       mdlProcessParameters_c18_hyd_hyb_2_opt_cont_test_new 000000018003d6c0 f   c18_hyd_hyb_2_opt_cont_test_new.obj
 0001:0003c780       initialize_params_c18_hyd_hyb_2_opt_cont_test_new 000000018003d780 f   c18_hyd_hyb_2_opt_cont_test_new.obj
 0001:0003c790       mdlSetWorkWidths_c18_hyd_hyb_2_opt_cont_test_new 000000018003d790 f   c18_hyd_hyb_2_opt_cont_test_new.obj
 0001:0003cb10       mdlStart_c18_hyd_hyb_2_opt_cont_test_new 000000018003db10 f   c18_hyd_hyb_2_opt_cont_test_new.obj
 0001:0003cd10       init_dsm_address_info      000000018003dd10 f   c18_hyd_hyb_2_opt_cont_test_new.obj
 0001:0003cd20       chart_debug_initialization 000000018003dd20 f   c18_hyd_hyb_2_opt_cont_test_new.obj
 0001:0003d690       init_script_number_translation 000000018003e690 f   c18_hyd_hyb_2_opt_cont_test_new.obj
 0001:0003d6a0       c18_sf_marshallOut         000000018003e6a0 f   c18_hyd_hyb_2_opt_cont_test_new.obj
 0001:0003d750       c18_sf_marshallIn          000000018003e750 f   c18_hyd_hyb_2_opt_cont_test_new.obj
 0001:0003d7f0       c18_b_sf_marshallOut       000000018003e7f0 f   c18_hyd_hyb_2_opt_cont_test_new.obj
 0001:0003da00       sf_opaque_initialize_c18_hyd_hyb_2_opt_cont_test_new 000000018003ea00 f   c18_hyd_hyb_2_opt_cont_test_new.obj
 0001:0003da40       initialize_c18_hyd_hyb_2_opt_cont_test_new 000000018003ea40 f   c18_hyd_hyb_2_opt_cont_test_new.obj
 0001:0003da80       sf_opaque_enable_c18_hyd_hyb_2_opt_cont_test_new 000000018003ea80 f   c18_hyd_hyb_2_opt_cont_test_new.obj
 0001:0003daa0       enable_c18_hyd_hyb_2_opt_cont_test_new 000000018003eaa0 f   c18_hyd_hyb_2_opt_cont_test_new.obj
 0001:0003dad0       sf_opaque_disable_c18_hyd_hyb_2_opt_cont_test_new 000000018003ead0 f   c18_hyd_hyb_2_opt_cont_test_new.obj
 0001:0003daf0       disable_c18_hyd_hyb_2_opt_cont_test_new 000000018003eaf0 f   c18_hyd_hyb_2_opt_cont_test_new.obj
 0001:0003db20       sf_opaque_gateway_c18_hyd_hyb_2_opt_cont_test_new 000000018003eb20 f   c18_hyd_hyb_2_opt_cont_test_new.obj
 0001:0003db40       sf_c18_hyd_hyb_2_opt_cont_test_new 000000018003eb40 f   c18_hyd_hyb_2_opt_cont_test_new.obj
 0001:0003e740       sf_opaque_get_sim_state_c18_hyd_hyb_2_opt_cont_test_new 000000018003f740 f   c18_hyd_hyb_2_opt_cont_test_new.obj
 0001:0003e760       sf_opaque_set_sim_state_c18_hyd_hyb_2_opt_cont_test_new 000000018003f760 f   c18_hyd_hyb_2_opt_cont_test_new.obj
 0001:0003e790       sf_opaque_terminate_c18_hyd_hyb_2_opt_cont_test_new 000000018003f790 f   c18_hyd_hyb_2_opt_cont_test_new.obj
 0001:0003e810       finalize_c18_hyd_hyb_2_opt_cont_test_new 000000018003f810 f   c18_hyd_hyb_2_opt_cont_test_new.obj
 0001:0003e820       sf_opaque_init_subchart_simstructs 000000018003f820 f   c18_hyd_hyb_2_opt_cont_test_new.obj
 0001:0003e840       initSimStructsc18_hyd_hyb_2_opt_cont_test_new 000000018003f840 f   c18_hyd_hyb_2_opt_cont_test_new.obj
 0001:0003e850       mdlRTW_c18_hyd_hyb_2_opt_cont_test_new 000000018003f850 f   c18_hyd_hyb_2_opt_cont_test_new.obj
 0001:0003f070       get_sim_state_c19_hyd_hyb_2_opt_cont_test_new 0000000180040070 f   c19_hyd_hyb_2_opt_cont_test_new.obj
 0001:0003f200       sf_get_sim_state_info_c19_hyd_hyb_2_opt_cont_test_new 0000000180040200 f   c19_hyd_hyb_2_opt_cont_test_new.obj
 0001:0003f3e0       set_sim_state_c19_hyd_hyb_2_opt_cont_test_new 00000001800403e0 f   c19_hyd_hyb_2_opt_cont_test_new.obj
 0001:0003f4b0       c19_update_debugger_state_c19_hyd_hyb_2_opt_cont_test_new 00000001800404b0 f   c19_hyd_hyb_2_opt_cont_test_new.obj
 0001:0003f4c0       c19_emlrt_marshallIn       00000001800404c0 f   c19_hyd_hyb_2_opt_cont_test_new.obj
 0001:0003f530       c19_b_emlrt_marshallIn     0000000180040530 f   c19_hyd_hyb_2_opt_cont_test_new.obj
 0001:0003f5c0       c19_d_emlrt_marshallIn     00000001800405c0 f   c19_hyd_hyb_2_opt_cont_test_new.obj
 0001:0003f620       c19_e_emlrt_marshallIn     0000000180040620 f   c19_hyd_hyb_2_opt_cont_test_new.obj
 0001:0003f720       mdlProcessParameters_c19_hyd_hyb_2_opt_cont_test_new 0000000180040720 f   c19_hyd_hyb_2_opt_cont_test_new.obj
 0001:0003f7e0       initialize_params_c19_hyd_hyb_2_opt_cont_test_new 00000001800407e0 f   c19_hyd_hyb_2_opt_cont_test_new.obj
 0001:0003f7f0       mdlSetWorkWidths_c19_hyd_hyb_2_opt_cont_test_new 00000001800407f0 f   c19_hyd_hyb_2_opt_cont_test_new.obj
 0001:0003fb70       mdlStart_c19_hyd_hyb_2_opt_cont_test_new 0000000180040b70 f   c19_hyd_hyb_2_opt_cont_test_new.obj
 0001:0003fd70       init_dsm_address_info      0000000180040d70 f   c19_hyd_hyb_2_opt_cont_test_new.obj
 0001:0003fd80       chart_debug_initialization 0000000180040d80 f   c19_hyd_hyb_2_opt_cont_test_new.obj
 0001:000406f0       init_script_number_translation 00000001800416f0 f   c19_hyd_hyb_2_opt_cont_test_new.obj
 0001:00040700       c19_sf_marshallOut         0000000180041700 f   c19_hyd_hyb_2_opt_cont_test_new.obj
 0001:000407b0       c19_sf_marshallIn          00000001800417b0 f   c19_hyd_hyb_2_opt_cont_test_new.obj
 0001:00040850       c19_b_sf_marshallOut       0000000180041850 f   c19_hyd_hyb_2_opt_cont_test_new.obj
 0001:00040a80       sf_opaque_initialize_c19_hyd_hyb_2_opt_cont_test_new 0000000180041a80 f   c19_hyd_hyb_2_opt_cont_test_new.obj
 0001:00040ac0       initialize_c19_hyd_hyb_2_opt_cont_test_new 0000000180041ac0 f   c19_hyd_hyb_2_opt_cont_test_new.obj
 0001:00040b00       sf_opaque_enable_c19_hyd_hyb_2_opt_cont_test_new 0000000180041b00 f   c19_hyd_hyb_2_opt_cont_test_new.obj
 0001:00040b20       enable_c19_hyd_hyb_2_opt_cont_test_new 0000000180041b20 f   c19_hyd_hyb_2_opt_cont_test_new.obj
 0001:00040b50       sf_opaque_disable_c19_hyd_hyb_2_opt_cont_test_new 0000000180041b50 f   c19_hyd_hyb_2_opt_cont_test_new.obj
 0001:00040b70       disable_c19_hyd_hyb_2_opt_cont_test_new 0000000180041b70 f   c19_hyd_hyb_2_opt_cont_test_new.obj
 0001:00040ba0       sf_opaque_gateway_c19_hyd_hyb_2_opt_cont_test_new 0000000180041ba0 f   c19_hyd_hyb_2_opt_cont_test_new.obj
 0001:00040bc0       sf_c19_hyd_hyb_2_opt_cont_test_new 0000000180041bc0 f   c19_hyd_hyb_2_opt_cont_test_new.obj
 0001:00041790       sf_opaque_get_sim_state_c19_hyd_hyb_2_opt_cont_test_new 0000000180042790 f   c19_hyd_hyb_2_opt_cont_test_new.obj
 0001:000417b0       sf_opaque_set_sim_state_c19_hyd_hyb_2_opt_cont_test_new 00000001800427b0 f   c19_hyd_hyb_2_opt_cont_test_new.obj
 0001:000417e0       sf_opaque_terminate_c19_hyd_hyb_2_opt_cont_test_new 00000001800427e0 f   c19_hyd_hyb_2_opt_cont_test_new.obj
 0001:00041860       finalize_c19_hyd_hyb_2_opt_cont_test_new 0000000180042860 f   c19_hyd_hyb_2_opt_cont_test_new.obj
 0001:00041870       sf_opaque_init_subchart_simstructs 0000000180042870 f   c19_hyd_hyb_2_opt_cont_test_new.obj
 0001:00041890       initSimStructsc19_hyd_hyb_2_opt_cont_test_new 0000000180042890 f   c19_hyd_hyb_2_opt_cont_test_new.obj
 0001:000418a0       mdlRTW_c19_hyd_hyb_2_opt_cont_test_new 00000001800428a0 f   c19_hyd_hyb_2_opt_cont_test_new.obj
 0001:000420c0       get_sim_state_c20_hyd_hyb_2_opt_cont_test_new 00000001800430c0 f   c20_hyd_hyb_2_opt_cont_test_new.obj
 0001:00042250       sf_get_sim_state_info_c20_hyd_hyb_2_opt_cont_test_new 0000000180043250 f   c20_hyd_hyb_2_opt_cont_test_new.obj
 0001:00042430       set_sim_state_c20_hyd_hyb_2_opt_cont_test_new 0000000180043430 f   c20_hyd_hyb_2_opt_cont_test_new.obj
 0001:00042500       c20_update_debugger_state_c20_hyd_hyb_2_opt_cont_test_new 0000000180043500 f   c20_hyd_hyb_2_opt_cont_test_new.obj
 0001:00042510       c20_emlrt_marshallIn       0000000180043510 f   c20_hyd_hyb_2_opt_cont_test_new.obj
 0001:00042580       c20_b_emlrt_marshallIn     0000000180043580 f   c20_hyd_hyb_2_opt_cont_test_new.obj
 0001:00042610       c20_d_emlrt_marshallIn     0000000180043610 f   c20_hyd_hyb_2_opt_cont_test_new.obj
 0001:00042670       c20_e_emlrt_marshallIn     0000000180043670 f   c20_hyd_hyb_2_opt_cont_test_new.obj
 0001:00042770       mdlProcessParameters_c20_hyd_hyb_2_opt_cont_test_new 0000000180043770 f   c20_hyd_hyb_2_opt_cont_test_new.obj
 0001:00042830       initialize_params_c20_hyd_hyb_2_opt_cont_test_new 0000000180043830 f   c20_hyd_hyb_2_opt_cont_test_new.obj
 0001:00042840       mdlSetWorkWidths_c20_hyd_hyb_2_opt_cont_test_new 0000000180043840 f   c20_hyd_hyb_2_opt_cont_test_new.obj
 0001:00042bc0       mdlStart_c20_hyd_hyb_2_opt_cont_test_new 0000000180043bc0 f   c20_hyd_hyb_2_opt_cont_test_new.obj
 0001:00042dc0       init_dsm_address_info      0000000180043dc0 f   c20_hyd_hyb_2_opt_cont_test_new.obj
 0001:00042dd0       chart_debug_initialization 0000000180043dd0 f   c20_hyd_hyb_2_opt_cont_test_new.obj
 0001:00043740       init_script_number_translation 0000000180044740 f   c20_hyd_hyb_2_opt_cont_test_new.obj
 0001:00043750       c20_sf_marshallOut         0000000180044750 f   c20_hyd_hyb_2_opt_cont_test_new.obj
 0001:00043800       c20_sf_marshallIn          0000000180044800 f   c20_hyd_hyb_2_opt_cont_test_new.obj
 0001:000438a0       c20_b_sf_marshallOut       00000001800448a0 f   c20_hyd_hyb_2_opt_cont_test_new.obj
 0001:00043ad0       sf_opaque_initialize_c20_hyd_hyb_2_opt_cont_test_new 0000000180044ad0 f   c20_hyd_hyb_2_opt_cont_test_new.obj
 0001:00043b10       initialize_c20_hyd_hyb_2_opt_cont_test_new 0000000180044b10 f   c20_hyd_hyb_2_opt_cont_test_new.obj
 0001:00043b50       sf_opaque_enable_c20_hyd_hyb_2_opt_cont_test_new 0000000180044b50 f   c20_hyd_hyb_2_opt_cont_test_new.obj
 0001:00043b70       enable_c20_hyd_hyb_2_opt_cont_test_new 0000000180044b70 f   c20_hyd_hyb_2_opt_cont_test_new.obj
 0001:00043ba0       sf_opaque_disable_c20_hyd_hyb_2_opt_cont_test_new 0000000180044ba0 f   c20_hyd_hyb_2_opt_cont_test_new.obj
 0001:00043bc0       disable_c20_hyd_hyb_2_opt_cont_test_new 0000000180044bc0 f   c20_hyd_hyb_2_opt_cont_test_new.obj
 0001:00043bf0       sf_opaque_gateway_c20_hyd_hyb_2_opt_cont_test_new 0000000180044bf0 f   c20_hyd_hyb_2_opt_cont_test_new.obj
 0001:00043c10       sf_c20_hyd_hyb_2_opt_cont_test_new 0000000180044c10 f   c20_hyd_hyb_2_opt_cont_test_new.obj
 0001:00044810       sf_opaque_get_sim_state_c20_hyd_hyb_2_opt_cont_test_new 0000000180045810 f   c20_hyd_hyb_2_opt_cont_test_new.obj
 0001:00044830       sf_opaque_set_sim_state_c20_hyd_hyb_2_opt_cont_test_new 0000000180045830 f   c20_hyd_hyb_2_opt_cont_test_new.obj
 0001:00044860       sf_opaque_terminate_c20_hyd_hyb_2_opt_cont_test_new 0000000180045860 f   c20_hyd_hyb_2_opt_cont_test_new.obj
 0001:000448e0       finalize_c20_hyd_hyb_2_opt_cont_test_new 00000001800458e0 f   c20_hyd_hyb_2_opt_cont_test_new.obj
 0001:000448f0       sf_opaque_init_subchart_simstructs 00000001800458f0 f   c20_hyd_hyb_2_opt_cont_test_new.obj
 0001:00044910       initSimStructsc20_hyd_hyb_2_opt_cont_test_new 0000000180045910 f   c20_hyd_hyb_2_opt_cont_test_new.obj
 0001:00044920       mdlRTW_c20_hyd_hyb_2_opt_cont_test_new 0000000180045920 f   c20_hyd_hyb_2_opt_cont_test_new.obj
 0001:00045140       get_sim_state_c21_hyd_hyb_2_opt_cont_test_new 0000000180046140 f   c21_hyd_hyb_2_opt_cont_test_new.obj
 0001:000452d0       sf_get_sim_state_info_c21_hyd_hyb_2_opt_cont_test_new 00000001800462d0 f   c21_hyd_hyb_2_opt_cont_test_new.obj
 0001:000454b0       set_sim_state_c21_hyd_hyb_2_opt_cont_test_new 00000001800464b0 f   c21_hyd_hyb_2_opt_cont_test_new.obj
 0001:00045580       c21_update_debugger_state_c21_hyd_hyb_2_opt_cont_test_new 0000000180046580 f   c21_hyd_hyb_2_opt_cont_test_new.obj
 0001:00045590       c21_emlrt_marshallIn       0000000180046590 f   c21_hyd_hyb_2_opt_cont_test_new.obj
 0001:00045600       c21_b_emlrt_marshallIn     0000000180046600 f   c21_hyd_hyb_2_opt_cont_test_new.obj
 0001:00045690       c21_d_emlrt_marshallIn     0000000180046690 f   c21_hyd_hyb_2_opt_cont_test_new.obj
 0001:000456f0       c21_e_emlrt_marshallIn     00000001800466f0 f   c21_hyd_hyb_2_opt_cont_test_new.obj
 0001:000457f0       mdlProcessParameters_c21_hyd_hyb_2_opt_cont_test_new 00000001800467f0 f   c21_hyd_hyb_2_opt_cont_test_new.obj
 0001:000458b0       initialize_params_c21_hyd_hyb_2_opt_cont_test_new 00000001800468b0 f   c21_hyd_hyb_2_opt_cont_test_new.obj
 0001:000458c0       mdlSetWorkWidths_c21_hyd_hyb_2_opt_cont_test_new 00000001800468c0 f   c21_hyd_hyb_2_opt_cont_test_new.obj
 0001:00045c40       mdlStart_c21_hyd_hyb_2_opt_cont_test_new 0000000180046c40 f   c21_hyd_hyb_2_opt_cont_test_new.obj
 0001:00045e40       init_dsm_address_info      0000000180046e40 f   c21_hyd_hyb_2_opt_cont_test_new.obj
 0001:00045e50       chart_debug_initialization 0000000180046e50 f   c21_hyd_hyb_2_opt_cont_test_new.obj
 0001:000467c0       init_script_number_translation 00000001800477c0 f   c21_hyd_hyb_2_opt_cont_test_new.obj
 0001:000467d0       c21_sf_marshallOut         00000001800477d0 f   c21_hyd_hyb_2_opt_cont_test_new.obj
 0001:00046880       c21_sf_marshallIn          0000000180047880 f   c21_hyd_hyb_2_opt_cont_test_new.obj
 0001:00046920       c21_b_sf_marshallOut       0000000180047920 f   c21_hyd_hyb_2_opt_cont_test_new.obj
 0001:00046b60       sf_opaque_initialize_c21_hyd_hyb_2_opt_cont_test_new 0000000180047b60 f   c21_hyd_hyb_2_opt_cont_test_new.obj
 0001:00046ba0       initialize_c21_hyd_hyb_2_opt_cont_test_new 0000000180047ba0 f   c21_hyd_hyb_2_opt_cont_test_new.obj
 0001:00046be0       sf_opaque_enable_c21_hyd_hyb_2_opt_cont_test_new 0000000180047be0 f   c21_hyd_hyb_2_opt_cont_test_new.obj
 0001:00046c00       enable_c21_hyd_hyb_2_opt_cont_test_new 0000000180047c00 f   c21_hyd_hyb_2_opt_cont_test_new.obj
 0001:00046c30       sf_opaque_disable_c21_hyd_hyb_2_opt_cont_test_new 0000000180047c30 f   c21_hyd_hyb_2_opt_cont_test_new.obj
 0001:00046c50       disable_c21_hyd_hyb_2_opt_cont_test_new 0000000180047c50 f   c21_hyd_hyb_2_opt_cont_test_new.obj
 0001:00046c80       sf_opaque_gateway_c21_hyd_hyb_2_opt_cont_test_new 0000000180047c80 f   c21_hyd_hyb_2_opt_cont_test_new.obj
 0001:00046ca0       sf_c21_hyd_hyb_2_opt_cont_test_new 0000000180047ca0 f   c21_hyd_hyb_2_opt_cont_test_new.obj
 0001:00047880       sf_opaque_get_sim_state_c21_hyd_hyb_2_opt_cont_test_new 0000000180048880 f   c21_hyd_hyb_2_opt_cont_test_new.obj
 0001:000478a0       sf_opaque_set_sim_state_c21_hyd_hyb_2_opt_cont_test_new 00000001800488a0 f   c21_hyd_hyb_2_opt_cont_test_new.obj
 0001:000478d0       sf_opaque_terminate_c21_hyd_hyb_2_opt_cont_test_new 00000001800488d0 f   c21_hyd_hyb_2_opt_cont_test_new.obj
 0001:00047950       finalize_c21_hyd_hyb_2_opt_cont_test_new 0000000180048950 f   c21_hyd_hyb_2_opt_cont_test_new.obj
 0001:00047960       sf_opaque_init_subchart_simstructs 0000000180048960 f   c21_hyd_hyb_2_opt_cont_test_new.obj
 0001:00047980       initSimStructsc21_hyd_hyb_2_opt_cont_test_new 0000000180048980 f   c21_hyd_hyb_2_opt_cont_test_new.obj
 0001:00047990       mdlRTW_c21_hyd_hyb_2_opt_cont_test_new 0000000180048990 f   c21_hyd_hyb_2_opt_cont_test_new.obj
 0001:000481b0       get_sim_state_c22_hyd_hyb_2_opt_cont_test_new 00000001800491b0 f   c22_hyd_hyb_2_opt_cont_test_new.obj
 0001:00048340       sf_get_sim_state_info_c22_hyd_hyb_2_opt_cont_test_new 0000000180049340 f   c22_hyd_hyb_2_opt_cont_test_new.obj
 0001:00048520       set_sim_state_c22_hyd_hyb_2_opt_cont_test_new 0000000180049520 f   c22_hyd_hyb_2_opt_cont_test_new.obj
 0001:000485f0       c22_update_debugger_state_c22_hyd_hyb_2_opt_cont_test_new 00000001800495f0 f   c22_hyd_hyb_2_opt_cont_test_new.obj
 0001:00048600       c22_emlrt_marshallIn       0000000180049600 f   c22_hyd_hyb_2_opt_cont_test_new.obj
 0001:00048670       c22_b_emlrt_marshallIn     0000000180049670 f   c22_hyd_hyb_2_opt_cont_test_new.obj
 0001:00048700       c22_d_emlrt_marshallIn     0000000180049700 f   c22_hyd_hyb_2_opt_cont_test_new.obj
 0001:00048760       c22_e_emlrt_marshallIn     0000000180049760 f   c22_hyd_hyb_2_opt_cont_test_new.obj
 0001:00048860       mdlProcessParameters_c22_hyd_hyb_2_opt_cont_test_new 0000000180049860 f   c22_hyd_hyb_2_opt_cont_test_new.obj
 0001:00048920       initialize_params_c22_hyd_hyb_2_opt_cont_test_new 0000000180049920 f   c22_hyd_hyb_2_opt_cont_test_new.obj
 0001:00048930       mdlSetWorkWidths_c22_hyd_hyb_2_opt_cont_test_new 0000000180049930 f   c22_hyd_hyb_2_opt_cont_test_new.obj
 0001:00048cb0       mdlStart_c22_hyd_hyb_2_opt_cont_test_new 0000000180049cb0 f   c22_hyd_hyb_2_opt_cont_test_new.obj
 0001:00048eb0       init_dsm_address_info      0000000180049eb0 f   c22_hyd_hyb_2_opt_cont_test_new.obj
 0001:00048ec0       chart_debug_initialization 0000000180049ec0 f   c22_hyd_hyb_2_opt_cont_test_new.obj
 0001:00049830       init_script_number_translation 000000018004a830 f   c22_hyd_hyb_2_opt_cont_test_new.obj
 0001:00049840       c22_sf_marshallOut         000000018004a840 f   c22_hyd_hyb_2_opt_cont_test_new.obj
 0001:000498f0       c22_sf_marshallIn          000000018004a8f0 f   c22_hyd_hyb_2_opt_cont_test_new.obj
 0001:00049990       c22_b_sf_marshallOut       000000018004a990 f   c22_hyd_hyb_2_opt_cont_test_new.obj
 0001:00049be0       sf_opaque_initialize_c22_hyd_hyb_2_opt_cont_test_new 000000018004abe0 f   c22_hyd_hyb_2_opt_cont_test_new.obj
 0001:00049c20       initialize_c22_hyd_hyb_2_opt_cont_test_new 000000018004ac20 f   c22_hyd_hyb_2_opt_cont_test_new.obj
 0001:00049c60       sf_opaque_enable_c22_hyd_hyb_2_opt_cont_test_new 000000018004ac60 f   c22_hyd_hyb_2_opt_cont_test_new.obj
 0001:00049c80       enable_c22_hyd_hyb_2_opt_cont_test_new 000000018004ac80 f   c22_hyd_hyb_2_opt_cont_test_new.obj
 0001:00049cb0       sf_opaque_disable_c22_hyd_hyb_2_opt_cont_test_new 000000018004acb0 f   c22_hyd_hyb_2_opt_cont_test_new.obj
 0001:00049cd0       disable_c22_hyd_hyb_2_opt_cont_test_new 000000018004acd0 f   c22_hyd_hyb_2_opt_cont_test_new.obj
 0001:00049d00       sf_opaque_gateway_c22_hyd_hyb_2_opt_cont_test_new 000000018004ad00 f   c22_hyd_hyb_2_opt_cont_test_new.obj
 0001:00049d20       sf_c22_hyd_hyb_2_opt_cont_test_new 000000018004ad20 f   c22_hyd_hyb_2_opt_cont_test_new.obj
 0001:0004a920       sf_opaque_get_sim_state_c22_hyd_hyb_2_opt_cont_test_new 000000018004b920 f   c22_hyd_hyb_2_opt_cont_test_new.obj
 0001:0004a940       sf_opaque_set_sim_state_c22_hyd_hyb_2_opt_cont_test_new 000000018004b940 f   c22_hyd_hyb_2_opt_cont_test_new.obj
 0001:0004a970       sf_opaque_terminate_c22_hyd_hyb_2_opt_cont_test_new 000000018004b970 f   c22_hyd_hyb_2_opt_cont_test_new.obj
 0001:0004a9f0       finalize_c22_hyd_hyb_2_opt_cont_test_new 000000018004b9f0 f   c22_hyd_hyb_2_opt_cont_test_new.obj
 0001:0004aa00       sf_opaque_init_subchart_simstructs 000000018004ba00 f   c22_hyd_hyb_2_opt_cont_test_new.obj
 0001:0004aa20       initSimStructsc22_hyd_hyb_2_opt_cont_test_new 000000018004ba20 f   c22_hyd_hyb_2_opt_cont_test_new.obj
 0001:0004aa30       mdlRTW_c22_hyd_hyb_2_opt_cont_test_new 000000018004ba30 f   c22_hyd_hyb_2_opt_cont_test_new.obj
 0001:0004b250       get_sim_state_c23_hyd_hyb_2_opt_cont_test_new 000000018004c250 f   c23_hyd_hyb_2_opt_cont_test_new.obj
 0001:0004b3e0       sf_get_sim_state_info_c23_hyd_hyb_2_opt_cont_test_new 000000018004c3e0 f   c23_hyd_hyb_2_opt_cont_test_new.obj
 0001:0004b5c0       set_sim_state_c23_hyd_hyb_2_opt_cont_test_new 000000018004c5c0 f   c23_hyd_hyb_2_opt_cont_test_new.obj
 0001:0004b690       c23_update_debugger_state_c23_hyd_hyb_2_opt_cont_test_new 000000018004c690 f   c23_hyd_hyb_2_opt_cont_test_new.obj
 0001:0004b6a0       c23_emlrt_marshallIn       000000018004c6a0 f   c23_hyd_hyb_2_opt_cont_test_new.obj
 0001:0004b710       c23_b_emlrt_marshallIn     000000018004c710 f   c23_hyd_hyb_2_opt_cont_test_new.obj
 0001:0004b7a0       c23_d_emlrt_marshallIn     000000018004c7a0 f   c23_hyd_hyb_2_opt_cont_test_new.obj
 0001:0004b800       c23_e_emlrt_marshallIn     000000018004c800 f   c23_hyd_hyb_2_opt_cont_test_new.obj
 0001:0004b900       mdlProcessParameters_c23_hyd_hyb_2_opt_cont_test_new 000000018004c900 f   c23_hyd_hyb_2_opt_cont_test_new.obj
 0001:0004b9c0       initialize_params_c23_hyd_hyb_2_opt_cont_test_new 000000018004c9c0 f   c23_hyd_hyb_2_opt_cont_test_new.obj
 0001:0004b9d0       mdlSetWorkWidths_c23_hyd_hyb_2_opt_cont_test_new 000000018004c9d0 f   c23_hyd_hyb_2_opt_cont_test_new.obj
 0001:0004bd50       mdlStart_c23_hyd_hyb_2_opt_cont_test_new 000000018004cd50 f   c23_hyd_hyb_2_opt_cont_test_new.obj
 0001:0004bf50       init_dsm_address_info      000000018004cf50 f   c23_hyd_hyb_2_opt_cont_test_new.obj
 0001:0004bf60       chart_debug_initialization 000000018004cf60 f   c23_hyd_hyb_2_opt_cont_test_new.obj
 0001:0004c8d0       init_script_number_translation 000000018004d8d0 f   c23_hyd_hyb_2_opt_cont_test_new.obj
 0001:0004c8e0       c23_sf_marshallOut         000000018004d8e0 f   c23_hyd_hyb_2_opt_cont_test_new.obj
 0001:0004c990       c23_sf_marshallIn          000000018004d990 f   c23_hyd_hyb_2_opt_cont_test_new.obj
 0001:0004ca30       c23_b_sf_marshallOut       000000018004da30 f   c23_hyd_hyb_2_opt_cont_test_new.obj
 0001:0004cc50       sf_opaque_initialize_c23_hyd_hyb_2_opt_cont_test_new 000000018004dc50 f   c23_hyd_hyb_2_opt_cont_test_new.obj
 0001:0004cc90       initialize_c23_hyd_hyb_2_opt_cont_test_new 000000018004dc90 f   c23_hyd_hyb_2_opt_cont_test_new.obj
 0001:0004ccd0       sf_opaque_enable_c23_hyd_hyb_2_opt_cont_test_new 000000018004dcd0 f   c23_hyd_hyb_2_opt_cont_test_new.obj
 0001:0004ccf0       enable_c23_hyd_hyb_2_opt_cont_test_new 000000018004dcf0 f   c23_hyd_hyb_2_opt_cont_test_new.obj
 0001:0004cd20       sf_opaque_disable_c23_hyd_hyb_2_opt_cont_test_new 000000018004dd20 f   c23_hyd_hyb_2_opt_cont_test_new.obj
 0001:0004cd40       disable_c23_hyd_hyb_2_opt_cont_test_new 000000018004dd40 f   c23_hyd_hyb_2_opt_cont_test_new.obj
 0001:0004cd70       sf_opaque_gateway_c23_hyd_hyb_2_opt_cont_test_new 000000018004dd70 f   c23_hyd_hyb_2_opt_cont_test_new.obj
 0001:0004cd90       sf_c23_hyd_hyb_2_opt_cont_test_new 000000018004dd90 f   c23_hyd_hyb_2_opt_cont_test_new.obj
 0001:0004d990       sf_opaque_get_sim_state_c23_hyd_hyb_2_opt_cont_test_new 000000018004e990 f   c23_hyd_hyb_2_opt_cont_test_new.obj
 0001:0004d9b0       sf_opaque_set_sim_state_c23_hyd_hyb_2_opt_cont_test_new 000000018004e9b0 f   c23_hyd_hyb_2_opt_cont_test_new.obj
 0001:0004d9e0       sf_opaque_terminate_c23_hyd_hyb_2_opt_cont_test_new 000000018004e9e0 f   c23_hyd_hyb_2_opt_cont_test_new.obj
 0001:0004da60       finalize_c23_hyd_hyb_2_opt_cont_test_new 000000018004ea60 f   c23_hyd_hyb_2_opt_cont_test_new.obj
 0001:0004da70       sf_opaque_init_subchart_simstructs 000000018004ea70 f   c23_hyd_hyb_2_opt_cont_test_new.obj
 0001:0004da90       initSimStructsc23_hyd_hyb_2_opt_cont_test_new 000000018004ea90 f   c23_hyd_hyb_2_opt_cont_test_new.obj
 0001:0004daa0       mdlRTW_c23_hyd_hyb_2_opt_cont_test_new 000000018004eaa0 f   c23_hyd_hyb_2_opt_cont_test_new.obj
 0001:0004ed30       get_sim_state_c24_hyd_hyb_2_opt_cont_test_new 000000018004fd30 f   c24_hyd_hyb_2_opt_cont_test_new.obj
 0001:0004ef80       sf_get_sim_state_info_c24_hyd_hyb_2_opt_cont_test_new 000000018004ff80 f   c24_hyd_hyb_2_opt_cont_test_new.obj
 0001:0004f160       set_sim_state_c24_hyd_hyb_2_opt_cont_test_new 0000000180050160 f   c24_hyd_hyb_2_opt_cont_test_new.obj
 0001:0004f280       c24_update_debugger_state_c24_hyd_hyb_2_opt_cont_test_new 0000000180050280 f   c24_hyd_hyb_2_opt_cont_test_new.obj
 0001:0004f290       c24_emlrt_marshallIn       0000000180050290 f   c24_hyd_hyb_2_opt_cont_test_new.obj
 0001:0004f300       c24_b_emlrt_marshallIn     0000000180050300 f   c24_hyd_hyb_2_opt_cont_test_new.obj
 0001:0004f390       c24_d_emlrt_marshallIn     0000000180050390 f   c24_hyd_hyb_2_opt_cont_test_new.obj
 0001:0004f3f0       c24_e_emlrt_marshallIn     00000001800503f0 f   c24_hyd_hyb_2_opt_cont_test_new.obj
 0001:0004f4f0       mdlProcessParameters_c24_hyd_hyb_2_opt_cont_test_new 00000001800504f0 f   c24_hyd_hyb_2_opt_cont_test_new.obj
 0001:0004f5b0       initialize_params_c24_hyd_hyb_2_opt_cont_test_new 00000001800505b0 f   c24_hyd_hyb_2_opt_cont_test_new.obj
 0001:0004f5c0       mdlSetWorkWidths_c24_hyd_hyb_2_opt_cont_test_new 00000001800505c0 f   c24_hyd_hyb_2_opt_cont_test_new.obj
 0001:0004f960       mdlStart_c24_hyd_hyb_2_opt_cont_test_new 0000000180050960 f   c24_hyd_hyb_2_opt_cont_test_new.obj
 0001:0004fb60       init_dsm_address_info      0000000180050b60 f   c24_hyd_hyb_2_opt_cont_test_new.obj
 0001:0004fb70       chart_debug_initialization 0000000180050b70 f   c24_hyd_hyb_2_opt_cont_test_new.obj
 0001:00050600       init_script_number_translation 0000000180051600 f   c24_hyd_hyb_2_opt_cont_test_new.obj
 0001:00050610       c24_sf_marshallOut         0000000180051610 f   c24_hyd_hyb_2_opt_cont_test_new.obj
 0001:000506c0       c24_sf_marshallIn          00000001800516c0 f   c24_hyd_hyb_2_opt_cont_test_new.obj
 0001:00050760       sf_opaque_initialize_c24_hyd_hyb_2_opt_cont_test_new 0000000180051760 f   c24_hyd_hyb_2_opt_cont_test_new.obj
 0001:000507a0       initialize_c24_hyd_hyb_2_opt_cont_test_new 00000001800517a0 f   c24_hyd_hyb_2_opt_cont_test_new.obj
 0001:000507e0       sf_opaque_enable_c24_hyd_hyb_2_opt_cont_test_new 00000001800517e0 f   c24_hyd_hyb_2_opt_cont_test_new.obj
 0001:00050800       enable_c24_hyd_hyb_2_opt_cont_test_new 0000000180051800 f   c24_hyd_hyb_2_opt_cont_test_new.obj
 0001:00050830       sf_opaque_disable_c24_hyd_hyb_2_opt_cont_test_new 0000000180051830 f   c24_hyd_hyb_2_opt_cont_test_new.obj
 0001:00050850       disable_c24_hyd_hyb_2_opt_cont_test_new 0000000180051850 f   c24_hyd_hyb_2_opt_cont_test_new.obj
 0001:00050880       sf_opaque_gateway_c24_hyd_hyb_2_opt_cont_test_new 0000000180051880 f   c24_hyd_hyb_2_opt_cont_test_new.obj
 0001:000508a0       sf_c24_hyd_hyb_2_opt_cont_test_new 00000001800518a0 f   c24_hyd_hyb_2_opt_cont_test_new.obj
 0001:00051230       c24_eml_scalar_eg          0000000180052230 f   c24_hyd_hyb_2_opt_cont_test_new.obj
 0001:00051240       sf_opaque_get_sim_state_c24_hyd_hyb_2_opt_cont_test_new 0000000180052240 f   c24_hyd_hyb_2_opt_cont_test_new.obj
 0001:00051260       sf_opaque_set_sim_state_c24_hyd_hyb_2_opt_cont_test_new 0000000180052260 f   c24_hyd_hyb_2_opt_cont_test_new.obj
 0001:00051290       sf_opaque_terminate_c24_hyd_hyb_2_opt_cont_test_new 0000000180052290 f   c24_hyd_hyb_2_opt_cont_test_new.obj
 0001:00051310       finalize_c24_hyd_hyb_2_opt_cont_test_new 0000000180052310 f   c24_hyd_hyb_2_opt_cont_test_new.obj
 0001:00051320       sf_opaque_init_subchart_simstructs 0000000180052320 f   c24_hyd_hyb_2_opt_cont_test_new.obj
 0001:00051340       initSimStructsc24_hyd_hyb_2_opt_cont_test_new 0000000180052340 f   c24_hyd_hyb_2_opt_cont_test_new.obj
 0001:00051350       mdlRTW_c24_hyd_hyb_2_opt_cont_test_new 0000000180052350 f   c24_hyd_hyb_2_opt_cont_test_new.obj
 0001:000521e0       get_sim_state_c25_hyd_hyb_2_opt_cont_test_new 00000001800531e0 f   c25_hyd_hyb_2_opt_cont_test_new.obj
 0001:00052440       sf_get_sim_state_info_c25_hyd_hyb_2_opt_cont_test_new 0000000180053440 f   c25_hyd_hyb_2_opt_cont_test_new.obj
 0001:00052620       set_sim_state_c25_hyd_hyb_2_opt_cont_test_new 0000000180053620 f   c25_hyd_hyb_2_opt_cont_test_new.obj
 0001:00052740       c25_update_debugger_state_c25_hyd_hyb_2_opt_cont_test_new 0000000180053740 f   c25_hyd_hyb_2_opt_cont_test_new.obj
 0001:00052750       c25_emlrt_marshallIn       0000000180053750 f   c25_hyd_hyb_2_opt_cont_test_new.obj
 0001:000527c0       c25_b_emlrt_marshallIn     00000001800537c0 f   c25_hyd_hyb_2_opt_cont_test_new.obj
 0001:00052850       c25_d_emlrt_marshallIn     0000000180053850 f   c25_hyd_hyb_2_opt_cont_test_new.obj
 0001:000528b0       c25_e_emlrt_marshallIn     00000001800538b0 f   c25_hyd_hyb_2_opt_cont_test_new.obj
 0001:000529b0       mdlProcessParameters_c25_hyd_hyb_2_opt_cont_test_new 00000001800539b0 f   c25_hyd_hyb_2_opt_cont_test_new.obj
 0001:00052a70       initialize_params_c25_hyd_hyb_2_opt_cont_test_new 0000000180053a70 f   c25_hyd_hyb_2_opt_cont_test_new.obj
 0001:00052a80       mdlSetWorkWidths_c25_hyd_hyb_2_opt_cont_test_new 0000000180053a80 f   c25_hyd_hyb_2_opt_cont_test_new.obj
 0001:00052dd0       mdlStart_c25_hyd_hyb_2_opt_cont_test_new 0000000180053dd0 f   c25_hyd_hyb_2_opt_cont_test_new.obj
 0001:00052fd0       init_dsm_address_info      0000000180053fd0 f   c25_hyd_hyb_2_opt_cont_test_new.obj
 0001:00052fe0       chart_debug_initialization 0000000180053fe0 f   c25_hyd_hyb_2_opt_cont_test_new.obj
 0001:00053860       init_script_number_translation 0000000180054860 f   c25_hyd_hyb_2_opt_cont_test_new.obj
 0001:00053870       c25_sf_marshallOut         0000000180054870 f   c25_hyd_hyb_2_opt_cont_test_new.obj
 0001:00053920       c25_sf_marshallIn          0000000180054920 f   c25_hyd_hyb_2_opt_cont_test_new.obj
 0001:000539c0       sf_opaque_initialize_c25_hyd_hyb_2_opt_cont_test_new 00000001800549c0 f   c25_hyd_hyb_2_opt_cont_test_new.obj
 0001:00053a00       initialize_c25_hyd_hyb_2_opt_cont_test_new 0000000180054a00 f   c25_hyd_hyb_2_opt_cont_test_new.obj
 0001:00053a40       sf_opaque_enable_c25_hyd_hyb_2_opt_cont_test_new 0000000180054a40 f   c25_hyd_hyb_2_opt_cont_test_new.obj
 0001:00053a60       enable_c25_hyd_hyb_2_opt_cont_test_new 0000000180054a60 f   c25_hyd_hyb_2_opt_cont_test_new.obj
 0001:00053a90       sf_opaque_disable_c25_hyd_hyb_2_opt_cont_test_new 0000000180054a90 f   c25_hyd_hyb_2_opt_cont_test_new.obj
 0001:00053ab0       disable_c25_hyd_hyb_2_opt_cont_test_new 0000000180054ab0 f   c25_hyd_hyb_2_opt_cont_test_new.obj
 0001:00053ae0       sf_opaque_gateway_c25_hyd_hyb_2_opt_cont_test_new 0000000180054ae0 f   c25_hyd_hyb_2_opt_cont_test_new.obj
 0001:00053b00       sf_c25_hyd_hyb_2_opt_cont_test_new 0000000180054b00 f   c25_hyd_hyb_2_opt_cont_test_new.obj
 0001:00054410       sf_opaque_get_sim_state_c25_hyd_hyb_2_opt_cont_test_new 0000000180055410 f   c25_hyd_hyb_2_opt_cont_test_new.obj
 0001:00054430       sf_opaque_set_sim_state_c25_hyd_hyb_2_opt_cont_test_new 0000000180055430 f   c25_hyd_hyb_2_opt_cont_test_new.obj
 0001:00054460       sf_opaque_terminate_c25_hyd_hyb_2_opt_cont_test_new 0000000180055460 f   c25_hyd_hyb_2_opt_cont_test_new.obj
 0001:000544e0       finalize_c25_hyd_hyb_2_opt_cont_test_new 00000001800554e0 f   c25_hyd_hyb_2_opt_cont_test_new.obj
 0001:000544f0       sf_opaque_init_subchart_simstructs 00000001800554f0 f   c25_hyd_hyb_2_opt_cont_test_new.obj
 0001:00054510       initSimStructsc25_hyd_hyb_2_opt_cont_test_new 0000000180055510 f   c25_hyd_hyb_2_opt_cont_test_new.obj
 0001:00054520       mdlRTW_c25_hyd_hyb_2_opt_cont_test_new 0000000180055520 f   c25_hyd_hyb_2_opt_cont_test_new.obj
 0001:00055330       get_sim_state_c26_hyd_hyb_2_opt_cont_test_new 0000000180056330 f   c26_hyd_hyb_2_opt_cont_test_new.obj
 0001:00055580       sf_get_sim_state_info_c26_hyd_hyb_2_opt_cont_test_new 0000000180056580 f   c26_hyd_hyb_2_opt_cont_test_new.obj
 0001:00055760       set_sim_state_c26_hyd_hyb_2_opt_cont_test_new 0000000180056760 f   c26_hyd_hyb_2_opt_cont_test_new.obj
 0001:00055880       c26_update_debugger_state_c26_hyd_hyb_2_opt_cont_test_new 0000000180056880 f   c26_hyd_hyb_2_opt_cont_test_new.obj
 0001:00055890       c26_emlrt_marshallIn       0000000180056890 f   c26_hyd_hyb_2_opt_cont_test_new.obj
 0001:00055900       c26_b_emlrt_marshallIn     0000000180056900 f   c26_hyd_hyb_2_opt_cont_test_new.obj
 0001:00055990       c26_d_emlrt_marshallIn     0000000180056990 f   c26_hyd_hyb_2_opt_cont_test_new.obj
 0001:000559f0       c26_e_emlrt_marshallIn     00000001800569f0 f   c26_hyd_hyb_2_opt_cont_test_new.obj
 0001:00055af0       mdlProcessParameters_c26_hyd_hyb_2_opt_cont_test_new 0000000180056af0 f   c26_hyd_hyb_2_opt_cont_test_new.obj
 0001:00055bb0       initialize_params_c26_hyd_hyb_2_opt_cont_test_new 0000000180056bb0 f   c26_hyd_hyb_2_opt_cont_test_new.obj
 0001:00055bc0       mdlSetWorkWidths_c26_hyd_hyb_2_opt_cont_test_new 0000000180056bc0 f   c26_hyd_hyb_2_opt_cont_test_new.obj
 0001:00055f10       mdlStart_c26_hyd_hyb_2_opt_cont_test_new 0000000180056f10 f   c26_hyd_hyb_2_opt_cont_test_new.obj
 0001:00056110       init_dsm_address_info      0000000180057110 f   c26_hyd_hyb_2_opt_cont_test_new.obj
 0001:00056120       chart_debug_initialization 0000000180057120 f   c26_hyd_hyb_2_opt_cont_test_new.obj
 0001:000569a0       init_script_number_translation 00000001800579a0 f   c26_hyd_hyb_2_opt_cont_test_new.obj
 0001:000569b0       c26_sf_marshallOut         00000001800579b0 f   c26_hyd_hyb_2_opt_cont_test_new.obj
 0001:00056a60       c26_sf_marshallIn          0000000180057a60 f   c26_hyd_hyb_2_opt_cont_test_new.obj
 0001:00056b00       sf_opaque_initialize_c26_hyd_hyb_2_opt_cont_test_new 0000000180057b00 f   c26_hyd_hyb_2_opt_cont_test_new.obj
 0001:00056b40       initialize_c26_hyd_hyb_2_opt_cont_test_new 0000000180057b40 f   c26_hyd_hyb_2_opt_cont_test_new.obj
 0001:00056b80       sf_opaque_enable_c26_hyd_hyb_2_opt_cont_test_new 0000000180057b80 f   c26_hyd_hyb_2_opt_cont_test_new.obj
 0001:00056ba0       enable_c26_hyd_hyb_2_opt_cont_test_new 0000000180057ba0 f   c26_hyd_hyb_2_opt_cont_test_new.obj
 0001:00056bd0       sf_opaque_disable_c26_hyd_hyb_2_opt_cont_test_new 0000000180057bd0 f   c26_hyd_hyb_2_opt_cont_test_new.obj
 0001:00056bf0       disable_c26_hyd_hyb_2_opt_cont_test_new 0000000180057bf0 f   c26_hyd_hyb_2_opt_cont_test_new.obj
 0001:00056c20       sf_opaque_gateway_c26_hyd_hyb_2_opt_cont_test_new 0000000180057c20 f   c26_hyd_hyb_2_opt_cont_test_new.obj
 0001:00056c40       sf_c26_hyd_hyb_2_opt_cont_test_new 0000000180057c40 f   c26_hyd_hyb_2_opt_cont_test_new.obj
 0001:00057540       sf_opaque_get_sim_state_c26_hyd_hyb_2_opt_cont_test_new 0000000180058540 f   c26_hyd_hyb_2_opt_cont_test_new.obj
 0001:00057560       sf_opaque_set_sim_state_c26_hyd_hyb_2_opt_cont_test_new 0000000180058560 f   c26_hyd_hyb_2_opt_cont_test_new.obj
 0001:00057590       sf_opaque_terminate_c26_hyd_hyb_2_opt_cont_test_new 0000000180058590 f   c26_hyd_hyb_2_opt_cont_test_new.obj
 0001:00057610       finalize_c26_hyd_hyb_2_opt_cont_test_new 0000000180058610 f   c26_hyd_hyb_2_opt_cont_test_new.obj
 0001:00057620       sf_opaque_init_subchart_simstructs 0000000180058620 f   c26_hyd_hyb_2_opt_cont_test_new.obj
 0001:00057640       initSimStructsc26_hyd_hyb_2_opt_cont_test_new 0000000180058640 f   c26_hyd_hyb_2_opt_cont_test_new.obj
 0001:00057650       mdlRTW_c26_hyd_hyb_2_opt_cont_test_new 0000000180058650 f   c26_hyd_hyb_2_opt_cont_test_new.obj
 0001:000584c0       get_sim_state_c27_hyd_hyb_2_opt_cont_test_new 00000001800594c0 f   c27_hyd_hyb_2_opt_cont_test_new.obj
 0001:00058710       sf_get_sim_state_info_c27_hyd_hyb_2_opt_cont_test_new 0000000180059710 f   c27_hyd_hyb_2_opt_cont_test_new.obj
 0001:000588f0       set_sim_state_c27_hyd_hyb_2_opt_cont_test_new 00000001800598f0 f   c27_hyd_hyb_2_opt_cont_test_new.obj
 0001:00058a10       c27_update_debugger_state_c27_hyd_hyb_2_opt_cont_test_new 0000000180059a10 f   c27_hyd_hyb_2_opt_cont_test_new.obj
 0001:00058a20       c27_emlrt_marshallIn       0000000180059a20 f   c27_hyd_hyb_2_opt_cont_test_new.obj
 0001:00058a90       c27_b_emlrt_marshallIn     0000000180059a90 f   c27_hyd_hyb_2_opt_cont_test_new.obj
 0001:00058b20       c27_d_emlrt_marshallIn     0000000180059b20 f   c27_hyd_hyb_2_opt_cont_test_new.obj
 0001:00058b80       c27_e_emlrt_marshallIn     0000000180059b80 f   c27_hyd_hyb_2_opt_cont_test_new.obj
 0001:00058c80       mdlProcessParameters_c27_hyd_hyb_2_opt_cont_test_new 0000000180059c80 f   c27_hyd_hyb_2_opt_cont_test_new.obj
 0001:00058d40       initialize_params_c27_hyd_hyb_2_opt_cont_test_new 0000000180059d40 f   c27_hyd_hyb_2_opt_cont_test_new.obj
 0001:00058d50       mdlSetWorkWidths_c27_hyd_hyb_2_opt_cont_test_new 0000000180059d50 f   c27_hyd_hyb_2_opt_cont_test_new.obj
 0001:000590a0       mdlStart_c27_hyd_hyb_2_opt_cont_test_new 000000018005a0a0 f   c27_hyd_hyb_2_opt_cont_test_new.obj
 0001:000592a0       init_dsm_address_info      000000018005a2a0 f   c27_hyd_hyb_2_opt_cont_test_new.obj
 0001:000592b0       chart_debug_initialization 000000018005a2b0 f   c27_hyd_hyb_2_opt_cont_test_new.obj
 0001:00059b30       init_script_number_translation 000000018005ab30 f   c27_hyd_hyb_2_opt_cont_test_new.obj
 0001:00059b40       c27_sf_marshallOut         000000018005ab40 f   c27_hyd_hyb_2_opt_cont_test_new.obj
 0001:00059bf0       c27_sf_marshallIn          000000018005abf0 f   c27_hyd_hyb_2_opt_cont_test_new.obj
 0001:00059c90       sf_opaque_initialize_c27_hyd_hyb_2_opt_cont_test_new 000000018005ac90 f   c27_hyd_hyb_2_opt_cont_test_new.obj
 0001:00059cd0       initialize_c27_hyd_hyb_2_opt_cont_test_new 000000018005acd0 f   c27_hyd_hyb_2_opt_cont_test_new.obj
 0001:00059d10       sf_opaque_enable_c27_hyd_hyb_2_opt_cont_test_new 000000018005ad10 f   c27_hyd_hyb_2_opt_cont_test_new.obj
 0001:00059d30       enable_c27_hyd_hyb_2_opt_cont_test_new 000000018005ad30 f   c27_hyd_hyb_2_opt_cont_test_new.obj
 0001:00059d60       sf_opaque_disable_c27_hyd_hyb_2_opt_cont_test_new 000000018005ad60 f   c27_hyd_hyb_2_opt_cont_test_new.obj
 0001:00059d80       disable_c27_hyd_hyb_2_opt_cont_test_new 000000018005ad80 f   c27_hyd_hyb_2_opt_cont_test_new.obj
 0001:00059db0       sf_opaque_gateway_c27_hyd_hyb_2_opt_cont_test_new 000000018005adb0 f   c27_hyd_hyb_2_opt_cont_test_new.obj
 0001:00059dd0       sf_c27_hyd_hyb_2_opt_cont_test_new 000000018005add0 f   c27_hyd_hyb_2_opt_cont_test_new.obj
 0001:0005a6d0       sf_opaque_get_sim_state_c27_hyd_hyb_2_opt_cont_test_new 000000018005b6d0 f   c27_hyd_hyb_2_opt_cont_test_new.obj
 0001:0005a6f0       sf_opaque_set_sim_state_c27_hyd_hyb_2_opt_cont_test_new 000000018005b6f0 f   c27_hyd_hyb_2_opt_cont_test_new.obj
 0001:0005a720       sf_opaque_terminate_c27_hyd_hyb_2_opt_cont_test_new 000000018005b720 f   c27_hyd_hyb_2_opt_cont_test_new.obj
 0001:0005a7a0       finalize_c27_hyd_hyb_2_opt_cont_test_new 000000018005b7a0 f   c27_hyd_hyb_2_opt_cont_test_new.obj
 0001:0005a7b0       sf_opaque_init_subchart_simstructs 000000018005b7b0 f   c27_hyd_hyb_2_opt_cont_test_new.obj
 0001:0005a7d0       initSimStructsc27_hyd_hyb_2_opt_cont_test_new 000000018005b7d0 f   c27_hyd_hyb_2_opt_cont_test_new.obj
 0001:0005a7e0       mdlRTW_c27_hyd_hyb_2_opt_cont_test_new 000000018005b7e0 f   c27_hyd_hyb_2_opt_cont_test_new.obj
 0001:0005b000       get_sim_state_c28_hyd_hyb_2_opt_cont_test_new 000000018005c000 f   c28_hyd_hyb_2_opt_cont_test_new.obj
 0001:0005b190       sf_get_sim_state_info_c28_hyd_hyb_2_opt_cont_test_new 000000018005c190 f   c28_hyd_hyb_2_opt_cont_test_new.obj
 0001:0005b370       set_sim_state_c28_hyd_hyb_2_opt_cont_test_new 000000018005c370 f   c28_hyd_hyb_2_opt_cont_test_new.obj
 0001:0005b440       c28_update_debugger_state_c28_hyd_hyb_2_opt_cont_test_new 000000018005c440 f   c28_hyd_hyb_2_opt_cont_test_new.obj
 0001:0005b450       c28_emlrt_marshallIn       000000018005c450 f   c28_hyd_hyb_2_opt_cont_test_new.obj
 0001:0005b4c0       c28_b_emlrt_marshallIn     000000018005c4c0 f   c28_hyd_hyb_2_opt_cont_test_new.obj
 0001:0005b550       c28_d_emlrt_marshallIn     000000018005c550 f   c28_hyd_hyb_2_opt_cont_test_new.obj
 0001:0005b5b0       c28_e_emlrt_marshallIn     000000018005c5b0 f   c28_hyd_hyb_2_opt_cont_test_new.obj
 0001:0005b6b0       mdlProcessParameters_c28_hyd_hyb_2_opt_cont_test_new 000000018005c6b0 f   c28_hyd_hyb_2_opt_cont_test_new.obj
 0001:0005b770       initialize_params_c28_hyd_hyb_2_opt_cont_test_new 000000018005c770 f   c28_hyd_hyb_2_opt_cont_test_new.obj
 0001:0005b780       mdlSetWorkWidths_c28_hyd_hyb_2_opt_cont_test_new 000000018005c780 f   c28_hyd_hyb_2_opt_cont_test_new.obj
 0001:0005bb00       mdlStart_c28_hyd_hyb_2_opt_cont_test_new 000000018005cb00 f   c28_hyd_hyb_2_opt_cont_test_new.obj
 0001:0005bd00       init_dsm_address_info      000000018005cd00 f   c28_hyd_hyb_2_opt_cont_test_new.obj
 0001:0005bd10       chart_debug_initialization 000000018005cd10 f   c28_hyd_hyb_2_opt_cont_test_new.obj
 0001:0005c680       init_script_number_translation 000000018005d680 f   c28_hyd_hyb_2_opt_cont_test_new.obj
 0001:0005c690       c28_sf_marshallOut         000000018005d690 f   c28_hyd_hyb_2_opt_cont_test_new.obj
 0001:0005c740       c28_sf_marshallIn          000000018005d740 f   c28_hyd_hyb_2_opt_cont_test_new.obj
 0001:0005c7e0       c28_b_sf_marshallOut       000000018005d7e0 f   c28_hyd_hyb_2_opt_cont_test_new.obj
 0001:0005c9f0       sf_opaque_initialize_c28_hyd_hyb_2_opt_cont_test_new 000000018005d9f0 f   c28_hyd_hyb_2_opt_cont_test_new.obj
 0001:0005ca30       initialize_c28_hyd_hyb_2_opt_cont_test_new 000000018005da30 f   c28_hyd_hyb_2_opt_cont_test_new.obj
 0001:0005ca70       sf_opaque_enable_c28_hyd_hyb_2_opt_cont_test_new 000000018005da70 f   c28_hyd_hyb_2_opt_cont_test_new.obj
 0001:0005ca90       enable_c28_hyd_hyb_2_opt_cont_test_new 000000018005da90 f   c28_hyd_hyb_2_opt_cont_test_new.obj
 0001:0005cac0       sf_opaque_disable_c28_hyd_hyb_2_opt_cont_test_new 000000018005dac0 f   c28_hyd_hyb_2_opt_cont_test_new.obj
 0001:0005cae0       disable_c28_hyd_hyb_2_opt_cont_test_new 000000018005dae0 f   c28_hyd_hyb_2_opt_cont_test_new.obj
 0001:0005cb10       sf_opaque_gateway_c28_hyd_hyb_2_opt_cont_test_new 000000018005db10 f   c28_hyd_hyb_2_opt_cont_test_new.obj
 0001:0005cb30       sf_c28_hyd_hyb_2_opt_cont_test_new 000000018005db30 f   c28_hyd_hyb_2_opt_cont_test_new.obj
 0001:0005d720       sf_opaque_get_sim_state_c28_hyd_hyb_2_opt_cont_test_new 000000018005e720 f   c28_hyd_hyb_2_opt_cont_test_new.obj
 0001:0005d740       sf_opaque_set_sim_state_c28_hyd_hyb_2_opt_cont_test_new 000000018005e740 f   c28_hyd_hyb_2_opt_cont_test_new.obj
 0001:0005d770       sf_opaque_terminate_c28_hyd_hyb_2_opt_cont_test_new 000000018005e770 f   c28_hyd_hyb_2_opt_cont_test_new.obj
 0001:0005d7f0       finalize_c28_hyd_hyb_2_opt_cont_test_new 000000018005e7f0 f   c28_hyd_hyb_2_opt_cont_test_new.obj
 0001:0005d800       sf_opaque_init_subchart_simstructs 000000018005e800 f   c28_hyd_hyb_2_opt_cont_test_new.obj
 0001:0005d820       initSimStructsc28_hyd_hyb_2_opt_cont_test_new 000000018005e820 f   c28_hyd_hyb_2_opt_cont_test_new.obj
 0001:0005d830       mdlRTW_c28_hyd_hyb_2_opt_cont_test_new 000000018005e830 f   c28_hyd_hyb_2_opt_cont_test_new.obj
 0001:0005e050       get_sim_state_c29_hyd_hyb_2_opt_cont_test_new 000000018005f050 f   c29_hyd_hyb_2_opt_cont_test_new.obj
 0001:0005e1e0       sf_get_sim_state_info_c29_hyd_hyb_2_opt_cont_test_new 000000018005f1e0 f   c29_hyd_hyb_2_opt_cont_test_new.obj
 0001:0005e3c0       set_sim_state_c29_hyd_hyb_2_opt_cont_test_new 000000018005f3c0 f   c29_hyd_hyb_2_opt_cont_test_new.obj
 0001:0005e490       c29_update_debugger_state_c29_hyd_hyb_2_opt_cont_test_new 000000018005f490 f   c29_hyd_hyb_2_opt_cont_test_new.obj
 0001:0005e4a0       c29_emlrt_marshallIn       000000018005f4a0 f   c29_hyd_hyb_2_opt_cont_test_new.obj
 0001:0005e510       c29_b_emlrt_marshallIn     000000018005f510 f   c29_hyd_hyb_2_opt_cont_test_new.obj
 0001:0005e5a0       c29_d_emlrt_marshallIn     000000018005f5a0 f   c29_hyd_hyb_2_opt_cont_test_new.obj
 0001:0005e600       c29_e_emlrt_marshallIn     000000018005f600 f   c29_hyd_hyb_2_opt_cont_test_new.obj
 0001:0005e700       mdlProcessParameters_c29_hyd_hyb_2_opt_cont_test_new 000000018005f700 f   c29_hyd_hyb_2_opt_cont_test_new.obj
 0001:0005e7c0       initialize_params_c29_hyd_hyb_2_opt_cont_test_new 000000018005f7c0 f   c29_hyd_hyb_2_opt_cont_test_new.obj
 0001:0005e7d0       mdlSetWorkWidths_c29_hyd_hyb_2_opt_cont_test_new 000000018005f7d0 f   c29_hyd_hyb_2_opt_cont_test_new.obj
 0001:0005eb50       mdlStart_c29_hyd_hyb_2_opt_cont_test_new 000000018005fb50 f   c29_hyd_hyb_2_opt_cont_test_new.obj
 0001:0005ed50       init_dsm_address_info      000000018005fd50 f   c29_hyd_hyb_2_opt_cont_test_new.obj
 0001:0005ed60       chart_debug_initialization 000000018005fd60 f   c29_hyd_hyb_2_opt_cont_test_new.obj
 0001:0005f6d0       init_script_number_translation 00000001800606d0 f   c29_hyd_hyb_2_opt_cont_test_new.obj
 0001:0005f6e0       c29_sf_marshallOut         00000001800606e0 f   c29_hyd_hyb_2_opt_cont_test_new.obj
 0001:0005f790       c29_sf_marshallIn          0000000180060790 f   c29_hyd_hyb_2_opt_cont_test_new.obj
 0001:0005f830       c29_b_sf_marshallOut       0000000180060830 f   c29_hyd_hyb_2_opt_cont_test_new.obj
 0001:0005fa80       sf_opaque_initialize_c29_hyd_hyb_2_opt_cont_test_new 0000000180060a80 f   c29_hyd_hyb_2_opt_cont_test_new.obj
 0001:0005fac0       initialize_c29_hyd_hyb_2_opt_cont_test_new 0000000180060ac0 f   c29_hyd_hyb_2_opt_cont_test_new.obj
 0001:0005fb00       sf_opaque_enable_c29_hyd_hyb_2_opt_cont_test_new 0000000180060b00 f   c29_hyd_hyb_2_opt_cont_test_new.obj
 0001:0005fb20       enable_c29_hyd_hyb_2_opt_cont_test_new 0000000180060b20 f   c29_hyd_hyb_2_opt_cont_test_new.obj
 0001:0005fb50       sf_opaque_disable_c29_hyd_hyb_2_opt_cont_test_new 0000000180060b50 f   c29_hyd_hyb_2_opt_cont_test_new.obj
 0001:0005fb70       disable_c29_hyd_hyb_2_opt_cont_test_new 0000000180060b70 f   c29_hyd_hyb_2_opt_cont_test_new.obj
 0001:0005fba0       sf_opaque_gateway_c29_hyd_hyb_2_opt_cont_test_new 0000000180060ba0 f   c29_hyd_hyb_2_opt_cont_test_new.obj
 0001:0005fbc0       sf_c29_hyd_hyb_2_opt_cont_test_new 0000000180060bc0 f   c29_hyd_hyb_2_opt_cont_test_new.obj
 0001:000607b0       sf_opaque_get_sim_state_c29_hyd_hyb_2_opt_cont_test_new 00000001800617b0 f   c29_hyd_hyb_2_opt_cont_test_new.obj
 0001:000607d0       sf_opaque_set_sim_state_c29_hyd_hyb_2_opt_cont_test_new 00000001800617d0 f   c29_hyd_hyb_2_opt_cont_test_new.obj
 0001:00060800       sf_opaque_terminate_c29_hyd_hyb_2_opt_cont_test_new 0000000180061800 f   c29_hyd_hyb_2_opt_cont_test_new.obj
 0001:00060880       finalize_c29_hyd_hyb_2_opt_cont_test_new 0000000180061880 f   c29_hyd_hyb_2_opt_cont_test_new.obj
 0001:00060890       sf_opaque_init_subchart_simstructs 0000000180061890 f   c29_hyd_hyb_2_opt_cont_test_new.obj
 0001:000608b0       initSimStructsc29_hyd_hyb_2_opt_cont_test_new 00000001800618b0 f   c29_hyd_hyb_2_opt_cont_test_new.obj
 0001:000608c0       mdlRTW_c29_hyd_hyb_2_opt_cont_test_new 00000001800618c0 f   c29_hyd_hyb_2_opt_cont_test_new.obj
 0001:000610e0       get_sim_state_c30_hyd_hyb_2_opt_cont_test_new 00000001800620e0 f   c30_hyd_hyb_2_opt_cont_test_new.obj
 0001:00061270       sf_get_sim_state_info_c30_hyd_hyb_2_opt_cont_test_new 0000000180062270 f   c30_hyd_hyb_2_opt_cont_test_new.obj
 0001:00061450       set_sim_state_c30_hyd_hyb_2_opt_cont_test_new 0000000180062450 f   c30_hyd_hyb_2_opt_cont_test_new.obj
 0001:00061520       c30_update_debugger_state_c30_hyd_hyb_2_opt_cont_test_new 0000000180062520 f   c30_hyd_hyb_2_opt_cont_test_new.obj
 0001:00061530       c30_emlrt_marshallIn       0000000180062530 f   c30_hyd_hyb_2_opt_cont_test_new.obj
 0001:000615a0       c30_b_emlrt_marshallIn     00000001800625a0 f   c30_hyd_hyb_2_opt_cont_test_new.obj
 0001:00061630       c30_d_emlrt_marshallIn     0000000180062630 f   c30_hyd_hyb_2_opt_cont_test_new.obj
 0001:00061690       c30_e_emlrt_marshallIn     0000000180062690 f   c30_hyd_hyb_2_opt_cont_test_new.obj
 0001:00061790       mdlProcessParameters_c30_hyd_hyb_2_opt_cont_test_new 0000000180062790 f   c30_hyd_hyb_2_opt_cont_test_new.obj
 0001:00061850       initialize_params_c30_hyd_hyb_2_opt_cont_test_new 0000000180062850 f   c30_hyd_hyb_2_opt_cont_test_new.obj
 0001:00061860       mdlSetWorkWidths_c30_hyd_hyb_2_opt_cont_test_new 0000000180062860 f   c30_hyd_hyb_2_opt_cont_test_new.obj
 0001:00061be0       mdlStart_c30_hyd_hyb_2_opt_cont_test_new 0000000180062be0 f   c30_hyd_hyb_2_opt_cont_test_new.obj
 0001:00061de0       init_dsm_address_info      0000000180062de0 f   c30_hyd_hyb_2_opt_cont_test_new.obj
 0001:00061df0       chart_debug_initialization 0000000180062df0 f   c30_hyd_hyb_2_opt_cont_test_new.obj
 0001:00062760       init_script_number_translation 0000000180063760 f   c30_hyd_hyb_2_opt_cont_test_new.obj
 0001:00062770       c30_sf_marshallOut         0000000180063770 f   c30_hyd_hyb_2_opt_cont_test_new.obj
 0001:00062820       c30_sf_marshallIn          0000000180063820 f   c30_hyd_hyb_2_opt_cont_test_new.obj
 0001:000628c0       c30_b_sf_marshallOut       00000001800638c0 f   c30_hyd_hyb_2_opt_cont_test_new.obj
 0001:00062ad0       sf_opaque_initialize_c30_hyd_hyb_2_opt_cont_test_new 0000000180063ad0 f   c30_hyd_hyb_2_opt_cont_test_new.obj
 0001:00062b10       initialize_c30_hyd_hyb_2_opt_cont_test_new 0000000180063b10 f   c30_hyd_hyb_2_opt_cont_test_new.obj
 0001:00062b50       sf_opaque_enable_c30_hyd_hyb_2_opt_cont_test_new 0000000180063b50 f   c30_hyd_hyb_2_opt_cont_test_new.obj
 0001:00062b70       enable_c30_hyd_hyb_2_opt_cont_test_new 0000000180063b70 f   c30_hyd_hyb_2_opt_cont_test_new.obj
 0001:00062ba0       sf_opaque_disable_c30_hyd_hyb_2_opt_cont_test_new 0000000180063ba0 f   c30_hyd_hyb_2_opt_cont_test_new.obj
 0001:00062bc0       disable_c30_hyd_hyb_2_opt_cont_test_new 0000000180063bc0 f   c30_hyd_hyb_2_opt_cont_test_new.obj
 0001:00062bf0       sf_opaque_gateway_c30_hyd_hyb_2_opt_cont_test_new 0000000180063bf0 f   c30_hyd_hyb_2_opt_cont_test_new.obj
 0001:00062c10       sf_c30_hyd_hyb_2_opt_cont_test_new 0000000180063c10 f   c30_hyd_hyb_2_opt_cont_test_new.obj
 0001:00063820       sf_opaque_get_sim_state_c30_hyd_hyb_2_opt_cont_test_new 0000000180064820 f   c30_hyd_hyb_2_opt_cont_test_new.obj
 0001:00063840       sf_opaque_set_sim_state_c30_hyd_hyb_2_opt_cont_test_new 0000000180064840 f   c30_hyd_hyb_2_opt_cont_test_new.obj
 0001:00063870       sf_opaque_terminate_c30_hyd_hyb_2_opt_cont_test_new 0000000180064870 f   c30_hyd_hyb_2_opt_cont_test_new.obj
 0001:000638f0       finalize_c30_hyd_hyb_2_opt_cont_test_new 00000001800648f0 f   c30_hyd_hyb_2_opt_cont_test_new.obj
 0001:00063900       sf_opaque_init_subchart_simstructs 0000000180064900 f   c30_hyd_hyb_2_opt_cont_test_new.obj
 0001:00063920       initSimStructsc30_hyd_hyb_2_opt_cont_test_new 0000000180064920 f   c30_hyd_hyb_2_opt_cont_test_new.obj
 0001:00063930       mdlRTW_c30_hyd_hyb_2_opt_cont_test_new 0000000180064930 f   c30_hyd_hyb_2_opt_cont_test_new.obj
 0001:00064150       get_sim_state_c31_hyd_hyb_2_opt_cont_test_new 0000000180065150 f   c31_hyd_hyb_2_opt_cont_test_new.obj
 0001:000642e0       sf_get_sim_state_info_c31_hyd_hyb_2_opt_cont_test_new 00000001800652e0 f   c31_hyd_hyb_2_opt_cont_test_new.obj
 0001:000644c0       set_sim_state_c31_hyd_hyb_2_opt_cont_test_new 00000001800654c0 f   c31_hyd_hyb_2_opt_cont_test_new.obj
 0001:00064590       c31_update_debugger_state_c31_hyd_hyb_2_opt_cont_test_new 0000000180065590 f   c31_hyd_hyb_2_opt_cont_test_new.obj
 0001:000645a0       c31_emlrt_marshallIn       00000001800655a0 f   c31_hyd_hyb_2_opt_cont_test_new.obj
 0001:00064610       c31_b_emlrt_marshallIn     0000000180065610 f   c31_hyd_hyb_2_opt_cont_test_new.obj
 0001:000646a0       c31_d_emlrt_marshallIn     00000001800656a0 f   c31_hyd_hyb_2_opt_cont_test_new.obj
 0001:00064700       c31_e_emlrt_marshallIn     0000000180065700 f   c31_hyd_hyb_2_opt_cont_test_new.obj
 0001:00064800       mdlProcessParameters_c31_hyd_hyb_2_opt_cont_test_new 0000000180065800 f   c31_hyd_hyb_2_opt_cont_test_new.obj
 0001:000648c0       initialize_params_c31_hyd_hyb_2_opt_cont_test_new 00000001800658c0 f   c31_hyd_hyb_2_opt_cont_test_new.obj
 0001:000648d0       mdlSetWorkWidths_c31_hyd_hyb_2_opt_cont_test_new 00000001800658d0 f   c31_hyd_hyb_2_opt_cont_test_new.obj
 0001:00064c50       mdlStart_c31_hyd_hyb_2_opt_cont_test_new 0000000180065c50 f   c31_hyd_hyb_2_opt_cont_test_new.obj
 0001:00064e50       init_dsm_address_info      0000000180065e50 f   c31_hyd_hyb_2_opt_cont_test_new.obj
 0001:00064e60       chart_debug_initialization 0000000180065e60 f   c31_hyd_hyb_2_opt_cont_test_new.obj
 0001:000657d0       init_script_number_translation 00000001800667d0 f   c31_hyd_hyb_2_opt_cont_test_new.obj
 0001:000657e0       c31_sf_marshallOut         00000001800667e0 f   c31_hyd_hyb_2_opt_cont_test_new.obj
 0001:00065890       c31_sf_marshallIn          0000000180066890 f   c31_hyd_hyb_2_opt_cont_test_new.obj
 0001:00065930       c31_b_sf_marshallOut       0000000180066930 f   c31_hyd_hyb_2_opt_cont_test_new.obj
 0001:00065b50       sf_opaque_initialize_c31_hyd_hyb_2_opt_cont_test_new 0000000180066b50 f   c31_hyd_hyb_2_opt_cont_test_new.obj
 0001:00065b90       initialize_c31_hyd_hyb_2_opt_cont_test_new 0000000180066b90 f   c31_hyd_hyb_2_opt_cont_test_new.obj
 0001:00065bd0       sf_opaque_enable_c31_hyd_hyb_2_opt_cont_test_new 0000000180066bd0 f   c31_hyd_hyb_2_opt_cont_test_new.obj
 0001:00065bf0       enable_c31_hyd_hyb_2_opt_cont_test_new 0000000180066bf0 f   c31_hyd_hyb_2_opt_cont_test_new.obj
 0001:00065c20       sf_opaque_disable_c31_hyd_hyb_2_opt_cont_test_new 0000000180066c20 f   c31_hyd_hyb_2_opt_cont_test_new.obj
 0001:00065c40       disable_c31_hyd_hyb_2_opt_cont_test_new 0000000180066c40 f   c31_hyd_hyb_2_opt_cont_test_new.obj
 0001:00065c70       sf_opaque_gateway_c31_hyd_hyb_2_opt_cont_test_new 0000000180066c70 f   c31_hyd_hyb_2_opt_cont_test_new.obj
 0001:00065c90       sf_c31_hyd_hyb_2_opt_cont_test_new 0000000180066c90 f   c31_hyd_hyb_2_opt_cont_test_new.obj
 0001:00066860       sf_opaque_get_sim_state_c31_hyd_hyb_2_opt_cont_test_new 0000000180067860 f   c31_hyd_hyb_2_opt_cont_test_new.obj
 0001:00066880       sf_opaque_set_sim_state_c31_hyd_hyb_2_opt_cont_test_new 0000000180067880 f   c31_hyd_hyb_2_opt_cont_test_new.obj
 0001:000668b0       sf_opaque_terminate_c31_hyd_hyb_2_opt_cont_test_new 00000001800678b0 f   c31_hyd_hyb_2_opt_cont_test_new.obj
 0001:00066930       finalize_c31_hyd_hyb_2_opt_cont_test_new 0000000180067930 f   c31_hyd_hyb_2_opt_cont_test_new.obj
 0001:00066940       sf_opaque_init_subchart_simstructs 0000000180067940 f   c31_hyd_hyb_2_opt_cont_test_new.obj
 0001:00066960       initSimStructsc31_hyd_hyb_2_opt_cont_test_new 0000000180067960 f   c31_hyd_hyb_2_opt_cont_test_new.obj
 0001:00066970       mdlRTW_c31_hyd_hyb_2_opt_cont_test_new 0000000180067970 f   c31_hyd_hyb_2_opt_cont_test_new.obj
 0001:00067760       get_sim_state_c32_hyd_hyb_2_opt_cont_test_new 0000000180068760 f   c32_hyd_hyb_2_opt_cont_test_new.obj
 0001:000679b0       sf_get_sim_state_info_c32_hyd_hyb_2_opt_cont_test_new 00000001800689b0 f   c32_hyd_hyb_2_opt_cont_test_new.obj
 0001:00067b90       set_sim_state_c32_hyd_hyb_2_opt_cont_test_new 0000000180068b90 f   c32_hyd_hyb_2_opt_cont_test_new.obj
 0001:00067cb0       c32_update_debugger_state_c32_hyd_hyb_2_opt_cont_test_new 0000000180068cb0 f   c32_hyd_hyb_2_opt_cont_test_new.obj
 0001:00067cc0       c32_emlrt_marshallIn       0000000180068cc0 f   c32_hyd_hyb_2_opt_cont_test_new.obj
 0001:00067d30       c32_b_emlrt_marshallIn     0000000180068d30 f   c32_hyd_hyb_2_opt_cont_test_new.obj
 0001:00067dc0       c32_d_emlrt_marshallIn     0000000180068dc0 f   c32_hyd_hyb_2_opt_cont_test_new.obj
 0001:00067e20       c32_e_emlrt_marshallIn     0000000180068e20 f   c32_hyd_hyb_2_opt_cont_test_new.obj
 0001:00067f20       mdlProcessParameters_c32_hyd_hyb_2_opt_cont_test_new 0000000180068f20 f   c32_hyd_hyb_2_opt_cont_test_new.obj
 0001:00067fe0       initialize_params_c32_hyd_hyb_2_opt_cont_test_new 0000000180068fe0 f   c32_hyd_hyb_2_opt_cont_test_new.obj
 0001:00067ff0       mdlSetWorkWidths_c32_hyd_hyb_2_opt_cont_test_new 0000000180068ff0 f   c32_hyd_hyb_2_opt_cont_test_new.obj
 0001:00068340       mdlStart_c32_hyd_hyb_2_opt_cont_test_new 0000000180069340 f   c32_hyd_hyb_2_opt_cont_test_new.obj
 0001:00068540       init_dsm_address_info      0000000180069540 f   c32_hyd_hyb_2_opt_cont_test_new.obj
 0001:00068550       chart_debug_initialization 0000000180069550 f   c32_hyd_hyb_2_opt_cont_test_new.obj
 0001:00068dd0       init_script_number_translation 0000000180069dd0 f   c32_hyd_hyb_2_opt_cont_test_new.obj
 0001:00068de0       c32_sf_marshallOut         0000000180069de0 f   c32_hyd_hyb_2_opt_cont_test_new.obj
 0001:00068e90       c32_sf_marshallIn          0000000180069e90 f   c32_hyd_hyb_2_opt_cont_test_new.obj
 0001:00068f30       sf_opaque_initialize_c32_hyd_hyb_2_opt_cont_test_new 0000000180069f30 f   c32_hyd_hyb_2_opt_cont_test_new.obj
 0001:00068f70       initialize_c32_hyd_hyb_2_opt_cont_test_new 0000000180069f70 f   c32_hyd_hyb_2_opt_cont_test_new.obj
 0001:00068fb0       sf_opaque_enable_c32_hyd_hyb_2_opt_cont_test_new 0000000180069fb0 f   c32_hyd_hyb_2_opt_cont_test_new.obj
 0001:00068fd0       enable_c32_hyd_hyb_2_opt_cont_test_new 0000000180069fd0 f   c32_hyd_hyb_2_opt_cont_test_new.obj
 0001:00069000       sf_opaque_disable_c32_hyd_hyb_2_opt_cont_test_new 000000018006a000 f   c32_hyd_hyb_2_opt_cont_test_new.obj
 0001:00069020       disable_c32_hyd_hyb_2_opt_cont_test_new 000000018006a020 f   c32_hyd_hyb_2_opt_cont_test_new.obj
 0001:00069050       sf_opaque_gateway_c32_hyd_hyb_2_opt_cont_test_new 000000018006a050 f   c32_hyd_hyb_2_opt_cont_test_new.obj
 0001:00069070       sf_c32_hyd_hyb_2_opt_cont_test_new 000000018006a070 f   c32_hyd_hyb_2_opt_cont_test_new.obj
 0001:00069970       sf_opaque_get_sim_state_c32_hyd_hyb_2_opt_cont_test_new 000000018006a970 f   c32_hyd_hyb_2_opt_cont_test_new.obj
 0001:00069990       sf_opaque_set_sim_state_c32_hyd_hyb_2_opt_cont_test_new 000000018006a990 f   c32_hyd_hyb_2_opt_cont_test_new.obj
 0001:000699c0       sf_opaque_terminate_c32_hyd_hyb_2_opt_cont_test_new 000000018006a9c0 f   c32_hyd_hyb_2_opt_cont_test_new.obj
 0001:00069a40       finalize_c32_hyd_hyb_2_opt_cont_test_new 000000018006aa40 f   c32_hyd_hyb_2_opt_cont_test_new.obj
 0001:00069a50       sf_opaque_init_subchart_simstructs 000000018006aa50 f   c32_hyd_hyb_2_opt_cont_test_new.obj
 0001:00069a70       initSimStructsc32_hyd_hyb_2_opt_cont_test_new 000000018006aa70 f   c32_hyd_hyb_2_opt_cont_test_new.obj
 0001:00069a80       mdlRTW_c32_hyd_hyb_2_opt_cont_test_new 000000018006aa80 f   c32_hyd_hyb_2_opt_cont_test_new.obj
 0001:0006a2a0       get_sim_state_c33_hyd_hyb_2_opt_cont_test_new 000000018006b2a0 f   c33_hyd_hyb_2_opt_cont_test_new.obj
 0001:0006a430       sf_get_sim_state_info_c33_hyd_hyb_2_opt_cont_test_new 000000018006b430 f   c33_hyd_hyb_2_opt_cont_test_new.obj
 0001:0006a610       set_sim_state_c33_hyd_hyb_2_opt_cont_test_new 000000018006b610 f   c33_hyd_hyb_2_opt_cont_test_new.obj
 0001:0006a6e0       c33_update_debugger_state_c33_hyd_hyb_2_opt_cont_test_new 000000018006b6e0 f   c33_hyd_hyb_2_opt_cont_test_new.obj
 0001:0006a6f0       c33_emlrt_marshallIn       000000018006b6f0 f   c33_hyd_hyb_2_opt_cont_test_new.obj
 0001:0006a760       c33_b_emlrt_marshallIn     000000018006b760 f   c33_hyd_hyb_2_opt_cont_test_new.obj
 0001:0006a7f0       c33_d_emlrt_marshallIn     000000018006b7f0 f   c33_hyd_hyb_2_opt_cont_test_new.obj
 0001:0006a850       c33_e_emlrt_marshallIn     000000018006b850 f   c33_hyd_hyb_2_opt_cont_test_new.obj
 0001:0006a950       mdlProcessParameters_c33_hyd_hyb_2_opt_cont_test_new 000000018006b950 f   c33_hyd_hyb_2_opt_cont_test_new.obj
 0001:0006aa10       initialize_params_c33_hyd_hyb_2_opt_cont_test_new 000000018006ba10 f   c33_hyd_hyb_2_opt_cont_test_new.obj
 0001:0006aa20       mdlSetWorkWidths_c33_hyd_hyb_2_opt_cont_test_new 000000018006ba20 f   c33_hyd_hyb_2_opt_cont_test_new.obj
 0001:0006ada0       mdlStart_c33_hyd_hyb_2_opt_cont_test_new 000000018006bda0 f   c33_hyd_hyb_2_opt_cont_test_new.obj
 0001:0006afa0       init_dsm_address_info      000000018006bfa0 f   c33_hyd_hyb_2_opt_cont_test_new.obj
 0001:0006afb0       chart_debug_initialization 000000018006bfb0 f   c33_hyd_hyb_2_opt_cont_test_new.obj
 0001:0006b920       init_script_number_translation 000000018006c920 f   c33_hyd_hyb_2_opt_cont_test_new.obj
 0001:0006b930       c33_sf_marshallOut         000000018006c930 f   c33_hyd_hyb_2_opt_cont_test_new.obj
 0001:0006b9e0       c33_sf_marshallIn          000000018006c9e0 f   c33_hyd_hyb_2_opt_cont_test_new.obj
 0001:0006ba80       c33_b_sf_marshallOut       000000018006ca80 f   c33_hyd_hyb_2_opt_cont_test_new.obj
 0001:0006bc90       sf_opaque_initialize_c33_hyd_hyb_2_opt_cont_test_new 000000018006cc90 f   c33_hyd_hyb_2_opt_cont_test_new.obj
 0001:0006bcd0       initialize_c33_hyd_hyb_2_opt_cont_test_new 000000018006ccd0 f   c33_hyd_hyb_2_opt_cont_test_new.obj
 0001:0006bd10       sf_opaque_enable_c33_hyd_hyb_2_opt_cont_test_new 000000018006cd10 f   c33_hyd_hyb_2_opt_cont_test_new.obj
 0001:0006bd30       enable_c33_hyd_hyb_2_opt_cont_test_new 000000018006cd30 f   c33_hyd_hyb_2_opt_cont_test_new.obj
 0001:0006bd60       sf_opaque_disable_c33_hyd_hyb_2_opt_cont_test_new 000000018006cd60 f   c33_hyd_hyb_2_opt_cont_test_new.obj
 0001:0006bd80       disable_c33_hyd_hyb_2_opt_cont_test_new 000000018006cd80 f   c33_hyd_hyb_2_opt_cont_test_new.obj
 0001:0006bdb0       sf_opaque_gateway_c33_hyd_hyb_2_opt_cont_test_new 000000018006cdb0 f   c33_hyd_hyb_2_opt_cont_test_new.obj
 0001:0006bdd0       sf_c33_hyd_hyb_2_opt_cont_test_new 000000018006cdd0 f   c33_hyd_hyb_2_opt_cont_test_new.obj
 0001:0006c9d0       sf_opaque_get_sim_state_c33_hyd_hyb_2_opt_cont_test_new 000000018006d9d0 f   c33_hyd_hyb_2_opt_cont_test_new.obj
 0001:0006c9f0       sf_opaque_set_sim_state_c33_hyd_hyb_2_opt_cont_test_new 000000018006d9f0 f   c33_hyd_hyb_2_opt_cont_test_new.obj
 0001:0006ca20       sf_opaque_terminate_c33_hyd_hyb_2_opt_cont_test_new 000000018006da20 f   c33_hyd_hyb_2_opt_cont_test_new.obj
 0001:0006caa0       finalize_c33_hyd_hyb_2_opt_cont_test_new 000000018006daa0 f   c33_hyd_hyb_2_opt_cont_test_new.obj
 0001:0006cab0       sf_opaque_init_subchart_simstructs 000000018006dab0 f   c33_hyd_hyb_2_opt_cont_test_new.obj
 0001:0006cad0       initSimStructsc33_hyd_hyb_2_opt_cont_test_new 000000018006dad0 f   c33_hyd_hyb_2_opt_cont_test_new.obj
 0001:0006cae0       mdlRTW_c33_hyd_hyb_2_opt_cont_test_new 000000018006dae0 f   c33_hyd_hyb_2_opt_cont_test_new.obj
 0001:0006d300       get_sim_state_c34_hyd_hyb_2_opt_cont_test_new 000000018006e300 f   c34_hyd_hyb_2_opt_cont_test_new.obj
 0001:0006d490       sf_get_sim_state_info_c34_hyd_hyb_2_opt_cont_test_new 000000018006e490 f   c34_hyd_hyb_2_opt_cont_test_new.obj
 0001:0006d670       set_sim_state_c34_hyd_hyb_2_opt_cont_test_new 000000018006e670 f   c34_hyd_hyb_2_opt_cont_test_new.obj
 0001:0006d740       c34_update_debugger_state_c34_hyd_hyb_2_opt_cont_test_new 000000018006e740 f   c34_hyd_hyb_2_opt_cont_test_new.obj
 0001:0006d750       c34_emlrt_marshallIn       000000018006e750 f   c34_hyd_hyb_2_opt_cont_test_new.obj
 0001:0006d7c0       c34_b_emlrt_marshallIn     000000018006e7c0 f   c34_hyd_hyb_2_opt_cont_test_new.obj
 0001:0006d850       c34_d_emlrt_marshallIn     000000018006e850 f   c34_hyd_hyb_2_opt_cont_test_new.obj
 0001:0006d8b0       c34_e_emlrt_marshallIn     000000018006e8b0 f   c34_hyd_hyb_2_opt_cont_test_new.obj
 0001:0006d9b0       mdlProcessParameters_c34_hyd_hyb_2_opt_cont_test_new 000000018006e9b0 f   c34_hyd_hyb_2_opt_cont_test_new.obj
 0001:0006da70       initialize_params_c34_hyd_hyb_2_opt_cont_test_new 000000018006ea70 f   c34_hyd_hyb_2_opt_cont_test_new.obj
 0001:0006da80       mdlSetWorkWidths_c34_hyd_hyb_2_opt_cont_test_new 000000018006ea80 f   c34_hyd_hyb_2_opt_cont_test_new.obj
 0001:0006de00       mdlStart_c34_hyd_hyb_2_opt_cont_test_new 000000018006ee00 f   c34_hyd_hyb_2_opt_cont_test_new.obj
 0001:0006e000       init_dsm_address_info      000000018006f000 f   c34_hyd_hyb_2_opt_cont_test_new.obj
 0001:0006e010       chart_debug_initialization 000000018006f010 f   c34_hyd_hyb_2_opt_cont_test_new.obj
 0001:0006e980       init_script_number_translation 000000018006f980 f   c34_hyd_hyb_2_opt_cont_test_new.obj
 0001:0006e990       c34_sf_marshallOut         000000018006f990 f   c34_hyd_hyb_2_opt_cont_test_new.obj
 0001:0006ea40       c34_sf_marshallIn          000000018006fa40 f   c34_hyd_hyb_2_opt_cont_test_new.obj
 0001:0006eae0       c34_b_sf_marshallOut       000000018006fae0 f   c34_hyd_hyb_2_opt_cont_test_new.obj
 0001:0006ece0       sf_opaque_initialize_c34_hyd_hyb_2_opt_cont_test_new 000000018006fce0 f   c34_hyd_hyb_2_opt_cont_test_new.obj
 0001:0006ed20       initialize_c34_hyd_hyb_2_opt_cont_test_new 000000018006fd20 f   c34_hyd_hyb_2_opt_cont_test_new.obj
 0001:0006ed60       sf_opaque_enable_c34_hyd_hyb_2_opt_cont_test_new 000000018006fd60 f   c34_hyd_hyb_2_opt_cont_test_new.obj
 0001:0006ed80       enable_c34_hyd_hyb_2_opt_cont_test_new 000000018006fd80 f   c34_hyd_hyb_2_opt_cont_test_new.obj
 0001:0006edb0       sf_opaque_disable_c34_hyd_hyb_2_opt_cont_test_new 000000018006fdb0 f   c34_hyd_hyb_2_opt_cont_test_new.obj
 0001:0006edd0       disable_c34_hyd_hyb_2_opt_cont_test_new 000000018006fdd0 f   c34_hyd_hyb_2_opt_cont_test_new.obj
 0001:0006ee00       sf_opaque_gateway_c34_hyd_hyb_2_opt_cont_test_new 000000018006fe00 f   c34_hyd_hyb_2_opt_cont_test_new.obj
 0001:0006ee20       sf_c34_hyd_hyb_2_opt_cont_test_new 000000018006fe20 f   c34_hyd_hyb_2_opt_cont_test_new.obj
 0001:0006fa10       sf_opaque_get_sim_state_c34_hyd_hyb_2_opt_cont_test_new 0000000180070a10 f   c34_hyd_hyb_2_opt_cont_test_new.obj
 0001:0006fa30       sf_opaque_set_sim_state_c34_hyd_hyb_2_opt_cont_test_new 0000000180070a30 f   c34_hyd_hyb_2_opt_cont_test_new.obj
 0001:0006fa60       sf_opaque_terminate_c34_hyd_hyb_2_opt_cont_test_new 0000000180070a60 f   c34_hyd_hyb_2_opt_cont_test_new.obj
 0001:0006fae0       finalize_c34_hyd_hyb_2_opt_cont_test_new 0000000180070ae0 f   c34_hyd_hyb_2_opt_cont_test_new.obj
 0001:0006faf0       sf_opaque_init_subchart_simstructs 0000000180070af0 f   c34_hyd_hyb_2_opt_cont_test_new.obj
 0001:0006fb10       initSimStructsc34_hyd_hyb_2_opt_cont_test_new 0000000180070b10 f   c34_hyd_hyb_2_opt_cont_test_new.obj
 0001:0006fb20       mdlRTW_c34_hyd_hyb_2_opt_cont_test_new 0000000180070b20 f   c34_hyd_hyb_2_opt_cont_test_new.obj
 0001:00070340       get_sim_state_c35_hyd_hyb_2_opt_cont_test_new 0000000180071340 f   c35_hyd_hyb_2_opt_cont_test_new.obj
 0001:000704d0       sf_get_sim_state_info_c35_hyd_hyb_2_opt_cont_test_new 00000001800714d0 f   c35_hyd_hyb_2_opt_cont_test_new.obj
 0001:000706b0       set_sim_state_c35_hyd_hyb_2_opt_cont_test_new 00000001800716b0 f   c35_hyd_hyb_2_opt_cont_test_new.obj
 0001:00070780       c35_update_debugger_state_c35_hyd_hyb_2_opt_cont_test_new 0000000180071780 f   c35_hyd_hyb_2_opt_cont_test_new.obj
 0001:00070790       c35_emlrt_marshallIn       0000000180071790 f   c35_hyd_hyb_2_opt_cont_test_new.obj
 0001:00070800       c35_b_emlrt_marshallIn     0000000180071800 f   c35_hyd_hyb_2_opt_cont_test_new.obj
 0001:00070890       c35_d_emlrt_marshallIn     0000000180071890 f   c35_hyd_hyb_2_opt_cont_test_new.obj
 0001:000708f0       c35_e_emlrt_marshallIn     00000001800718f0 f   c35_hyd_hyb_2_opt_cont_test_new.obj
 0001:000709f0       mdlProcessParameters_c35_hyd_hyb_2_opt_cont_test_new 00000001800719f0 f   c35_hyd_hyb_2_opt_cont_test_new.obj
 0001:00070ab0       initialize_params_c35_hyd_hyb_2_opt_cont_test_new 0000000180071ab0 f   c35_hyd_hyb_2_opt_cont_test_new.obj
 0001:00070ac0       mdlSetWorkWidths_c35_hyd_hyb_2_opt_cont_test_new 0000000180071ac0 f   c35_hyd_hyb_2_opt_cont_test_new.obj
 0001:00070e40       mdlStart_c35_hyd_hyb_2_opt_cont_test_new 0000000180071e40 f   c35_hyd_hyb_2_opt_cont_test_new.obj
 0001:00071040       init_dsm_address_info      0000000180072040 f   c35_hyd_hyb_2_opt_cont_test_new.obj
 0001:00071050       chart_debug_initialization 0000000180072050 f   c35_hyd_hyb_2_opt_cont_test_new.obj
 0001:000719c0       init_script_number_translation 00000001800729c0 f   c35_hyd_hyb_2_opt_cont_test_new.obj
 0001:000719d0       c35_sf_marshallOut         00000001800729d0 f   c35_hyd_hyb_2_opt_cont_test_new.obj
 0001:00071a80       c35_sf_marshallIn          0000000180072a80 f   c35_hyd_hyb_2_opt_cont_test_new.obj
 0001:00071b20       c35_b_sf_marshallOut       0000000180072b20 f   c35_hyd_hyb_2_opt_cont_test_new.obj
 0001:00071d50       sf_opaque_initialize_c35_hyd_hyb_2_opt_cont_test_new 0000000180072d50 f   c35_hyd_hyb_2_opt_cont_test_new.obj
 0001:00071d90       initialize_c35_hyd_hyb_2_opt_cont_test_new 0000000180072d90 f   c35_hyd_hyb_2_opt_cont_test_new.obj
 0001:00071dd0       sf_opaque_enable_c35_hyd_hyb_2_opt_cont_test_new 0000000180072dd0 f   c35_hyd_hyb_2_opt_cont_test_new.obj
 0001:00071df0       enable_c35_hyd_hyb_2_opt_cont_test_new 0000000180072df0 f   c35_hyd_hyb_2_opt_cont_test_new.obj
 0001:00071e20       sf_opaque_disable_c35_hyd_hyb_2_opt_cont_test_new 0000000180072e20 f   c35_hyd_hyb_2_opt_cont_test_new.obj
 0001:00071e40       disable_c35_hyd_hyb_2_opt_cont_test_new 0000000180072e40 f   c35_hyd_hyb_2_opt_cont_test_new.obj
 0001:00071e70       sf_opaque_gateway_c35_hyd_hyb_2_opt_cont_test_new 0000000180072e70 f   c35_hyd_hyb_2_opt_cont_test_new.obj
 0001:00071e90       sf_c35_hyd_hyb_2_opt_cont_test_new 0000000180072e90 f   c35_hyd_hyb_2_opt_cont_test_new.obj
 0001:00072a70       sf_opaque_get_sim_state_c35_hyd_hyb_2_opt_cont_test_new 0000000180073a70 f   c35_hyd_hyb_2_opt_cont_test_new.obj
 0001:00072a90       sf_opaque_set_sim_state_c35_hyd_hyb_2_opt_cont_test_new 0000000180073a90 f   c35_hyd_hyb_2_opt_cont_test_new.obj
 0001:00072ac0       sf_opaque_terminate_c35_hyd_hyb_2_opt_cont_test_new 0000000180073ac0 f   c35_hyd_hyb_2_opt_cont_test_new.obj
 0001:00072b40       finalize_c35_hyd_hyb_2_opt_cont_test_new 0000000180073b40 f   c35_hyd_hyb_2_opt_cont_test_new.obj
 0001:00072b50       sf_opaque_init_subchart_simstructs 0000000180073b50 f   c35_hyd_hyb_2_opt_cont_test_new.obj
 0001:00072b70       initSimStructsc35_hyd_hyb_2_opt_cont_test_new 0000000180073b70 f   c35_hyd_hyb_2_opt_cont_test_new.obj
 0001:00072b80       mdlRTW_c35_hyd_hyb_2_opt_cont_test_new 0000000180073b80 f   c35_hyd_hyb_2_opt_cont_test_new.obj
 0001:000733a0       get_sim_state_c36_hyd_hyb_2_opt_cont_test_new 00000001800743a0 f   c36_hyd_hyb_2_opt_cont_test_new.obj
 0001:00073530       sf_get_sim_state_info_c36_hyd_hyb_2_opt_cont_test_new 0000000180074530 f   c36_hyd_hyb_2_opt_cont_test_new.obj
 0001:00073710       set_sim_state_c36_hyd_hyb_2_opt_cont_test_new 0000000180074710 f   c36_hyd_hyb_2_opt_cont_test_new.obj
 0001:000737e0       c36_update_debugger_state_c36_hyd_hyb_2_opt_cont_test_new 00000001800747e0 f   c36_hyd_hyb_2_opt_cont_test_new.obj
 0001:000737f0       c36_emlrt_marshallIn       00000001800747f0 f   c36_hyd_hyb_2_opt_cont_test_new.obj
 0001:00073860       c36_b_emlrt_marshallIn     0000000180074860 f   c36_hyd_hyb_2_opt_cont_test_new.obj
 0001:000738f0       c36_d_emlrt_marshallIn     00000001800748f0 f   c36_hyd_hyb_2_opt_cont_test_new.obj
 0001:00073950       c36_e_emlrt_marshallIn     0000000180074950 f   c36_hyd_hyb_2_opt_cont_test_new.obj
 0001:00073a50       mdlProcessParameters_c36_hyd_hyb_2_opt_cont_test_new 0000000180074a50 f   c36_hyd_hyb_2_opt_cont_test_new.obj
 0001:00073b10       initialize_params_c36_hyd_hyb_2_opt_cont_test_new 0000000180074b10 f   c36_hyd_hyb_2_opt_cont_test_new.obj
 0001:00073b20       mdlSetWorkWidths_c36_hyd_hyb_2_opt_cont_test_new 0000000180074b20 f   c36_hyd_hyb_2_opt_cont_test_new.obj
 0001:00073ea0       mdlStart_c36_hyd_hyb_2_opt_cont_test_new 0000000180074ea0 f   c36_hyd_hyb_2_opt_cont_test_new.obj
 0001:000740a0       init_dsm_address_info      00000001800750a0 f   c36_hyd_hyb_2_opt_cont_test_new.obj
 0001:000740b0       chart_debug_initialization 00000001800750b0 f   c36_hyd_hyb_2_opt_cont_test_new.obj
 0001:00074a20       init_script_number_translation 0000000180075a20 f   c36_hyd_hyb_2_opt_cont_test_new.obj
 0001:00074a30       c36_sf_marshallOut         0000000180075a30 f   c36_hyd_hyb_2_opt_cont_test_new.obj
 0001:00074ae0       c36_sf_marshallIn          0000000180075ae0 f   c36_hyd_hyb_2_opt_cont_test_new.obj
 0001:00074b80       c36_b_sf_marshallOut       0000000180075b80 f   c36_hyd_hyb_2_opt_cont_test_new.obj
 0001:00074db0       sf_opaque_initialize_c36_hyd_hyb_2_opt_cont_test_new 0000000180075db0 f   c36_hyd_hyb_2_opt_cont_test_new.obj
 0001:00074df0       initialize_c36_hyd_hyb_2_opt_cont_test_new 0000000180075df0 f   c36_hyd_hyb_2_opt_cont_test_new.obj
 0001:00074e30       sf_opaque_enable_c36_hyd_hyb_2_opt_cont_test_new 0000000180075e30 f   c36_hyd_hyb_2_opt_cont_test_new.obj
 0001:00074e50       enable_c36_hyd_hyb_2_opt_cont_test_new 0000000180075e50 f   c36_hyd_hyb_2_opt_cont_test_new.obj
 0001:00074e80       sf_opaque_disable_c36_hyd_hyb_2_opt_cont_test_new 0000000180075e80 f   c36_hyd_hyb_2_opt_cont_test_new.obj
 0001:00074ea0       disable_c36_hyd_hyb_2_opt_cont_test_new 0000000180075ea0 f   c36_hyd_hyb_2_opt_cont_test_new.obj
 0001:00074ed0       sf_opaque_gateway_c36_hyd_hyb_2_opt_cont_test_new 0000000180075ed0 f   c36_hyd_hyb_2_opt_cont_test_new.obj
 0001:00074ef0       sf_c36_hyd_hyb_2_opt_cont_test_new 0000000180075ef0 f   c36_hyd_hyb_2_opt_cont_test_new.obj
 0001:00075af0       sf_opaque_get_sim_state_c36_hyd_hyb_2_opt_cont_test_new 0000000180076af0 f   c36_hyd_hyb_2_opt_cont_test_new.obj
 0001:00075b10       sf_opaque_set_sim_state_c36_hyd_hyb_2_opt_cont_test_new 0000000180076b10 f   c36_hyd_hyb_2_opt_cont_test_new.obj
 0001:00075b40       sf_opaque_terminate_c36_hyd_hyb_2_opt_cont_test_new 0000000180076b40 f   c36_hyd_hyb_2_opt_cont_test_new.obj
 0001:00075bc0       finalize_c36_hyd_hyb_2_opt_cont_test_new 0000000180076bc0 f   c36_hyd_hyb_2_opt_cont_test_new.obj
 0001:00075bd0       sf_opaque_init_subchart_simstructs 0000000180076bd0 f   c36_hyd_hyb_2_opt_cont_test_new.obj
 0001:00075bf0       initSimStructsc36_hyd_hyb_2_opt_cont_test_new 0000000180076bf0 f   c36_hyd_hyb_2_opt_cont_test_new.obj
 0001:00075c00       mdlRTW_c36_hyd_hyb_2_opt_cont_test_new 0000000180076c00 f   c36_hyd_hyb_2_opt_cont_test_new.obj
 0001:00076420       get_sim_state_c37_hyd_hyb_2_opt_cont_test_new 0000000180077420 f   c37_hyd_hyb_2_opt_cont_test_new.obj
 0001:000765b0       sf_get_sim_state_info_c37_hyd_hyb_2_opt_cont_test_new 00000001800775b0 f   c37_hyd_hyb_2_opt_cont_test_new.obj
 0001:00076790       set_sim_state_c37_hyd_hyb_2_opt_cont_test_new 0000000180077790 f   c37_hyd_hyb_2_opt_cont_test_new.obj
 0001:00076860       c37_update_debugger_state_c37_hyd_hyb_2_opt_cont_test_new 0000000180077860 f   c37_hyd_hyb_2_opt_cont_test_new.obj
 0001:00076870       c37_emlrt_marshallIn       0000000180077870 f   c37_hyd_hyb_2_opt_cont_test_new.obj
 0001:000768e0       c37_b_emlrt_marshallIn     00000001800778e0 f   c37_hyd_hyb_2_opt_cont_test_new.obj
 0001:00076970       c37_d_emlrt_marshallIn     0000000180077970 f   c37_hyd_hyb_2_opt_cont_test_new.obj
 0001:000769d0       c37_e_emlrt_marshallIn     00000001800779d0 f   c37_hyd_hyb_2_opt_cont_test_new.obj
 0001:00076ad0       mdlProcessParameters_c37_hyd_hyb_2_opt_cont_test_new 0000000180077ad0 f   c37_hyd_hyb_2_opt_cont_test_new.obj
 0001:00076b90       initialize_params_c37_hyd_hyb_2_opt_cont_test_new 0000000180077b90 f   c37_hyd_hyb_2_opt_cont_test_new.obj
 0001:00076ba0       mdlSetWorkWidths_c37_hyd_hyb_2_opt_cont_test_new 0000000180077ba0 f   c37_hyd_hyb_2_opt_cont_test_new.obj
 0001:00076f20       mdlStart_c37_hyd_hyb_2_opt_cont_test_new 0000000180077f20 f   c37_hyd_hyb_2_opt_cont_test_new.obj
 0001:00077120       init_dsm_address_info      0000000180078120 f   c37_hyd_hyb_2_opt_cont_test_new.obj
 0001:00077130       chart_debug_initialization 0000000180078130 f   c37_hyd_hyb_2_opt_cont_test_new.obj
 0001:00077aa0       init_script_number_translation 0000000180078aa0 f   c37_hyd_hyb_2_opt_cont_test_new.obj
 0001:00077ab0       c37_sf_marshallOut         0000000180078ab0 f   c37_hyd_hyb_2_opt_cont_test_new.obj
 0001:00077b60       c37_sf_marshallIn          0000000180078b60 f   c37_hyd_hyb_2_opt_cont_test_new.obj
 0001:00077c00       c37_b_sf_marshallOut       0000000180078c00 f   c37_hyd_hyb_2_opt_cont_test_new.obj
 0001:00077e30       sf_opaque_initialize_c37_hyd_hyb_2_opt_cont_test_new 0000000180078e30 f   c37_hyd_hyb_2_opt_cont_test_new.obj
 0001:00077e70       initialize_c37_hyd_hyb_2_opt_cont_test_new 0000000180078e70 f   c37_hyd_hyb_2_opt_cont_test_new.obj
 0001:00077eb0       sf_opaque_enable_c37_hyd_hyb_2_opt_cont_test_new 0000000180078eb0 f   c37_hyd_hyb_2_opt_cont_test_new.obj
 0001:00077ed0       enable_c37_hyd_hyb_2_opt_cont_test_new 0000000180078ed0 f   c37_hyd_hyb_2_opt_cont_test_new.obj
 0001:00077f00       sf_opaque_disable_c37_hyd_hyb_2_opt_cont_test_new 0000000180078f00 f   c37_hyd_hyb_2_opt_cont_test_new.obj
 0001:00077f20       disable_c37_hyd_hyb_2_opt_cont_test_new 0000000180078f20 f   c37_hyd_hyb_2_opt_cont_test_new.obj
 0001:00077f50       sf_opaque_gateway_c37_hyd_hyb_2_opt_cont_test_new 0000000180078f50 f   c37_hyd_hyb_2_opt_cont_test_new.obj
 0001:00077f70       sf_c37_hyd_hyb_2_opt_cont_test_new 0000000180078f70 f   c37_hyd_hyb_2_opt_cont_test_new.obj
 0001:00078b60       sf_opaque_get_sim_state_c37_hyd_hyb_2_opt_cont_test_new 0000000180079b60 f   c37_hyd_hyb_2_opt_cont_test_new.obj
 0001:00078b80       sf_opaque_set_sim_state_c37_hyd_hyb_2_opt_cont_test_new 0000000180079b80 f   c37_hyd_hyb_2_opt_cont_test_new.obj
 0001:00078bb0       sf_opaque_terminate_c37_hyd_hyb_2_opt_cont_test_new 0000000180079bb0 f   c37_hyd_hyb_2_opt_cont_test_new.obj
 0001:00078c30       finalize_c37_hyd_hyb_2_opt_cont_test_new 0000000180079c30 f   c37_hyd_hyb_2_opt_cont_test_new.obj
 0001:00078c40       sf_opaque_init_subchart_simstructs 0000000180079c40 f   c37_hyd_hyb_2_opt_cont_test_new.obj
 0001:00078c60       initSimStructsc37_hyd_hyb_2_opt_cont_test_new 0000000180079c60 f   c37_hyd_hyb_2_opt_cont_test_new.obj
 0001:00078c70       mdlRTW_c37_hyd_hyb_2_opt_cont_test_new 0000000180079c70 f   c37_hyd_hyb_2_opt_cont_test_new.obj
 0001:00079490       get_sim_state_c38_hyd_hyb_2_opt_cont_test_new 000000018007a490 f   c38_hyd_hyb_2_opt_cont_test_new.obj
 0001:00079620       sf_get_sim_state_info_c38_hyd_hyb_2_opt_cont_test_new 000000018007a620 f   c38_hyd_hyb_2_opt_cont_test_new.obj
 0001:00079800       set_sim_state_c38_hyd_hyb_2_opt_cont_test_new 000000018007a800 f   c38_hyd_hyb_2_opt_cont_test_new.obj
 0001:000798d0       c38_update_debugger_state_c38_hyd_hyb_2_opt_cont_test_new 000000018007a8d0 f   c38_hyd_hyb_2_opt_cont_test_new.obj
 0001:000798e0       c38_emlrt_marshallIn       000000018007a8e0 f   c38_hyd_hyb_2_opt_cont_test_new.obj
 0001:00079950       c38_b_emlrt_marshallIn     000000018007a950 f   c38_hyd_hyb_2_opt_cont_test_new.obj
 0001:000799e0       c38_d_emlrt_marshallIn     000000018007a9e0 f   c38_hyd_hyb_2_opt_cont_test_new.obj
 0001:00079a40       c38_e_emlrt_marshallIn     000000018007aa40 f   c38_hyd_hyb_2_opt_cont_test_new.obj
 0001:00079b40       mdlProcessParameters_c38_hyd_hyb_2_opt_cont_test_new 000000018007ab40 f   c38_hyd_hyb_2_opt_cont_test_new.obj
 0001:00079c00       initialize_params_c38_hyd_hyb_2_opt_cont_test_new 000000018007ac00 f   c38_hyd_hyb_2_opt_cont_test_new.obj
 0001:00079c10       mdlSetWorkWidths_c38_hyd_hyb_2_opt_cont_test_new 000000018007ac10 f   c38_hyd_hyb_2_opt_cont_test_new.obj
 0001:00079f90       mdlStart_c38_hyd_hyb_2_opt_cont_test_new 000000018007af90 f   c38_hyd_hyb_2_opt_cont_test_new.obj
 0001:0007a190       init_dsm_address_info      000000018007b190 f   c38_hyd_hyb_2_opt_cont_test_new.obj
 0001:0007a1a0       chart_debug_initialization 000000018007b1a0 f   c38_hyd_hyb_2_opt_cont_test_new.obj
 0001:0007ab10       init_script_number_translation 000000018007bb10 f   c38_hyd_hyb_2_opt_cont_test_new.obj
 0001:0007ab20       c38_sf_marshallOut         000000018007bb20 f   c38_hyd_hyb_2_opt_cont_test_new.obj
 0001:0007abd0       c38_sf_marshallIn          000000018007bbd0 f   c38_hyd_hyb_2_opt_cont_test_new.obj
 0001:0007ac70       c38_b_sf_marshallOut       000000018007bc70 f   c38_hyd_hyb_2_opt_cont_test_new.obj
 0001:0007ae80       sf_opaque_initialize_c38_hyd_hyb_2_opt_cont_test_new 000000018007be80 f   c38_hyd_hyb_2_opt_cont_test_new.obj
 0001:0007aec0       initialize_c38_hyd_hyb_2_opt_cont_test_new 000000018007bec0 f   c38_hyd_hyb_2_opt_cont_test_new.obj
 0001:0007af00       sf_opaque_enable_c38_hyd_hyb_2_opt_cont_test_new 000000018007bf00 f   c38_hyd_hyb_2_opt_cont_test_new.obj
 0001:0007af20       enable_c38_hyd_hyb_2_opt_cont_test_new 000000018007bf20 f   c38_hyd_hyb_2_opt_cont_test_new.obj
 0001:0007af50       sf_opaque_disable_c38_hyd_hyb_2_opt_cont_test_new 000000018007bf50 f   c38_hyd_hyb_2_opt_cont_test_new.obj
 0001:0007af70       disable_c38_hyd_hyb_2_opt_cont_test_new 000000018007bf70 f   c38_hyd_hyb_2_opt_cont_test_new.obj
 0001:0007afa0       sf_opaque_gateway_c38_hyd_hyb_2_opt_cont_test_new 000000018007bfa0 f   c38_hyd_hyb_2_opt_cont_test_new.obj
 0001:0007afc0       sf_c38_hyd_hyb_2_opt_cont_test_new 000000018007bfc0 f   c38_hyd_hyb_2_opt_cont_test_new.obj
 0001:0007bbc0       sf_opaque_get_sim_state_c38_hyd_hyb_2_opt_cont_test_new 000000018007cbc0 f   c38_hyd_hyb_2_opt_cont_test_new.obj
 0001:0007bbe0       sf_opaque_set_sim_state_c38_hyd_hyb_2_opt_cont_test_new 000000018007cbe0 f   c38_hyd_hyb_2_opt_cont_test_new.obj
 0001:0007bc10       sf_opaque_terminate_c38_hyd_hyb_2_opt_cont_test_new 000000018007cc10 f   c38_hyd_hyb_2_opt_cont_test_new.obj
 0001:0007bc90       finalize_c38_hyd_hyb_2_opt_cont_test_new 000000018007cc90 f   c38_hyd_hyb_2_opt_cont_test_new.obj
 0001:0007bca0       sf_opaque_init_subchart_simstructs 000000018007cca0 f   c38_hyd_hyb_2_opt_cont_test_new.obj
 0001:0007bcc0       initSimStructsc38_hyd_hyb_2_opt_cont_test_new 000000018007ccc0 f   c38_hyd_hyb_2_opt_cont_test_new.obj
 0001:0007bcd0       mdlRTW_c38_hyd_hyb_2_opt_cont_test_new 000000018007ccd0 f   c38_hyd_hyb_2_opt_cont_test_new.obj
 0001:0007c4f0       get_sim_state_c39_hyd_hyb_2_opt_cont_test_new 000000018007d4f0 f   c39_hyd_hyb_2_opt_cont_test_new.obj
 0001:0007c680       sf_get_sim_state_info_c39_hyd_hyb_2_opt_cont_test_new 000000018007d680 f   c39_hyd_hyb_2_opt_cont_test_new.obj
 0001:0007c860       set_sim_state_c39_hyd_hyb_2_opt_cont_test_new 000000018007d860 f   c39_hyd_hyb_2_opt_cont_test_new.obj
 0001:0007c930       c39_update_debugger_state_c39_hyd_hyb_2_opt_cont_test_new 000000018007d930 f   c39_hyd_hyb_2_opt_cont_test_new.obj
 0001:0007c940       c39_emlrt_marshallIn       000000018007d940 f   c39_hyd_hyb_2_opt_cont_test_new.obj
 0001:0007c9b0       c39_b_emlrt_marshallIn     000000018007d9b0 f   c39_hyd_hyb_2_opt_cont_test_new.obj
 0001:0007ca40       c39_d_emlrt_marshallIn     000000018007da40 f   c39_hyd_hyb_2_opt_cont_test_new.obj
 0001:0007caa0       c39_e_emlrt_marshallIn     000000018007daa0 f   c39_hyd_hyb_2_opt_cont_test_new.obj
 0001:0007cba0       mdlProcessParameters_c39_hyd_hyb_2_opt_cont_test_new 000000018007dba0 f   c39_hyd_hyb_2_opt_cont_test_new.obj
 0001:0007cc60       initialize_params_c39_hyd_hyb_2_opt_cont_test_new 000000018007dc60 f   c39_hyd_hyb_2_opt_cont_test_new.obj
 0001:0007cc70       mdlSetWorkWidths_c39_hyd_hyb_2_opt_cont_test_new 000000018007dc70 f   c39_hyd_hyb_2_opt_cont_test_new.obj
 0001:0007cff0       mdlStart_c39_hyd_hyb_2_opt_cont_test_new 000000018007dff0 f   c39_hyd_hyb_2_opt_cont_test_new.obj
 0001:0007d1f0       init_dsm_address_info      000000018007e1f0 f   c39_hyd_hyb_2_opt_cont_test_new.obj
 0001:0007d200       chart_debug_initialization 000000018007e200 f   c39_hyd_hyb_2_opt_cont_test_new.obj
 0001:0007db70       init_script_number_translation 000000018007eb70 f   c39_hyd_hyb_2_opt_cont_test_new.obj
 0001:0007db80       c39_sf_marshallOut         000000018007eb80 f   c39_hyd_hyb_2_opt_cont_test_new.obj
 0001:0007dc30       c39_sf_marshallIn          000000018007ec30 f   c39_hyd_hyb_2_opt_cont_test_new.obj
 0001:0007dcd0       c39_b_sf_marshallOut       000000018007ecd0 f   c39_hyd_hyb_2_opt_cont_test_new.obj
 0001:0007df00       sf_opaque_initialize_c39_hyd_hyb_2_opt_cont_test_new 000000018007ef00 f   c39_hyd_hyb_2_opt_cont_test_new.obj
 0001:0007df40       initialize_c39_hyd_hyb_2_opt_cont_test_new 000000018007ef40 f   c39_hyd_hyb_2_opt_cont_test_new.obj
 0001:0007df80       sf_opaque_enable_c39_hyd_hyb_2_opt_cont_test_new 000000018007ef80 f   c39_hyd_hyb_2_opt_cont_test_new.obj
 0001:0007dfa0       enable_c39_hyd_hyb_2_opt_cont_test_new 000000018007efa0 f   c39_hyd_hyb_2_opt_cont_test_new.obj
 0001:0007dfd0       sf_opaque_disable_c39_hyd_hyb_2_opt_cont_test_new 000000018007efd0 f   c39_hyd_hyb_2_opt_cont_test_new.obj
 0001:0007dff0       disable_c39_hyd_hyb_2_opt_cont_test_new 000000018007eff0 f   c39_hyd_hyb_2_opt_cont_test_new.obj
 0001:0007e020       sf_opaque_gateway_c39_hyd_hyb_2_opt_cont_test_new 000000018007f020 f   c39_hyd_hyb_2_opt_cont_test_new.obj
 0001:0007e040       sf_c39_hyd_hyb_2_opt_cont_test_new 000000018007f040 f   c39_hyd_hyb_2_opt_cont_test_new.obj
 0001:0007ec50       sf_opaque_get_sim_state_c39_hyd_hyb_2_opt_cont_test_new 000000018007fc50 f   c39_hyd_hyb_2_opt_cont_test_new.obj
 0001:0007ec70       sf_opaque_set_sim_state_c39_hyd_hyb_2_opt_cont_test_new 000000018007fc70 f   c39_hyd_hyb_2_opt_cont_test_new.obj
 0001:0007eca0       sf_opaque_terminate_c39_hyd_hyb_2_opt_cont_test_new 000000018007fca0 f   c39_hyd_hyb_2_opt_cont_test_new.obj
 0001:0007ed20       finalize_c39_hyd_hyb_2_opt_cont_test_new 000000018007fd20 f   c39_hyd_hyb_2_opt_cont_test_new.obj
 0001:0007ed30       sf_opaque_init_subchart_simstructs 000000018007fd30 f   c39_hyd_hyb_2_opt_cont_test_new.obj
 0001:0007ed50       initSimStructsc39_hyd_hyb_2_opt_cont_test_new 000000018007fd50 f   c39_hyd_hyb_2_opt_cont_test_new.obj
 0001:0007ed60       mdlRTW_c39_hyd_hyb_2_opt_cont_test_new 000000018007fd60 f   c39_hyd_hyb_2_opt_cont_test_new.obj
 0001:0007f580       get_sim_state_c40_hyd_hyb_2_opt_cont_test_new 0000000180080580 f   c40_hyd_hyb_2_opt_cont_test_new.obj
 0001:0007f710       sf_get_sim_state_info_c40_hyd_hyb_2_opt_cont_test_new 0000000180080710 f   c40_hyd_hyb_2_opt_cont_test_new.obj
 0001:0007f8f0       set_sim_state_c40_hyd_hyb_2_opt_cont_test_new 00000001800808f0 f   c40_hyd_hyb_2_opt_cont_test_new.obj
 0001:0007f9c0       c40_update_debugger_state_c40_hyd_hyb_2_opt_cont_test_new 00000001800809c0 f   c40_hyd_hyb_2_opt_cont_test_new.obj
 0001:0007f9d0       c40_emlrt_marshallIn       00000001800809d0 f   c40_hyd_hyb_2_opt_cont_test_new.obj
 0001:0007fa40       c40_b_emlrt_marshallIn     0000000180080a40 f   c40_hyd_hyb_2_opt_cont_test_new.obj
 0001:0007fad0       c40_d_emlrt_marshallIn     0000000180080ad0 f   c40_hyd_hyb_2_opt_cont_test_new.obj
 0001:0007fb30       c40_e_emlrt_marshallIn     0000000180080b30 f   c40_hyd_hyb_2_opt_cont_test_new.obj
 0001:0007fc30       mdlProcessParameters_c40_hyd_hyb_2_opt_cont_test_new 0000000180080c30 f   c40_hyd_hyb_2_opt_cont_test_new.obj
 0001:0007fcf0       initialize_params_c40_hyd_hyb_2_opt_cont_test_new 0000000180080cf0 f   c40_hyd_hyb_2_opt_cont_test_new.obj
 0001:0007fd00       mdlSetWorkWidths_c40_hyd_hyb_2_opt_cont_test_new 0000000180080d00 f   c40_hyd_hyb_2_opt_cont_test_new.obj
 0001:00080080       mdlStart_c40_hyd_hyb_2_opt_cont_test_new 0000000180081080 f   c40_hyd_hyb_2_opt_cont_test_new.obj
 0001:00080280       init_dsm_address_info      0000000180081280 f   c40_hyd_hyb_2_opt_cont_test_new.obj
 0001:00080290       chart_debug_initialization 0000000180081290 f   c40_hyd_hyb_2_opt_cont_test_new.obj
 0001:00080c00       init_script_number_translation 0000000180081c00 f   c40_hyd_hyb_2_opt_cont_test_new.obj
 0001:00080c10       c40_sf_marshallOut         0000000180081c10 f   c40_hyd_hyb_2_opt_cont_test_new.obj
 0001:00080cc0       c40_sf_marshallIn          0000000180081cc0 f   c40_hyd_hyb_2_opt_cont_test_new.obj
 0001:00080d60       c40_b_sf_marshallOut       0000000180081d60 f   c40_hyd_hyb_2_opt_cont_test_new.obj
 0001:00080f70       sf_opaque_initialize_c40_hyd_hyb_2_opt_cont_test_new 0000000180081f70 f   c40_hyd_hyb_2_opt_cont_test_new.obj
 0001:00080fb0       initialize_c40_hyd_hyb_2_opt_cont_test_new 0000000180081fb0 f   c40_hyd_hyb_2_opt_cont_test_new.obj
 0001:00080ff0       sf_opaque_enable_c40_hyd_hyb_2_opt_cont_test_new 0000000180081ff0 f   c40_hyd_hyb_2_opt_cont_test_new.obj
 0001:00081010       enable_c40_hyd_hyb_2_opt_cont_test_new 0000000180082010 f   c40_hyd_hyb_2_opt_cont_test_new.obj
 0001:00081040       sf_opaque_disable_c40_hyd_hyb_2_opt_cont_test_new 0000000180082040 f   c40_hyd_hyb_2_opt_cont_test_new.obj
 0001:00081060       disable_c40_hyd_hyb_2_opt_cont_test_new 0000000180082060 f   c40_hyd_hyb_2_opt_cont_test_new.obj
 0001:00081090       sf_opaque_gateway_c40_hyd_hyb_2_opt_cont_test_new 0000000180082090 f   c40_hyd_hyb_2_opt_cont_test_new.obj
 0001:000810b0       sf_c40_hyd_hyb_2_opt_cont_test_new 00000001800820b0 f   c40_hyd_hyb_2_opt_cont_test_new.obj
 0001:00081cb0       sf_opaque_get_sim_state_c40_hyd_hyb_2_opt_cont_test_new 0000000180082cb0 f   c40_hyd_hyb_2_opt_cont_test_new.obj
 0001:00081cd0       sf_opaque_set_sim_state_c40_hyd_hyb_2_opt_cont_test_new 0000000180082cd0 f   c40_hyd_hyb_2_opt_cont_test_new.obj
 0001:00081d00       sf_opaque_terminate_c40_hyd_hyb_2_opt_cont_test_new 0000000180082d00 f   c40_hyd_hyb_2_opt_cont_test_new.obj
 0001:00081d80       finalize_c40_hyd_hyb_2_opt_cont_test_new 0000000180082d80 f   c40_hyd_hyb_2_opt_cont_test_new.obj
 0001:00081d90       sf_opaque_init_subchart_simstructs 0000000180082d90 f   c40_hyd_hyb_2_opt_cont_test_new.obj
 0001:00081db0       initSimStructsc40_hyd_hyb_2_opt_cont_test_new 0000000180082db0 f   c40_hyd_hyb_2_opt_cont_test_new.obj
 0001:00081dc0       mdlRTW_c40_hyd_hyb_2_opt_cont_test_new 0000000180082dc0 f   c40_hyd_hyb_2_opt_cont_test_new.obj
 0001:000825e0       get_sim_state_c41_hyd_hyb_2_opt_cont_test_new 00000001800835e0 f   c41_hyd_hyb_2_opt_cont_test_new.obj
 0001:00082770       sf_get_sim_state_info_c41_hyd_hyb_2_opt_cont_test_new 0000000180083770 f   c41_hyd_hyb_2_opt_cont_test_new.obj
 0001:00082950       set_sim_state_c41_hyd_hyb_2_opt_cont_test_new 0000000180083950 f   c41_hyd_hyb_2_opt_cont_test_new.obj
 0001:00082a20       c41_update_debugger_state_c41_hyd_hyb_2_opt_cont_test_new 0000000180083a20 f   c41_hyd_hyb_2_opt_cont_test_new.obj
 0001:00082a30       c41_emlrt_marshallIn       0000000180083a30 f   c41_hyd_hyb_2_opt_cont_test_new.obj
 0001:00082aa0       c41_b_emlrt_marshallIn     0000000180083aa0 f   c41_hyd_hyb_2_opt_cont_test_new.obj
 0001:00082b30       c41_d_emlrt_marshallIn     0000000180083b30 f   c41_hyd_hyb_2_opt_cont_test_new.obj
 0001:00082b90       c41_e_emlrt_marshallIn     0000000180083b90 f   c41_hyd_hyb_2_opt_cont_test_new.obj
 0001:00082c90       mdlProcessParameters_c41_hyd_hyb_2_opt_cont_test_new 0000000180083c90 f   c41_hyd_hyb_2_opt_cont_test_new.obj
 0001:00082d50       initialize_params_c41_hyd_hyb_2_opt_cont_test_new 0000000180083d50 f   c41_hyd_hyb_2_opt_cont_test_new.obj
 0001:00082d60       mdlSetWorkWidths_c41_hyd_hyb_2_opt_cont_test_new 0000000180083d60 f   c41_hyd_hyb_2_opt_cont_test_new.obj
 0001:000830e0       mdlStart_c41_hyd_hyb_2_opt_cont_test_new 00000001800840e0 f   c41_hyd_hyb_2_opt_cont_test_new.obj
 0001:000832e0       init_dsm_address_info      00000001800842e0 f   c41_hyd_hyb_2_opt_cont_test_new.obj
 0001:000832f0       chart_debug_initialization 00000001800842f0 f   c41_hyd_hyb_2_opt_cont_test_new.obj
 0001:00083c60       init_script_number_translation 0000000180084c60 f   c41_hyd_hyb_2_opt_cont_test_new.obj
 0001:00083c70       c41_sf_marshallOut         0000000180084c70 f   c41_hyd_hyb_2_opt_cont_test_new.obj
 0001:00083d20       c41_sf_marshallIn          0000000180084d20 f   c41_hyd_hyb_2_opt_cont_test_new.obj
 0001:00083dc0       c41_b_sf_marshallOut       0000000180084dc0 f   c41_hyd_hyb_2_opt_cont_test_new.obj
 0001:00083fe0       sf_opaque_initialize_c41_hyd_hyb_2_opt_cont_test_new 0000000180084fe0 f   c41_hyd_hyb_2_opt_cont_test_new.obj
 0001:00084020       initialize_c41_hyd_hyb_2_opt_cont_test_new 0000000180085020 f   c41_hyd_hyb_2_opt_cont_test_new.obj
 0001:00084060       sf_opaque_enable_c41_hyd_hyb_2_opt_cont_test_new 0000000180085060 f   c41_hyd_hyb_2_opt_cont_test_new.obj
 0001:00084080       enable_c41_hyd_hyb_2_opt_cont_test_new 0000000180085080 f   c41_hyd_hyb_2_opt_cont_test_new.obj
 0001:000840b0       sf_opaque_disable_c41_hyd_hyb_2_opt_cont_test_new 00000001800850b0 f   c41_hyd_hyb_2_opt_cont_test_new.obj
 0001:000840d0       disable_c41_hyd_hyb_2_opt_cont_test_new 00000001800850d0 f   c41_hyd_hyb_2_opt_cont_test_new.obj
 0001:00084100       sf_opaque_gateway_c41_hyd_hyb_2_opt_cont_test_new 0000000180085100 f   c41_hyd_hyb_2_opt_cont_test_new.obj
 0001:00084120       sf_c41_hyd_hyb_2_opt_cont_test_new 0000000180085120 f   c41_hyd_hyb_2_opt_cont_test_new.obj
 0001:00084d10       sf_opaque_get_sim_state_c41_hyd_hyb_2_opt_cont_test_new 0000000180085d10 f   c41_hyd_hyb_2_opt_cont_test_new.obj
 0001:00084d30       sf_opaque_set_sim_state_c41_hyd_hyb_2_opt_cont_test_new 0000000180085d30 f   c41_hyd_hyb_2_opt_cont_test_new.obj
 0001:00084d60       sf_opaque_terminate_c41_hyd_hyb_2_opt_cont_test_new 0000000180085d60 f   c41_hyd_hyb_2_opt_cont_test_new.obj
 0001:00084de0       finalize_c41_hyd_hyb_2_opt_cont_test_new 0000000180085de0 f   c41_hyd_hyb_2_opt_cont_test_new.obj
 0001:00084df0       sf_opaque_init_subchart_simstructs 0000000180085df0 f   c41_hyd_hyb_2_opt_cont_test_new.obj
 0001:00084e10       initSimStructsc41_hyd_hyb_2_opt_cont_test_new 0000000180085e10 f   c41_hyd_hyb_2_opt_cont_test_new.obj
 0001:00084e20       mdlRTW_c41_hyd_hyb_2_opt_cont_test_new 0000000180085e20 f   c41_hyd_hyb_2_opt_cont_test_new.obj
 0001:00085640       get_sim_state_c42_hyd_hyb_2_opt_cont_test_new 0000000180086640 f   c42_hyd_hyb_2_opt_cont_test_new.obj
 0001:000857d0       sf_get_sim_state_info_c42_hyd_hyb_2_opt_cont_test_new 00000001800867d0 f   c42_hyd_hyb_2_opt_cont_test_new.obj
 0001:000859b0       set_sim_state_c42_hyd_hyb_2_opt_cont_test_new 00000001800869b0 f   c42_hyd_hyb_2_opt_cont_test_new.obj
 0001:00085a80       c42_update_debugger_state_c42_hyd_hyb_2_opt_cont_test_new 0000000180086a80 f   c42_hyd_hyb_2_opt_cont_test_new.obj
 0001:00085a90       c42_emlrt_marshallIn       0000000180086a90 f   c42_hyd_hyb_2_opt_cont_test_new.obj
 0001:00085b00       c42_b_emlrt_marshallIn     0000000180086b00 f   c42_hyd_hyb_2_opt_cont_test_new.obj
 0001:00085b90       c42_d_emlrt_marshallIn     0000000180086b90 f   c42_hyd_hyb_2_opt_cont_test_new.obj
 0001:00085bf0       c42_e_emlrt_marshallIn     0000000180086bf0 f   c42_hyd_hyb_2_opt_cont_test_new.obj
 0001:00085cf0       mdlProcessParameters_c42_hyd_hyb_2_opt_cont_test_new 0000000180086cf0 f   c42_hyd_hyb_2_opt_cont_test_new.obj
 0001:00085db0       initialize_params_c42_hyd_hyb_2_opt_cont_test_new 0000000180086db0 f   c42_hyd_hyb_2_opt_cont_test_new.obj
 0001:00085dc0       mdlSetWorkWidths_c42_hyd_hyb_2_opt_cont_test_new 0000000180086dc0 f   c42_hyd_hyb_2_opt_cont_test_new.obj
 0001:00086140       mdlStart_c42_hyd_hyb_2_opt_cont_test_new 0000000180087140 f   c42_hyd_hyb_2_opt_cont_test_new.obj
 0001:00086340       init_dsm_address_info      0000000180087340 f   c42_hyd_hyb_2_opt_cont_test_new.obj
 0001:00086350       chart_debug_initialization 0000000180087350 f   c42_hyd_hyb_2_opt_cont_test_new.obj
 0001:00086cc0       init_script_number_translation 0000000180087cc0 f   c42_hyd_hyb_2_opt_cont_test_new.obj
 0001:00086cd0       c42_sf_marshallOut         0000000180087cd0 f   c42_hyd_hyb_2_opt_cont_test_new.obj
 0001:00086d80       c42_sf_marshallIn          0000000180087d80 f   c42_hyd_hyb_2_opt_cont_test_new.obj
 0001:00086e20       c42_b_sf_marshallOut       0000000180087e20 f   c42_hyd_hyb_2_opt_cont_test_new.obj
 0001:00087040       sf_opaque_initialize_c42_hyd_hyb_2_opt_cont_test_new 0000000180088040 f   c42_hyd_hyb_2_opt_cont_test_new.obj
 0001:00087080       initialize_c42_hyd_hyb_2_opt_cont_test_new 0000000180088080 f   c42_hyd_hyb_2_opt_cont_test_new.obj
 0001:000870c0       sf_opaque_enable_c42_hyd_hyb_2_opt_cont_test_new 00000001800880c0 f   c42_hyd_hyb_2_opt_cont_test_new.obj
 0001:000870e0       enable_c42_hyd_hyb_2_opt_cont_test_new 00000001800880e0 f   c42_hyd_hyb_2_opt_cont_test_new.obj
 0001:00087110       sf_opaque_disable_c42_hyd_hyb_2_opt_cont_test_new 0000000180088110 f   c42_hyd_hyb_2_opt_cont_test_new.obj
 0001:00087130       disable_c42_hyd_hyb_2_opt_cont_test_new 0000000180088130 f   c42_hyd_hyb_2_opt_cont_test_new.obj
 0001:00087160       sf_opaque_gateway_c42_hyd_hyb_2_opt_cont_test_new 0000000180088160 f   c42_hyd_hyb_2_opt_cont_test_new.obj
 0001:00087180       sf_c42_hyd_hyb_2_opt_cont_test_new 0000000180088180 f   c42_hyd_hyb_2_opt_cont_test_new.obj
 0001:00087d50       sf_opaque_get_sim_state_c42_hyd_hyb_2_opt_cont_test_new 0000000180088d50 f   c42_hyd_hyb_2_opt_cont_test_new.obj
 0001:00087d70       sf_opaque_set_sim_state_c42_hyd_hyb_2_opt_cont_test_new 0000000180088d70 f   c42_hyd_hyb_2_opt_cont_test_new.obj
 0001:00087da0       sf_opaque_terminate_c42_hyd_hyb_2_opt_cont_test_new 0000000180088da0 f   c42_hyd_hyb_2_opt_cont_test_new.obj
 0001:00087e20       finalize_c42_hyd_hyb_2_opt_cont_test_new 0000000180088e20 f   c42_hyd_hyb_2_opt_cont_test_new.obj
 0001:00087e30       sf_opaque_init_subchart_simstructs 0000000180088e30 f   c42_hyd_hyb_2_opt_cont_test_new.obj
 0001:00087e50       initSimStructsc42_hyd_hyb_2_opt_cont_test_new 0000000180088e50 f   c42_hyd_hyb_2_opt_cont_test_new.obj
 0001:00087e60       mdlRTW_c42_hyd_hyb_2_opt_cont_test_new 0000000180088e60 f   c42_hyd_hyb_2_opt_cont_test_new.obj
 0001:00088680       get_sim_state_c43_hyd_hyb_2_opt_cont_test_new 0000000180089680 f   c43_hyd_hyb_2_opt_cont_test_new.obj
 0001:00088810       sf_get_sim_state_info_c43_hyd_hyb_2_opt_cont_test_new 0000000180089810 f   c43_hyd_hyb_2_opt_cont_test_new.obj
 0001:000889f0       set_sim_state_c43_hyd_hyb_2_opt_cont_test_new 00000001800899f0 f   c43_hyd_hyb_2_opt_cont_test_new.obj
 0001:00088ac0       c43_update_debugger_state_c43_hyd_hyb_2_opt_cont_test_new 0000000180089ac0 f   c43_hyd_hyb_2_opt_cont_test_new.obj
 0001:00088ad0       c43_emlrt_marshallIn       0000000180089ad0 f   c43_hyd_hyb_2_opt_cont_test_new.obj
 0001:00088b40       c43_b_emlrt_marshallIn     0000000180089b40 f   c43_hyd_hyb_2_opt_cont_test_new.obj
 0001:00088bd0       c43_d_emlrt_marshallIn     0000000180089bd0 f   c43_hyd_hyb_2_opt_cont_test_new.obj
 0001:00088c30       c43_e_emlrt_marshallIn     0000000180089c30 f   c43_hyd_hyb_2_opt_cont_test_new.obj
 0001:00088d30       mdlProcessParameters_c43_hyd_hyb_2_opt_cont_test_new 0000000180089d30 f   c43_hyd_hyb_2_opt_cont_test_new.obj
 0001:00088df0       initialize_params_c43_hyd_hyb_2_opt_cont_test_new 0000000180089df0 f   c43_hyd_hyb_2_opt_cont_test_new.obj
 0001:00088e00       mdlSetWorkWidths_c43_hyd_hyb_2_opt_cont_test_new 0000000180089e00 f   c43_hyd_hyb_2_opt_cont_test_new.obj
 0001:00089180       mdlStart_c43_hyd_hyb_2_opt_cont_test_new 000000018008a180 f   c43_hyd_hyb_2_opt_cont_test_new.obj
 0001:00089380       init_dsm_address_info      000000018008a380 f   c43_hyd_hyb_2_opt_cont_test_new.obj
 0001:00089390       chart_debug_initialization 000000018008a390 f   c43_hyd_hyb_2_opt_cont_test_new.obj
 0001:00089d00       init_script_number_translation 000000018008ad00 f   c43_hyd_hyb_2_opt_cont_test_new.obj
 0001:00089d10       c43_sf_marshallOut         000000018008ad10 f   c43_hyd_hyb_2_opt_cont_test_new.obj
 0001:00089dc0       c43_sf_marshallIn          000000018008adc0 f   c43_hyd_hyb_2_opt_cont_test_new.obj
 0001:00089e60       c43_b_sf_marshallOut       000000018008ae60 f   c43_hyd_hyb_2_opt_cont_test_new.obj
 0001:0008a0b0       sf_opaque_initialize_c43_hyd_hyb_2_opt_cont_test_new 000000018008b0b0 f   c43_hyd_hyb_2_opt_cont_test_new.obj
 0001:0008a0f0       initialize_c43_hyd_hyb_2_opt_cont_test_new 000000018008b0f0 f   c43_hyd_hyb_2_opt_cont_test_new.obj
 0001:0008a130       sf_opaque_enable_c43_hyd_hyb_2_opt_cont_test_new 000000018008b130 f   c43_hyd_hyb_2_opt_cont_test_new.obj
 0001:0008a150       enable_c43_hyd_hyb_2_opt_cont_test_new 000000018008b150 f   c43_hyd_hyb_2_opt_cont_test_new.obj
 0001:0008a180       sf_opaque_disable_c43_hyd_hyb_2_opt_cont_test_new 000000018008b180 f   c43_hyd_hyb_2_opt_cont_test_new.obj
 0001:0008a1a0       disable_c43_hyd_hyb_2_opt_cont_test_new 000000018008b1a0 f   c43_hyd_hyb_2_opt_cont_test_new.obj
 0001:0008a1d0       sf_opaque_gateway_c43_hyd_hyb_2_opt_cont_test_new 000000018008b1d0 f   c43_hyd_hyb_2_opt_cont_test_new.obj
 0001:0008a1f0       sf_c43_hyd_hyb_2_opt_cont_test_new 000000018008b1f0 f   c43_hyd_hyb_2_opt_cont_test_new.obj
 0001:0008adf0       sf_opaque_get_sim_state_c43_hyd_hyb_2_opt_cont_test_new 000000018008bdf0 f   c43_hyd_hyb_2_opt_cont_test_new.obj
 0001:0008ae10       sf_opaque_set_sim_state_c43_hyd_hyb_2_opt_cont_test_new 000000018008be10 f   c43_hyd_hyb_2_opt_cont_test_new.obj
 0001:0008ae40       sf_opaque_terminate_c43_hyd_hyb_2_opt_cont_test_new 000000018008be40 f   c43_hyd_hyb_2_opt_cont_test_new.obj
 0001:0008aec0       finalize_c43_hyd_hyb_2_opt_cont_test_new 000000018008bec0 f   c43_hyd_hyb_2_opt_cont_test_new.obj
 0001:0008aed0       sf_opaque_init_subchart_simstructs 000000018008bed0 f   c43_hyd_hyb_2_opt_cont_test_new.obj
 0001:0008aef0       initSimStructsc43_hyd_hyb_2_opt_cont_test_new 000000018008bef0 f   c43_hyd_hyb_2_opt_cont_test_new.obj
 0001:0008af00       mdlRTW_c43_hyd_hyb_2_opt_cont_test_new 000000018008bf00 f   c43_hyd_hyb_2_opt_cont_test_new.obj
 0001:0008b720       get_sim_state_c44_hyd_hyb_2_opt_cont_test_new 000000018008c720 f   c44_hyd_hyb_2_opt_cont_test_new.obj
 0001:0008b8b0       sf_get_sim_state_info_c44_hyd_hyb_2_opt_cont_test_new 000000018008c8b0 f   c44_hyd_hyb_2_opt_cont_test_new.obj
 0001:0008ba90       set_sim_state_c44_hyd_hyb_2_opt_cont_test_new 000000018008ca90 f   c44_hyd_hyb_2_opt_cont_test_new.obj
 0001:0008bb60       c44_update_debugger_state_c44_hyd_hyb_2_opt_cont_test_new 000000018008cb60 f   c44_hyd_hyb_2_opt_cont_test_new.obj
 0001:0008bb70       c44_emlrt_marshallIn       000000018008cb70 f   c44_hyd_hyb_2_opt_cont_test_new.obj
 0001:0008bbe0       c44_b_emlrt_marshallIn     000000018008cbe0 f   c44_hyd_hyb_2_opt_cont_test_new.obj
 0001:0008bc70       c44_d_emlrt_marshallIn     000000018008cc70 f   c44_hyd_hyb_2_opt_cont_test_new.obj
 0001:0008bcd0       c44_e_emlrt_marshallIn     000000018008ccd0 f   c44_hyd_hyb_2_opt_cont_test_new.obj
 0001:0008bdd0       mdlProcessParameters_c44_hyd_hyb_2_opt_cont_test_new 000000018008cdd0 f   c44_hyd_hyb_2_opt_cont_test_new.obj
 0001:0008be90       initialize_params_c44_hyd_hyb_2_opt_cont_test_new 000000018008ce90 f   c44_hyd_hyb_2_opt_cont_test_new.obj
 0001:0008bea0       mdlSetWorkWidths_c44_hyd_hyb_2_opt_cont_test_new 000000018008cea0 f   c44_hyd_hyb_2_opt_cont_test_new.obj
 0001:0008c220       mdlStart_c44_hyd_hyb_2_opt_cont_test_new 000000018008d220 f   c44_hyd_hyb_2_opt_cont_test_new.obj
 0001:0008c420       init_dsm_address_info      000000018008d420 f   c44_hyd_hyb_2_opt_cont_test_new.obj
 0001:0008c430       chart_debug_initialization 000000018008d430 f   c44_hyd_hyb_2_opt_cont_test_new.obj
 0001:0008cda0       init_script_number_translation 000000018008dda0 f   c44_hyd_hyb_2_opt_cont_test_new.obj
 0001:0008cdb0       c44_sf_marshallOut         000000018008ddb0 f   c44_hyd_hyb_2_opt_cont_test_new.obj
 0001:0008ce60       c44_sf_marshallIn          000000018008de60 f   c44_hyd_hyb_2_opt_cont_test_new.obj
 0001:0008cf00       c44_b_sf_marshallOut       000000018008df00 f   c44_hyd_hyb_2_opt_cont_test_new.obj
 0001:0008d140       sf_opaque_initialize_c44_hyd_hyb_2_opt_cont_test_new 000000018008e140 f   c44_hyd_hyb_2_opt_cont_test_new.obj
 0001:0008d180       initialize_c44_hyd_hyb_2_opt_cont_test_new 000000018008e180 f   c44_hyd_hyb_2_opt_cont_test_new.obj
 0001:0008d1c0       sf_opaque_enable_c44_hyd_hyb_2_opt_cont_test_new 000000018008e1c0 f   c44_hyd_hyb_2_opt_cont_test_new.obj
 0001:0008d1e0       enable_c44_hyd_hyb_2_opt_cont_test_new 000000018008e1e0 f   c44_hyd_hyb_2_opt_cont_test_new.obj
 0001:0008d210       sf_opaque_disable_c44_hyd_hyb_2_opt_cont_test_new 000000018008e210 f   c44_hyd_hyb_2_opt_cont_test_new.obj
 0001:0008d230       disable_c44_hyd_hyb_2_opt_cont_test_new 000000018008e230 f   c44_hyd_hyb_2_opt_cont_test_new.obj
 0001:0008d260       sf_opaque_gateway_c44_hyd_hyb_2_opt_cont_test_new 000000018008e260 f   c44_hyd_hyb_2_opt_cont_test_new.obj
 0001:0008d280       sf_c44_hyd_hyb_2_opt_cont_test_new 000000018008e280 f   c44_hyd_hyb_2_opt_cont_test_new.obj
 0001:0008de70       sf_opaque_get_sim_state_c44_hyd_hyb_2_opt_cont_test_new 000000018008ee70 f   c44_hyd_hyb_2_opt_cont_test_new.obj
 0001:0008de90       sf_opaque_set_sim_state_c44_hyd_hyb_2_opt_cont_test_new 000000018008ee90 f   c44_hyd_hyb_2_opt_cont_test_new.obj
 0001:0008dec0       sf_opaque_terminate_c44_hyd_hyb_2_opt_cont_test_new 000000018008eec0 f   c44_hyd_hyb_2_opt_cont_test_new.obj
 0001:0008df40       finalize_c44_hyd_hyb_2_opt_cont_test_new 000000018008ef40 f   c44_hyd_hyb_2_opt_cont_test_new.obj
 0001:0008df50       sf_opaque_init_subchart_simstructs 000000018008ef50 f   c44_hyd_hyb_2_opt_cont_test_new.obj
 0001:0008df70       initSimStructsc44_hyd_hyb_2_opt_cont_test_new 000000018008ef70 f   c44_hyd_hyb_2_opt_cont_test_new.obj
 0001:0008df80       mdlRTW_c44_hyd_hyb_2_opt_cont_test_new 000000018008ef80 f   c44_hyd_hyb_2_opt_cont_test_new.obj
 0001:0008e7a0       get_sim_state_c45_hyd_hyb_2_opt_cont_test_new 000000018008f7a0 f   c45_hyd_hyb_2_opt_cont_test_new.obj
 0001:0008e930       sf_get_sim_state_info_c45_hyd_hyb_2_opt_cont_test_new 000000018008f930 f   c45_hyd_hyb_2_opt_cont_test_new.obj
 0001:0008eb10       set_sim_state_c45_hyd_hyb_2_opt_cont_test_new 000000018008fb10 f   c45_hyd_hyb_2_opt_cont_test_new.obj
 0001:0008ebe0       c45_update_debugger_state_c45_hyd_hyb_2_opt_cont_test_new 000000018008fbe0 f   c45_hyd_hyb_2_opt_cont_test_new.obj
 0001:0008ebf0       c45_emlrt_marshallIn       000000018008fbf0 f   c45_hyd_hyb_2_opt_cont_test_new.obj
 0001:0008ec60       c45_b_emlrt_marshallIn     000000018008fc60 f   c45_hyd_hyb_2_opt_cont_test_new.obj
 0001:0008ecf0       c45_d_emlrt_marshallIn     000000018008fcf0 f   c45_hyd_hyb_2_opt_cont_test_new.obj
 0001:0008ed50       c45_e_emlrt_marshallIn     000000018008fd50 f   c45_hyd_hyb_2_opt_cont_test_new.obj
 0001:0008ee50       mdlProcessParameters_c45_hyd_hyb_2_opt_cont_test_new 000000018008fe50 f   c45_hyd_hyb_2_opt_cont_test_new.obj
 0001:0008ef10       initialize_params_c45_hyd_hyb_2_opt_cont_test_new 000000018008ff10 f   c45_hyd_hyb_2_opt_cont_test_new.obj
 0001:0008ef20       mdlSetWorkWidths_c45_hyd_hyb_2_opt_cont_test_new 000000018008ff20 f   c45_hyd_hyb_2_opt_cont_test_new.obj
 0001:0008f2a0       mdlStart_c45_hyd_hyb_2_opt_cont_test_new 00000001800902a0 f   c45_hyd_hyb_2_opt_cont_test_new.obj
 0001:0008f4a0       init_dsm_address_info      00000001800904a0 f   c45_hyd_hyb_2_opt_cont_test_new.obj
 0001:0008f4b0       chart_debug_initialization 00000001800904b0 f   c45_hyd_hyb_2_opt_cont_test_new.obj
 0001:0008fe20       init_script_number_translation 0000000180090e20 f   c45_hyd_hyb_2_opt_cont_test_new.obj
 0001:0008fe30       c45_sf_marshallOut         0000000180090e30 f   c45_hyd_hyb_2_opt_cont_test_new.obj
 0001:0008fee0       c45_sf_marshallIn          0000000180090ee0 f   c45_hyd_hyb_2_opt_cont_test_new.obj
 0001:0008ff80       c45_b_sf_marshallOut       0000000180090f80 f   c45_hyd_hyb_2_opt_cont_test_new.obj
 0001:00090180       sf_opaque_initialize_c45_hyd_hyb_2_opt_cont_test_new 0000000180091180 f   c45_hyd_hyb_2_opt_cont_test_new.obj
 0001:000901c0       initialize_c45_hyd_hyb_2_opt_cont_test_new 00000001800911c0 f   c45_hyd_hyb_2_opt_cont_test_new.obj
 0001:00090200       sf_opaque_enable_c45_hyd_hyb_2_opt_cont_test_new 0000000180091200 f   c45_hyd_hyb_2_opt_cont_test_new.obj
 0001:00090220       enable_c45_hyd_hyb_2_opt_cont_test_new 0000000180091220 f   c45_hyd_hyb_2_opt_cont_test_new.obj
 0001:00090250       sf_opaque_disable_c45_hyd_hyb_2_opt_cont_test_new 0000000180091250 f   c45_hyd_hyb_2_opt_cont_test_new.obj
 0001:00090270       disable_c45_hyd_hyb_2_opt_cont_test_new 0000000180091270 f   c45_hyd_hyb_2_opt_cont_test_new.obj
 0001:000902a0       sf_opaque_gateway_c45_hyd_hyb_2_opt_cont_test_new 00000001800912a0 f   c45_hyd_hyb_2_opt_cont_test_new.obj
 0001:000902c0       sf_c45_hyd_hyb_2_opt_cont_test_new 00000001800912c0 f   c45_hyd_hyb_2_opt_cont_test_new.obj
 0001:00090eb0       sf_opaque_get_sim_state_c45_hyd_hyb_2_opt_cont_test_new 0000000180091eb0 f   c45_hyd_hyb_2_opt_cont_test_new.obj
 0001:00090ed0       sf_opaque_set_sim_state_c45_hyd_hyb_2_opt_cont_test_new 0000000180091ed0 f   c45_hyd_hyb_2_opt_cont_test_new.obj
 0001:00090f00       sf_opaque_terminate_c45_hyd_hyb_2_opt_cont_test_new 0000000180091f00 f   c45_hyd_hyb_2_opt_cont_test_new.obj
 0001:00090f80       finalize_c45_hyd_hyb_2_opt_cont_test_new 0000000180091f80 f   c45_hyd_hyb_2_opt_cont_test_new.obj
 0001:00090f90       sf_opaque_init_subchart_simstructs 0000000180091f90 f   c45_hyd_hyb_2_opt_cont_test_new.obj
 0001:00090fb0       initSimStructsc45_hyd_hyb_2_opt_cont_test_new 0000000180091fb0 f   c45_hyd_hyb_2_opt_cont_test_new.obj
 0001:00090fc0       mdlRTW_c45_hyd_hyb_2_opt_cont_test_new 0000000180091fc0 f   c45_hyd_hyb_2_opt_cont_test_new.obj
 0001:000917e0       get_sim_state_c46_hyd_hyb_2_opt_cont_test_new 00000001800927e0 f   c46_hyd_hyb_2_opt_cont_test_new.obj
 0001:00091970       sf_get_sim_state_info_c46_hyd_hyb_2_opt_cont_test_new 0000000180092970 f   c46_hyd_hyb_2_opt_cont_test_new.obj
 0001:00091b50       set_sim_state_c46_hyd_hyb_2_opt_cont_test_new 0000000180092b50 f   c46_hyd_hyb_2_opt_cont_test_new.obj
 0001:00091c20       c46_update_debugger_state_c46_hyd_hyb_2_opt_cont_test_new 0000000180092c20 f   c46_hyd_hyb_2_opt_cont_test_new.obj
 0001:00091c30       c46_emlrt_marshallIn       0000000180092c30 f   c46_hyd_hyb_2_opt_cont_test_new.obj
 0001:00091ca0       c46_b_emlrt_marshallIn     0000000180092ca0 f   c46_hyd_hyb_2_opt_cont_test_new.obj
 0001:00091d30       c46_d_emlrt_marshallIn     0000000180092d30 f   c46_hyd_hyb_2_opt_cont_test_new.obj
 0001:00091d90       c46_e_emlrt_marshallIn     0000000180092d90 f   c46_hyd_hyb_2_opt_cont_test_new.obj
 0001:00091e90       mdlProcessParameters_c46_hyd_hyb_2_opt_cont_test_new 0000000180092e90 f   c46_hyd_hyb_2_opt_cont_test_new.obj
 0001:00091f50       initialize_params_c46_hyd_hyb_2_opt_cont_test_new 0000000180092f50 f   c46_hyd_hyb_2_opt_cont_test_new.obj
 0001:00091f60       mdlSetWorkWidths_c46_hyd_hyb_2_opt_cont_test_new 0000000180092f60 f   c46_hyd_hyb_2_opt_cont_test_new.obj
 0001:000922e0       mdlStart_c46_hyd_hyb_2_opt_cont_test_new 00000001800932e0 f   c46_hyd_hyb_2_opt_cont_test_new.obj
 0001:000924e0       init_dsm_address_info      00000001800934e0 f   c46_hyd_hyb_2_opt_cont_test_new.obj
 0001:000924f0       chart_debug_initialization 00000001800934f0 f   c46_hyd_hyb_2_opt_cont_test_new.obj
 0001:00092e60       init_script_number_translation 0000000180093e60 f   c46_hyd_hyb_2_opt_cont_test_new.obj
 0001:00092e70       c46_sf_marshallOut         0000000180093e70 f   c46_hyd_hyb_2_opt_cont_test_new.obj
 0001:00092f20       c46_sf_marshallIn          0000000180093f20 f   c46_hyd_hyb_2_opt_cont_test_new.obj
 0001:00092fc0       c46_b_sf_marshallOut       0000000180093fc0 f   c46_hyd_hyb_2_opt_cont_test_new.obj
 0001:00093200       sf_opaque_initialize_c46_hyd_hyb_2_opt_cont_test_new 0000000180094200 f   c46_hyd_hyb_2_opt_cont_test_new.obj
 0001:00093240       initialize_c46_hyd_hyb_2_opt_cont_test_new 0000000180094240 f   c46_hyd_hyb_2_opt_cont_test_new.obj
 0001:00093280       sf_opaque_enable_c46_hyd_hyb_2_opt_cont_test_new 0000000180094280 f   c46_hyd_hyb_2_opt_cont_test_new.obj
 0001:000932a0       enable_c46_hyd_hyb_2_opt_cont_test_new 00000001800942a0 f   c46_hyd_hyb_2_opt_cont_test_new.obj
 0001:000932d0       sf_opaque_disable_c46_hyd_hyb_2_opt_cont_test_new 00000001800942d0 f   c46_hyd_hyb_2_opt_cont_test_new.obj
 0001:000932f0       disable_c46_hyd_hyb_2_opt_cont_test_new 00000001800942f0 f   c46_hyd_hyb_2_opt_cont_test_new.obj
 0001:00093320       sf_opaque_gateway_c46_hyd_hyb_2_opt_cont_test_new 0000000180094320 f   c46_hyd_hyb_2_opt_cont_test_new.obj
 0001:00093340       sf_c46_hyd_hyb_2_opt_cont_test_new 0000000180094340 f   c46_hyd_hyb_2_opt_cont_test_new.obj
 0001:00093f40       sf_opaque_get_sim_state_c46_hyd_hyb_2_opt_cont_test_new 0000000180094f40 f   c46_hyd_hyb_2_opt_cont_test_new.obj
 0001:00093f60       sf_opaque_set_sim_state_c46_hyd_hyb_2_opt_cont_test_new 0000000180094f60 f   c46_hyd_hyb_2_opt_cont_test_new.obj
 0001:00093f90       sf_opaque_terminate_c46_hyd_hyb_2_opt_cont_test_new 0000000180094f90 f   c46_hyd_hyb_2_opt_cont_test_new.obj
 0001:00094010       finalize_c46_hyd_hyb_2_opt_cont_test_new 0000000180095010 f   c46_hyd_hyb_2_opt_cont_test_new.obj
 0001:00094020       sf_opaque_init_subchart_simstructs 0000000180095020 f   c46_hyd_hyb_2_opt_cont_test_new.obj
 0001:00094040       initSimStructsc46_hyd_hyb_2_opt_cont_test_new 0000000180095040 f   c46_hyd_hyb_2_opt_cont_test_new.obj
 0001:00094050       mdlRTW_c46_hyd_hyb_2_opt_cont_test_new 0000000180095050 f   c46_hyd_hyb_2_opt_cont_test_new.obj
 0001:00094870       get_sim_state_c47_hyd_hyb_2_opt_cont_test_new 0000000180095870 f   c47_hyd_hyb_2_opt_cont_test_new.obj
 0001:00094a00       sf_get_sim_state_info_c47_hyd_hyb_2_opt_cont_test_new 0000000180095a00 f   c47_hyd_hyb_2_opt_cont_test_new.obj
 0001:00094be0       set_sim_state_c47_hyd_hyb_2_opt_cont_test_new 0000000180095be0 f   c47_hyd_hyb_2_opt_cont_test_new.obj
 0001:00094cb0       c47_update_debugger_state_c47_hyd_hyb_2_opt_cont_test_new 0000000180095cb0 f   c47_hyd_hyb_2_opt_cont_test_new.obj
 0001:00094cc0       c47_emlrt_marshallIn       0000000180095cc0 f   c47_hyd_hyb_2_opt_cont_test_new.obj
 0001:00094d30       c47_b_emlrt_marshallIn     0000000180095d30 f   c47_hyd_hyb_2_opt_cont_test_new.obj
 0001:00094dc0       c47_d_emlrt_marshallIn     0000000180095dc0 f   c47_hyd_hyb_2_opt_cont_test_new.obj
 0001:00094e20       c47_e_emlrt_marshallIn     0000000180095e20 f   c47_hyd_hyb_2_opt_cont_test_new.obj
 0001:00094f20       mdlProcessParameters_c47_hyd_hyb_2_opt_cont_test_new 0000000180095f20 f   c47_hyd_hyb_2_opt_cont_test_new.obj
 0001:00094fe0       initialize_params_c47_hyd_hyb_2_opt_cont_test_new 0000000180095fe0 f   c47_hyd_hyb_2_opt_cont_test_new.obj
 0001:00094ff0       mdlSetWorkWidths_c47_hyd_hyb_2_opt_cont_test_new 0000000180095ff0 f   c47_hyd_hyb_2_opt_cont_test_new.obj
 0001:00095370       mdlStart_c47_hyd_hyb_2_opt_cont_test_new 0000000180096370 f   c47_hyd_hyb_2_opt_cont_test_new.obj
 0001:00095570       init_dsm_address_info      0000000180096570 f   c47_hyd_hyb_2_opt_cont_test_new.obj
 0001:00095580       chart_debug_initialization 0000000180096580 f   c47_hyd_hyb_2_opt_cont_test_new.obj
 0001:00095ef0       init_script_number_translation 0000000180096ef0 f   c47_hyd_hyb_2_opt_cont_test_new.obj
 0001:00095f00       c47_sf_marshallOut         0000000180096f00 f   c47_hyd_hyb_2_opt_cont_test_new.obj
 0001:00095fb0       c47_sf_marshallIn          0000000180096fb0 f   c47_hyd_hyb_2_opt_cont_test_new.obj
 0001:00096050       c47_b_sf_marshallOut       0000000180097050 f   c47_hyd_hyb_2_opt_cont_test_new.obj
 0001:00096260       sf_opaque_initialize_c47_hyd_hyb_2_opt_cont_test_new 0000000180097260 f   c47_hyd_hyb_2_opt_cont_test_new.obj
 0001:000962a0       initialize_c47_hyd_hyb_2_opt_cont_test_new 00000001800972a0 f   c47_hyd_hyb_2_opt_cont_test_new.obj
 0001:000962e0       sf_opaque_enable_c47_hyd_hyb_2_opt_cont_test_new 00000001800972e0 f   c47_hyd_hyb_2_opt_cont_test_new.obj
 0001:00096300       enable_c47_hyd_hyb_2_opt_cont_test_new 0000000180097300 f   c47_hyd_hyb_2_opt_cont_test_new.obj
 0001:00096330       sf_opaque_disable_c47_hyd_hyb_2_opt_cont_test_new 0000000180097330 f   c47_hyd_hyb_2_opt_cont_test_new.obj
 0001:00096350       disable_c47_hyd_hyb_2_opt_cont_test_new 0000000180097350 f   c47_hyd_hyb_2_opt_cont_test_new.obj
 0001:00096380       sf_opaque_gateway_c47_hyd_hyb_2_opt_cont_test_new 0000000180097380 f   c47_hyd_hyb_2_opt_cont_test_new.obj
 0001:000963a0       sf_c47_hyd_hyb_2_opt_cont_test_new 00000001800973a0 f   c47_hyd_hyb_2_opt_cont_test_new.obj
 0001:00096f90       sf_opaque_get_sim_state_c47_hyd_hyb_2_opt_cont_test_new 0000000180097f90 f   c47_hyd_hyb_2_opt_cont_test_new.obj
 0001:00096fb0       sf_opaque_set_sim_state_c47_hyd_hyb_2_opt_cont_test_new 0000000180097fb0 f   c47_hyd_hyb_2_opt_cont_test_new.obj
 0001:00096fe0       sf_opaque_terminate_c47_hyd_hyb_2_opt_cont_test_new 0000000180097fe0 f   c47_hyd_hyb_2_opt_cont_test_new.obj
 0001:00097060       finalize_c47_hyd_hyb_2_opt_cont_test_new 0000000180098060 f   c47_hyd_hyb_2_opt_cont_test_new.obj
 0001:00097070       sf_opaque_init_subchart_simstructs 0000000180098070 f   c47_hyd_hyb_2_opt_cont_test_new.obj
 0001:00097090       initSimStructsc47_hyd_hyb_2_opt_cont_test_new 0000000180098090 f   c47_hyd_hyb_2_opt_cont_test_new.obj
 0001:000970a0       mdlRTW_c47_hyd_hyb_2_opt_cont_test_new 00000001800980a0 f   c47_hyd_hyb_2_opt_cont_test_new.obj
 0001:000978c0       get_sim_state_c48_hyd_hyb_2_opt_cont_test_new 00000001800988c0 f   c48_hyd_hyb_2_opt_cont_test_new.obj
 0001:00097a50       sf_get_sim_state_info_c48_hyd_hyb_2_opt_cont_test_new 0000000180098a50 f   c48_hyd_hyb_2_opt_cont_test_new.obj
 0001:00097c30       set_sim_state_c48_hyd_hyb_2_opt_cont_test_new 0000000180098c30 f   c48_hyd_hyb_2_opt_cont_test_new.obj
 0001:00097d00       c48_update_debugger_state_c48_hyd_hyb_2_opt_cont_test_new 0000000180098d00 f   c48_hyd_hyb_2_opt_cont_test_new.obj
 0001:00097d10       c48_emlrt_marshallIn       0000000180098d10 f   c48_hyd_hyb_2_opt_cont_test_new.obj
 0001:00097d80       c48_b_emlrt_marshallIn     0000000180098d80 f   c48_hyd_hyb_2_opt_cont_test_new.obj
 0001:00097e10       c48_d_emlrt_marshallIn     0000000180098e10 f   c48_hyd_hyb_2_opt_cont_test_new.obj
 0001:00097e70       c48_e_emlrt_marshallIn     0000000180098e70 f   c48_hyd_hyb_2_opt_cont_test_new.obj
 0001:00097f70       mdlProcessParameters_c48_hyd_hyb_2_opt_cont_test_new 0000000180098f70 f   c48_hyd_hyb_2_opt_cont_test_new.obj
 0001:00098030       initialize_params_c48_hyd_hyb_2_opt_cont_test_new 0000000180099030 f   c48_hyd_hyb_2_opt_cont_test_new.obj
 0001:00098040       mdlSetWorkWidths_c48_hyd_hyb_2_opt_cont_test_new 0000000180099040 f   c48_hyd_hyb_2_opt_cont_test_new.obj
 0001:000983c0       mdlStart_c48_hyd_hyb_2_opt_cont_test_new 00000001800993c0 f   c48_hyd_hyb_2_opt_cont_test_new.obj
 0001:000985c0       init_dsm_address_info      00000001800995c0 f   c48_hyd_hyb_2_opt_cont_test_new.obj
 0001:000985d0       chart_debug_initialization 00000001800995d0 f   c48_hyd_hyb_2_opt_cont_test_new.obj
 0001:00098f40       init_script_number_translation 0000000180099f40 f   c48_hyd_hyb_2_opt_cont_test_new.obj
 0001:00098f50       c48_sf_marshallOut         0000000180099f50 f   c48_hyd_hyb_2_opt_cont_test_new.obj
 0001:00099000       c48_sf_marshallIn          000000018009a000 f   c48_hyd_hyb_2_opt_cont_test_new.obj
 0001:000990a0       c48_b_sf_marshallOut       000000018009a0a0 f   c48_hyd_hyb_2_opt_cont_test_new.obj
 0001:000992b0       sf_opaque_initialize_c48_hyd_hyb_2_opt_cont_test_new 000000018009a2b0 f   c48_hyd_hyb_2_opt_cont_test_new.obj
 0001:000992f0       initialize_c48_hyd_hyb_2_opt_cont_test_new 000000018009a2f0 f   c48_hyd_hyb_2_opt_cont_test_new.obj
 0001:00099330       sf_opaque_enable_c48_hyd_hyb_2_opt_cont_test_new 000000018009a330 f   c48_hyd_hyb_2_opt_cont_test_new.obj
 0001:00099350       enable_c48_hyd_hyb_2_opt_cont_test_new 000000018009a350 f   c48_hyd_hyb_2_opt_cont_test_new.obj
 0001:00099380       sf_opaque_disable_c48_hyd_hyb_2_opt_cont_test_new 000000018009a380 f   c48_hyd_hyb_2_opt_cont_test_new.obj
 0001:000993a0       disable_c48_hyd_hyb_2_opt_cont_test_new 000000018009a3a0 f   c48_hyd_hyb_2_opt_cont_test_new.obj
 0001:000993d0       sf_opaque_gateway_c48_hyd_hyb_2_opt_cont_test_new 000000018009a3d0 f   c48_hyd_hyb_2_opt_cont_test_new.obj
 0001:000993f0       sf_c48_hyd_hyb_2_opt_cont_test_new 000000018009a3f0 f   c48_hyd_hyb_2_opt_cont_test_new.obj
 0001:00099ff0       sf_opaque_get_sim_state_c48_hyd_hyb_2_opt_cont_test_new 000000018009aff0 f   c48_hyd_hyb_2_opt_cont_test_new.obj
 0001:0009a010       sf_opaque_set_sim_state_c48_hyd_hyb_2_opt_cont_test_new 000000018009b010 f   c48_hyd_hyb_2_opt_cont_test_new.obj
 0001:0009a040       sf_opaque_terminate_c48_hyd_hyb_2_opt_cont_test_new 000000018009b040 f   c48_hyd_hyb_2_opt_cont_test_new.obj
 0001:0009a0c0       finalize_c48_hyd_hyb_2_opt_cont_test_new 000000018009b0c0 f   c48_hyd_hyb_2_opt_cont_test_new.obj
 0001:0009a0d0       sf_opaque_init_subchart_simstructs 000000018009b0d0 f   c48_hyd_hyb_2_opt_cont_test_new.obj
 0001:0009a0f0       initSimStructsc48_hyd_hyb_2_opt_cont_test_new 000000018009b0f0 f   c48_hyd_hyb_2_opt_cont_test_new.obj
 0001:0009a100       mdlRTW_c48_hyd_hyb_2_opt_cont_test_new 000000018009b100 f   c48_hyd_hyb_2_opt_cont_test_new.obj
 0001:0009bcf0       _ssFatalError              000000018009ccf0 f   hyd_hyb_2_opt_cont_test_new_sfun_registry.obj
 0001:0009eda0       ProcessMexSfunctionCmdLineCall 000000018009fda0 f   hyd_hyb_2_opt_cont_test_new_sfun_registry.obj
 0001:0009ee90       mdlGetTimeOfNextVarHit     000000018009fe90 f   hyd_hyb_2_opt_cont_test_new_sfun_registry.obj
 0001:0009eee0       _ProcessMexSfunctionCmdLineCall 000000018009fee0 f   hyd_hyb_2_opt_cont_test_new_sfun_registry.obj
 0001:0009f5b0       _CreateSimStruct           00000001800a05b0 f   hyd_hyb_2_opt_cont_test_new_sfun_registry.obj
 0001:0009f740       _RegNumInputPortsCB        00000001800a0740 f   hyd_hyb_2_opt_cont_test_new_sfun_registry.obj
 0001:0009f7c0       _RegNumOutputPortsCB       00000001800a07c0 f   hyd_hyb_2_opt_cont_test_new_sfun_registry.obj
 0001:0009f8a0       sf_machine_load_sfunction_ptrs 00000001800a08a0 f   hyd_hyb_2_opt_cont_test_new_sfun_registry.obj
 0001:000a1a30       SNPRINTF_WRAPPER           00000001800a2a30 f   sfc_mex:sfc_mex.obj
 0001:000a1a50       convert_dims_to_string     00000001800a2a50 f   sfc_mex:sfc_mex.obj
 0001:000a1c70       is_real_T_equal_to_double  00000001800a2c70 f   sfc_mex:sfc_mex.obj
 0001:000a1c90       is_real32_T_equal_to_double 00000001800a2c90 f   sfc_mex:sfc_mex.obj
 0001:000a1ca0       is_mxLogical_equal_to_double 00000001800a2ca0 f   sfc_mex:sfc_mex.obj
 0001:000a1cc0       is_int8_T_equal_to_double  00000001800a2cc0 f   sfc_mex:sfc_mex.obj
 0001:000a1ce0       is_uint8_T_equal_to_double 00000001800a2ce0 f   sfc_mex:sfc_mex.obj
 0001:000a1d00       is_int16_T_equal_to_double 00000001800a2d00 f   sfc_mex:sfc_mex.obj
 0001:000a1d20       is_uint16_T_equal_to_double 00000001800a2d20 f   sfc_mex:sfc_mex.obj
 0001:000a1d40       is_int32_T_equal_to_double 00000001800a2d40 f   sfc_mex:sfc_mex.obj
 0001:000a1d60       is_uint32_T_equal_to_double 00000001800a2d60 f   sfc_mex:sfc_mex.obj
 0001:000a1d80       is_char_T_equal_to_double  00000001800a2d80 f   sfc_mex:sfc_mex.obj
 0001:000a1da0       sf_zero_numeric_value      00000001800a2da0 f   sfc_mex:sfc_mex.obj
 0001:000a1dd0       sf_error_append_debugger_context_if_available 00000001800a2dd0 f   sfc_mex:sfc_mex.obj
 0001:000a1e80       sf_mex_get_error_message_for_write 00000001800a2e80 f   sfc_mex:sfc_mex.obj
 0001:000a1eb0       replace_single_quotes_by_doubled_quotes 00000001800a2eb0 f   sfc_mex:sfc_mex.obj
 0001:000a20f0       sf_mex_get_formatted_error_string 00000001800a30f0 f   sfc_mex:sfc_mex.obj
 0001:000a2510       sf_mex_destroy_array       00000001800a3510 f   sfc_mex:sfc_mex.obj
 0001:000a2800       sfrtAddSize                00000001800a3800 f   sfc_mex:sfc_mex.obj
 0001:000a28c0       sfrtGenSizeString          00000001800a38c0 f   sfc_mex:sfc_mex.obj
 0001:000a2930       sfIsProperVector           00000001800a3930 f   sfc_mex:sfc_mex.obj
 0001:000a2960       sfIsRowVector              00000001800a3960 f   sfc_mex:sfc_mex.obj
 0001:000a2a90       sf_ExtractMessageId        00000001800a3a90 f   sfc_mex:sfc_mex.obj
 0001:000a2d60       sf_mex_err                 00000001800a3d60 f   sfc_mex:sfc_mex.obj
 0001:000a2e10       sf_error_dimension_out_of_bound 00000001800a3e10 f   sfc_mex:sfc_mex.obj
 0001:000a2ed0       sf_mex_check_and_set_actual_dimensions 00000001800a3ed0 f   sfc_mex:sfc_mex.obj
 0001:000a3100       sf_mex_check_complex       00000001800a4100 f   sfc_mex:sfc_mex.obj
 0001:000a3190       sf_mex_check_sparse        00000001800a4190 f   sfc_mex:sfc_mex.obj
 0001:000a31f0       sf_mex_check_numerictype   00000001800a41f0 f   sfc_mex:sfc_mex.obj
 0001:000a3380       sf_mex_check_fimath        00000001800a4380 f   sfc_mex:sfc_mex.obj
 0001:000a3e80       size_mismatch_error        00000001800a4e80 f   sfc_mex:sfc_mex.obj
 0001:000a48c0       check_array_dimensions     00000001800a58c0 f   sfc_mex:sfc_mex.obj
 0001:000a4930       check_input_mxarray        00000001800a5930 f   sfc_mex:sfc_mex.obj
 0001:000a5070       sf_numeric_value_to_double 00000001800a6070 f   sfc_mex:sfc_mex.obj
 0001:000a50c0       ml_generic_out_of_bounds_check 00000001800a60c0 f   sfc_mex:sfc_mex.obj
 0001:000a5290       ml_get_element_value_from_array 00000001800a6290 f   sfc_mex:sfc_mex.obj
 0001:000a5630       _ml_generic_castability_check 00000001800a6630 f   sfc_mex:sfc_mex.obj
 0001:000a6390       ml_generic_castability_check 00000001800a7390 f   sfc_mex:sfc_mex.obj
 0001:000a6430       ml_check_mx_array_for_single_castability 00000001800a7430 f   sfc_mex:sfc_mex.obj
 0001:000a64d0       ml_check_mx_array_for_logical_castability 00000001800a74d0 f   sfc_mex:sfc_mex.obj
 0001:000a6570       ml_check_mx_array_for_int8_castability 00000001800a7570 f   sfc_mex:sfc_mex.obj
 0001:000a6620       ml_check_mx_array_for_uint8_castability 00000001800a7620 f   sfc_mex:sfc_mex.obj
 0001:000a6680       ml_check_mx_array_for_int16_castability 00000001800a7680 f   sfc_mex:sfc_mex.obj
 0001:000a66e0       ml_check_mx_array_for_uint16_castability 00000001800a76e0 f   sfc_mex:sfc_mex.obj
 0001:000a6740       ml_check_mx_array_for_int32_castability 00000001800a7740 f   sfc_mex:sfc_mex.obj
 0001:000a67a0       ml_check_mx_array_for_uint32_castability 00000001800a77a0 f   sfc_mex:sfc_mex.obj
 0001:000a6800       ml_check_mx_array_for_castability 00000001800a7800 f   sfc_mex:sfc_mex.obj
 0001:000a7130       set_data_value             00000001800a8130 f   sfc_mex:sfc_mex.obj
 0001:000a74a0       get_data_value             00000001800a84a0 f   sfc_mex:sfc_mex.obj
 0001:000a75b0       get_next_element_address   00000001800a85b0 f   sfc_mex:sfc_mex.obj
 0001:000a7680       sf_normalize_index         00000001800a8680 f   sfc_mex:sfc_mex.obj
 0001:000a7a10       ml_array_index_bound_check 00000001800a8a10 f   sfc_mex:sfc_mex.obj
 0001:000a8530       mx_value                   00000001800a9530 f   sfc_mex:sfc_mex.obj
 0001:000a8580       sf_create_numeric_array    00000001800a9580 f   sfc_mex:sfc_mex.obj
 0001:000a8620       sf_mex_assign_to_mx_array  00000001800a9620 f   sfc_mex:sfc_mex.obj
 0001:000a8970       assign_from_mx_array       00000001800a9970 f   sfc_mex:sfc_mex.obj
 0001:000a91a0       sf_mex_import_v            00000001800aa1a0 f   sfc_mex:sfc_mex.obj
 0001:000a9770       get_machine_and_chart_file_number 00000001800aa770 f   sfc_mex:sfc_sf.obj
 0001:000a9860       get_sfun_block_specialization 00000001800aa860 f   sfc_mex:sfc_sf.obj
 0001:000a98e0       call_sf_machine_global_method_dispatcher 00000001800aa8e0 f   sfc_mex:sfc_sf.obj
 0001:000a9b10       mdl_zeroCrossings_processing 00000001800aab10 f   sfc_mex:sfc_sf.obj
 0001:000a9be0       mdl_derivatives_processing 00000001800aabe0 f   sfc_mex:sfc_sf.obj
 0001:000a9ea0       mdl_outputs_continuous_legacy 00000001800aaea0 f   sfc_mex:sfc_sf.obj
 0001:000a9f20       mdl_outputs_processing     00000001800aaf20 f   sfc_mex:sfc_sf.obj
 0001:000aa150       mdl_enable_processing      00000001800ab150 f   sfc_mex:sfc_sf.obj
 0001:000aa220       mdl_disable_processing     00000001800ab220 f   sfc_mex:sfc_sf.obj
 0001:000aab70       write_symbol_mapping       00000001800abb70 f   sfc_mex:sfc_sf.obj
 0001:000ab290       sf_call_output_fcn_enable_disable 00000001800ac290 f   sfc_mex:sfc_sf.obj
 0001:000ab510       set_dwork_information_from_mx_array 00000001800ac510 f   sfc_mex:sfc_sf.obj
 0001:000abe00       ptr2mxStruct               00000001800ace00 f   sfc_mex:sfc_sf.obj
 0001:000ac110       SNPRINTF_WRAPPER           00000001800ad110 f   sfc_debug:sfcdebug.obj
 0001:000ac130       sf_debug_chart_instance_initialized_quick 00000001800ad130 f   sfc_debug:sfcdebug.obj
 0001:000ac140       sf_debug_chart_instance_initialized 00000001800ad140 f   sfc_debug:sfcdebug.obj
 0001:000ac2e0       sfrtAddSize                00000001800ad2e0 f   sfc_debug:sfcdebug.obj
 0001:000ac3a0       sfrtGenSizeString          00000001800ad3a0 f   sfc_debug:sfcdebug.obj
 0001:000acab0       sf_debug_sim_status_listener 00000001800adab0 f   sfc_debug:sfcdebug.obj
 0001:000ad020       sf_debug_form_mask_bits    00000001800ae020 f   sfc_debug:sfcdebug.obj
 0001:000ad060       sf_debug_form_sf_data_type_offsets 00000001800ae060 f   sfc_debug:sfcdebug.obj
 0001:000ad120       sf_debug_free_all          00000001800ae120 f   sfc_debug:sfcdebug.obj
 0001:000ad2a0       sf_debug_append_debugger_context 00000001800ae2a0 f   sfc_debug:sfcdebug.obj
 0001:000ad560       local_strdup               00000001800ae560 f   sfc_debug:sfcdebug.obj
 0001:000ae440       sf_debug_em_terminate      00000001800af440 f   sfc_debug:sfcdebug.obj
 0001:000ae480       sf_debug_push_eml_function 00000001800af480 f   sfc_debug:sfcdebug.obj
 0001:000ae520       sf_debug_pop_eml_function  00000001800af520 f   sfc_debug:sfcdebug.obj
 0001:000af220       sf_debug_get_machine_number_from_id_or_name 00000001800b0220 f   sfc_debug:sfcdebug.obj
 0001:000af370       sf_debug_get_chart_number_from_id 00000001800b0370 f   sfc_debug:sfcdebug.obj
 0001:000affe0       sf_debug_transfer_control_to_debugger_GUI 00000001800b0fe0 f   sfc_debug:sfcdebug.obj
 0001:000b0f80       sf_debug_scripts_rehash    00000001800b1f80 f   sfc_debug:sfcdebug.obj
 0001:000b11c0       sf_debug_get_script_line_count 00000001800b21c0 f   sfc_debug:sfcdebug.obj
 0001:000b18d0       cv_eml_state_cvId          00000001800b28d0 f   sfc_debug:sfcdebug.obj
 0001:000b2af0       sf_debug_data_array_bounds_error 00000001800b3af0 f   sfc_debug:sfcdebug.obj
 0001:000b2f20       eml_debug_runtime_error_doclink 00000001800b3f20 f   sfc_debug:sfcdebug.obj
 0001:000b30a0       sf_debug_runtime_error     00000001800b40a0 f   sfc_debug:sfcdebug.obj
 0001:000b3110       sf_debug_matlab_error      00000001800b4110 f   sfc_debug:sfcdebug.obj
 0001:000b39c0       sf_debug_data_value_error  00000001800b49c0 f   sfc_debug:sfcdebug.obj
 0001:000b42c0       sf_debug_data_loss_error   00000001800b52c0 f   sfc_debug:sfcdebug.obj
 0001:000b4f20       call_cv_range_check        00000001800b5f20 f   sfc_debug:sfcdebug.obj
 0001:000b56f0       sf_debug_invoke_cycle_detection_code 00000001800b66f0 f   sfc_debug:sfcdebug.obj
 0001:000b6560       sf_reset_debug_info_struct 00000001800b7560 f   sfc_debug:sfcdebug.obj
 0001:000b6e50       cv_script_cvId             00000001800b7e50 f   sfc_debug:sfcdebug.obj
 0001:000b7c40       sfc_api_chart_visible      00000001800b8c40 f   sfc_debug:sfc_api.obj
 0001:000b7cc0       sfc_api_active_instance    00000001800b8cc0 f   sfc_debug:sfc_api.obj
 0001:000b7d40       sfc_api_machine_load       00000001800b8d40 f   sfc_debug:sfc_api.obj
 0001:000b7e10       sfc_api_debugger_alive     00000001800b8e10 f   sfc_debug:sfc_api.obj
 0001:000b7e20       sfc_api_go                 00000001800b8e20 f   sfc_debug:sfc_api.obj
 0001:000b7e30       sfc_api_step_over          00000001800b8e30 f   sfc_debug:sfc_api.obj
 0001:000b7e40       sfc_api_step_out           00000001800b8e40 f   sfc_debug:sfc_api.obj
 0001:000b7e50       sfc_api_resume             00000001800b8e50 f   sfc_debug:sfc_api.obj
 0001:000b7e60       sfc_api_break              00000001800b8e60 f   sfc_debug:sfc_api.obj
 0001:000b7e70       sfc_api_stop_debugging     00000001800b8e70 f   sfc_debug:sfc_api.obj
 0001:000b7ec0       sfc_api_is_cycle_detected  00000001800b8ec0 f   sfc_debug:sfc_api.obj
 0001:000b7f10       sfc_api_is_array_bounds_detected 00000001800b8f10 f   sfc_debug:sfc_api.obj
 0001:000b7f60       sfc_api_set_disable_all_breakpoints 00000001800b8f60 f   sfc_debug:sfc_api.obj
 0001:000b7fd0       sfc_api_disable_all_breakpoints_and_go 00000001800b8fd0 f   sfc_debug:sfc_api.obj
 0001:000b7fe0       sfc_api_close              00000001800b8fe0 f   sfc_debug:sfc_api.obj
 0001:000b7ff0       sfc_api_browse_data        00000001800b8ff0 f   sfc_debug:sfc_api.obj
 0001:000b8060       sfc_api_watch_data         00000001800b9060 f   sfc_debug:sfc_api.obj
 0001:000b8100       sfc_api_assign_data        00000001800b9100 f   sfc_debug:sfc_api.obj
 0001:000b81a0       sfc_api_whos               00000001800b91a0 f   sfc_debug:sfc_api.obj
 0001:000b8230       sfc_api_get_consistency_info 00000001800b9230 f   sfc_debug:sfc_api.obj
 0001:000b8240       sfc_api_browse_trace       00000001800b9240 f   sfc_debug:sfc_api.obj
 0001:000b8250       sfc_api_break_on_chart_entry 00000001800b9250 f   sfc_debug:sfc_api.obj
 0001:000b8270       sfc_api_break_on_event_broadcast 00000001800b9270 f   sfc_debug:sfc_api.obj
 0001:000b8290       sfc_api_break_on_state_entry 00000001800b9290 f   sfc_debug:sfc_api.obj
 0001:000b82b0       sfc_api_set_watch          00000001800b92b0 f   sfc_debug:sfc_api.obj
 0001:000b8350       sfc_api_set_breakpoints    00000001800b9350 f   sfc_debug:sfc_api.obj
 0001:000b83f0       sfc_api_set_eml_breakpoints 00000001800b93f0 f   sfc_debug:sfc_api.obj
 0001:000b8470       sfc_api_set_script_breakpoints 00000001800b9470 f   sfc_debug:sfc_api.obj
 0001:000b84c0       sfc_api_add_script_breakpoints 00000001800b94c0 f   sfc_debug:sfc_api.obj
 0001:000b8510       sfc_api_clear_script_breakpoints 00000001800b9510 f   sfc_debug:sfc_api.obj
 0001:000b8560       sfc_api_query_script_breakpoints 00000001800b9560 f   sfc_debug:sfc_api.obj
 0001:000b85c0       sfc_api_get_script_id      00000001800b95c0 f   sfc_debug:sfc_api.obj
 0001:000b8680       sfc_api_get_active_states  00000001800b9680 f   sfc_debug:sfc_api.obj
 0001:000b8700       sfc_api_break_between_times 00000001800b9700 f   sfc_debug:sfc_api.obj
 0001:000b8760       sfc_api_get_instance_handle 00000001800b9760 f   sfc_debug:sfc_api.obj
 0001:000b8810       sfc_api_get_coverage       00000001800b9810 f   sfc_debug:sfc_api.obj
 0001:000b8890       sfc_api_set_animation      00000001800b9890 f   sfc_debug:sfc_api.obj
 0001:000b88e0       sfc_api_select_chart       00000001800b98e0 f   sfc_debug:sfc_api.obj
 0001:000b8940       sfc_api_select_charts      00000001800b9940 f   sfc_debug:sfc_api.obj
 0001:000b8970       sfc_api_cycle_detection_check 00000001800b9970 f   sfc_debug:sfc_api.obj
 0001:000b89c0       sfc_api_data_range_check   00000001800b99c0 f   sfc_debug:sfc_api.obj
 0001:000b8a10       sfc_api_transition_conflict_check 00000001800b9a10 f   sfc_debug:sfc_api.obj
 0001:000b8a60       sfc_api_state_consistency_check 00000001800b9a60 f   sfc_debug:sfc_api.obj
 0001:000b8ab0       sfc_api_set_instance_cv_ids 00000001800b9ab0 f   sfc_debug:sfc_api.obj
 0001:000b8bc0       sfc_api_set_script_cv_ids  00000001800b9bc0 f   sfc_debug:sfc_api.obj
 0001:000b8c60       sfc_api_get_current_machine_id 00000001800b9c60 f   sfc_debug:sfc_api.obj
 0001:000b8c90       sfc_api_get_current_machine_number 00000001800b9c90 f   sfc_debug:sfc_api.obj
 0001:000b8cc0       sfc_api_get_current_chart_number 00000001800b9cc0 f   sfc_debug:sfc_api.obj
 0001:000b8cf0       sfc_api_get_current_instance_number 00000001800b9cf0 f   sfc_debug:sfc_api.obj
 0001:000b8d20       sfc_api_get_current_instance_handle 00000001800b9d20 f   sfc_debug:sfc_api.obj
 0001:000b8d40       sfc_api_get_current_is_minor_time_step 00000001800b9d40 f   sfc_debug:sfc_api.obj
 0001:000b8d70       sfc_api_get_current_machine_name 00000001800b9d70 f   sfc_debug:sfc_api.obj
 0001:000b8d90       sfc_api_get_current_chart_id 00000001800b9d90 f   sfc_debug:sfc_api.obj
 0001:000b8dc0       sfc_api_get_current_object_type 00000001800b9dc0 f   sfc_debug:sfc_api.obj
 0001:000b8df0       sfc_api_get_current_event_type 00000001800b9df0 f   sfc_debug:sfc_api.obj
 0001:000b8e20       sfc_api_get_current_object_id 00000001800b9e20 f   sfc_debug:sfc_api.obj
 0001:000b8e50       sfc_get_current_active_event_type 00000001800b9e50 f   sfc_debug:sfc_api.obj
 0001:000b8e80       sfc_api_get_current_active_event_id 00000001800b9e80 f   sfc_debug:sfc_api.obj
 0001:000b8eb0       sfc_api_get_current_simulation_time 00000001800b9eb0 f   sfc_debug:sfc_api.obj
 0001:000b8ed0       sfc_get_current_tag_type   00000001800b9ed0 f   sfc_debug:sfc_api.obj
 0001:000b8f00       sfc_get_current_coverage_percentage 00000001800b9f00 f   sfc_debug:sfc_api.obj
 0001:000b8f20       sfc_get_current_statement_context 00000001800b9f20 f   sfc_debug:sfc_api.obj
 0001:000b8f40       sfc_get_current_optional_integer 00000001800b9f40 f   sfc_debug:sfc_api.obj
 0001:000b8f70       sfc_get_current_statement_info 00000001800b9f70 f   sfc_debug:sfc_api.obj
 0001:000b9010       sfc_api_get                00000001800ba010 f   sfc_debug:sfc_api.obj
 0001:000b9170       sf_debug_sm_is_using_unified_editors 00000001800ba170 f   sfc_debug:sfdb_animation.obj
 0001:000b9210       sf_debug_sm_is_chart_visible_in_unified_editors 00000001800ba210 f   sfc_debug:sfdb_animation.obj
 0001:000b92d0       sf_debug_sm_check_if_chart_is_visible 00000001800ba2d0 f   sfc_debug:sfdb_animation.obj
 0001:000b9dd0       sf_debug_sm_fill_state_activity_data 00000001800badd0 f   sfc_debug:sfdb_animation.obj
 0001:000bc3c0       sf_debug_hm_get_simulink_handle 00000001800bd3c0 f   sfc_debug:sfdb_handle_management.obj
 0001:000bcf10       sf_debug_hm_initialize_globals 00000001800bdf10 f   sfc_debug:sfdb_handle_management.obj
 0001:000bd010       sf_debug_hm_get_machine_debug_flag 00000001800be010 f   sfc_debug:sfdb_handle_management.obj
 0001:000bd180       sf_debug_hm_get_machine_id 00000001800be180 f   sfc_debug:sfdb_handle_management.obj
 0001:000bd2a0       sf_debug_hm_get_chart_id   00000001800be2a0 f   sfc_debug:sfdb_handle_management.obj
 0001:000bd440       sf_debug_hm_register_executing_SFunction 00000001800be440 f   sfc_debug:sfdb_handle_management.obj
 0001:000bd5e0       sf_debug_hm_get_chart_active_instance 00000001800be5e0 f   sfc_debug:sfdb_handle_management.obj
 0001:000bd750       sf_debug_hm_get_chart_visibility 00000001800be750 f   sfc_debug:sfdb_handle_management.obj
 0001:000bd8a0       sf_debug_hm_form_object_boolean_properties 00000001800be8a0 f   sfc_debug:sfdb_handle_management.obj
 0001:000bdb70       sf_debug_hm_form_object_properties 00000001800beb70 f   sfc_debug:sfdb_handle_management.obj
 0001:000bddb0       sf_debug_hm_terminate_charts 00000001800bedb0 f   sfc_debug:sfdb_handle_management.obj
 0001:000be520       sf_debug_hm_terminate_machines 00000001800bf520 f   sfc_debug:sfdb_handle_management.obj
 0001:000bfe40       void_ptr_stack_vector_free_total 00000001800c0e40 f   sfc_debug:sfdb_data_browse.obj
 0001:000bfed0       sf_debug_st_terminate_machine 00000001800c0ed0 f   sfc_debug:sfdb_data_browse.obj
 0001:000bff10       sf_debug_st_terminate_instance 00000001800c0f10 f   sfc_debug:sfdb_data_browse.obj
 0001:000c02c0       push_on_to_void_ptr_stack  00000001800c12c0 f   sfc_debug:sfdb_data_browse.obj
 0001:000c0450       pop_from_void_ptr_stack    00000001800c1450 f   sfc_debug:sfdb_data_browse.obj
 0001:000c0580       sf_debug_st_get_data_value 00000001800c1580 f   sfc_debug:sfdb_data_browse.obj
 0001:000c0b10       mx_value                   00000001800c1b10 f   sfc_debug:sfdb_data_browse.obj
 0001:000c0b50       sf_debug_st_fill_data_struct 00000001800c1b50 f   sfc_debug:sfdb_data_browse.obj
 0001:000c0e90       data_type_format_strings   00000001800c1e90 f   sfc_debug:sfdb_data_browse.obj
 0001:000c0f40       sf_debug_st_fill_data      00000001800c1f40 f   sfc_debug:sfdb_data_browse.obj
 0001:000c2180       sf_debug_ss_copy_dimension 00000001800c3180 f   sfc_debug:sfdb_symbol_scope.obj
 0001:000c2240       sf_debug_ss_get_number_elements 00000001800c3240 f   sfc_debug:sfdb_symbol_scope.obj
 0001:000c2260       sf_debug_ss_fill_data_struct 00000001800c3260 f   sfc_debug:sfdb_symbol_scope.obj
 0001:000c25b0       sf_debug_ss_reset_data_info 00000001800c35b0 f   sfc_debug:sfdb_symbol_scope.obj
 0001:000c2610       sf_debug_fill_data_info_by_symbol_scope_entry 00000001800c3610 f   sfc_debug:sfdb_symbol_scope.obj
 0001:000c26d0       sf_debug_fill_data_info_by_data_vector 00000001800c36d0 f   sfc_debug:sfdb_symbol_scope.obj
 0001:000c2920       sf_debug_ss_get_data_info  00000001800c3920 f   sfc_debug:sfdb_symbol_scope.obj
 0001:000c2c10       sf_debug_select_mex_function 00000001800c3c10 f   sfc_debug:sfdb_symbol_scope.obj
 0001:000c2c40       sf_debug_is_dyn_matrix_initialized 00000001800c3c40 f   sfc_debug:sfdb_symbol_scope.obj
 0001:000c2c60       sf_debug_ss_set_data_value_try 00000001800c3c60 f   sfc_debug:sfdb_symbol_scope.obj
 0001:000c2e30       sf_debug_ss_get_data_value 00000001800c3e30 f   sfc_debug:sfdb_symbol_scope.obj
 0001:000c3380       sf_debug_ss_data_bytes_string 00000001800c4380 f   sfc_debug:sfdb_symbol_scope.obj
 0001:000c3430       sf_debug_ss_data_class_string 00000001800c4430 f   sfc_debug:sfdb_symbol_scope.obj
 0001:000c37c0       sf_debug_ss_data_size_string 00000001800c47c0 f   sfc_debug:sfdb_symbol_scope.obj
 0001:000c38a0       sf_debug_ss_data_create_data_info_struct 00000001800c48a0 f   sfc_debug:sfdb_symbol_scope.obj
 0001:000c3b70       sf_debug_ss_data_create_name_value_pair 00000001800c4b70 f   sfc_debug:sfdb_symbol_scope.obj
 0001:000c3c10       sf_debug_ss_data_get_whos_info 00000001800c4c10 f   sfc_debug:sfdb_symbol_scope.obj
 0001:000c3c20       same_named_data_in_data_array 00000001800c4c20 f   sfc_debug:sfdb_symbol_scope.obj
 0001:000c5490       sf_debug_cc_terminate_chart 00000001800c6490 f   sfc_debug:sfdb_coverage.obj
 0001:000c5830       sf_debug_cc_terminate_instance 00000001800c6830 f   sfc_debug:sfdb_coverage.obj
 0001:000c6420       sf_debug_cc_mark_object_if_needed 00000001800c7420 f   sfc_debug:sfdb_coverage.obj
 0001:000c67e0       sf_debug_cc_fill_transition_coverage_data 00000001800c77e0 f   sfc_debug:sfdb_coverage.obj
 0001:000c6970       sf_debug_cc_fill_transition_coverage_map 00000001800c7970 f   sfc_debug:sfdb_coverage.obj
 0001:000c6c20       sf_debug_cc_fill_state_coverage_map 00000001800c7c20 f   sfc_debug:sfdb_coverage.obj
 0001:000c6e70       sf_debug_cc_fill_state_coverage_data 00000001800c7e70 f   sfc_debug:sfdb_coverage.obj
 0001:000c7ab0       sf_debug_bm_initialize_eml 00000001800c8ab0 f   sfc_debug:sfdb_breakpoints.obj
 0001:000c8c20       sf_debug_bm_map_debug_tag_to_breakpoint_tag 00000001800c9c20 f   sfc_debug:sfdb_breakpoints.obj
 0001:000c8d00       sf_debug_bm_is_a_eml_breakpoint_impl 00000001800c9d00 f   sfc_debug:sfdb_breakpoints.obj
 0001:000ca780       sf_debug_sc_push_on_error_stack 00000001800cb780 f   sfc_debug:sfdb_state_consistency.obj
 0001:000ca8b0       sf_debug_sc_reset_error_stack 00000001800cb8b0 f   sfc_debug:sfdb_state_consistency.obj
 0001:000caa40       sf_debug_sc_is_state_inconsistent 00000001800cba40 f   sfc_debug:sfdb_state_consistency.obj
 0001:000cad40       sf_debug_sc_fill_consistency_info 00000001800cbd40 f   sfc_debug:sfdb_state_consistency.obj
 0001:000cb320       void_assertion_fcn         00000001800cc320 f   sfc_debug:sfdb_call_stack.obj
 0001:000cb8a0       sf_debug_tm_fill_local_trace 00000001800cc8a0 f   sfc_debug:sfdb_call_stack.obj
 0001:000cbe70       sf_debug_cd_terminate_instance 00000001800cce70 f   sfc_debug:sfdb_cycle_detection.obj
 0001:000cbed0       sf_debug_cd_free_checksum_stack 00000001800cced0 f   sfc_debug:sfdb_cycle_detection.obj
 0001:000cbf20       sf_debug_cd_reset_pack_strings 00000001800ccf20 f   sfc_debug:sfdb_cycle_detection.obj
 0001:000cc5e0       md5file_clear              00000001800cd5e0 f   sfc_debug:ckmd5.obj
 0001:000cc610       Encode                     00000001800cd610 f   sfc_debug:ckmd5.obj
 0001:000cc660       Decode                     00000001800cd660 f   sfc_debug:ckmd5.obj
 0001:000cc700       MD5Transform               00000001800cd700 f   sfc_debug:ckmd5.obj
 0001:000ccf50       md5file_addn               00000001800cdf50 f   sfc_debug:ckmd5.obj
 0001:000cd020       md5file_hash               00000001800ce020 f   sfc_debug:ckmd5.obj
 0001:000cd4ec       pre_c_init                 00000001800ce4ec f   MSVCRT:crtdll.obj
 0001:000cd7a8       __DllMainCRTStartup        00000001800ce7a8 f   MSVCRT:crtdll.obj
 0001:000cdeb0       __DllMainCRTStartup$filt$0 00000001800ceeb0 f   MSVCRT:crtdll.obj
 0001:000cdee0       __DllMainCRTStartup$fin$1  00000001800ceee0 f   MSVCRT:crtdll.obj
 0001:000cdefa       _onexit$fin$0              00000001800ceefa f   MSVCRT:atonexit.obj
 0001:000cdf20       _IsNonwritableInCurrentImage$filt$0 00000001800cef20 f   MSVCRT:pesect.obj
